
Sensors.elf:     file format elf32-avr

Sections:
Idx Name          Size      VMA       LMA       File off  Algn
  0 .data         00000612  00800200  0000742e  000074c2  2**0
                  CONTENTS, ALLOC, LOAD, DATA
  1 .text         0000742e  00000000  00000000  00000094  2**1
                  CONTENTS, ALLOC, LOAD, READONLY, CODE
  2 .bss          00000286  00800812  00800812  00007ad4  2**0
                  ALLOC
  3 .comment      0000005c  00000000  00000000  00007ad4  2**0
                  CONTENTS, READONLY
  4 .note.gnu.avr.deviceinfo 00000040  00000000  00000000  00007b30  2**2
                  CONTENTS, READONLY
  5 .debug_aranges 00000ba0  00000000  00000000  00007b70  2**0
                  CONTENTS, READONLY, DEBUGGING
  6 .debug_info   0000a88b  00000000  00000000  00008710  2**0
                  CONTENTS, READONLY, DEBUGGING
  7 .debug_abbrev 00003252  00000000  00000000  00012f9b  2**0
                  CONTENTS, READONLY, DEBUGGING
  8 .debug_line   000071e5  00000000  00000000  000161ed  2**0
                  CONTENTS, READONLY, DEBUGGING
  9 .debug_frame  00002654  00000000  00000000  0001d3d4  2**2
                  CONTENTS, READONLY, DEBUGGING
 10 .debug_str    00003f3b  00000000  00000000  0001fa28  2**0
                  CONTENTS, READONLY, DEBUGGING
 11 .debug_loc    000066ae  00000000  00000000  00023963  2**0
                  CONTENTS, READONLY, DEBUGGING
 12 .debug_ranges 000009d0  00000000  00000000  0002a011  2**0
                  CONTENTS, READONLY, DEBUGGING

Disassembly of section .text:

00000000 <__vectors>:
       0:	f6 c0       	rjmp	.+492    	; 0x1ee <__ctors_end>
       2:	00 00       	nop
       4:	15 c1       	rjmp	.+554    	; 0x230 <__bad_interrupt>
       6:	00 00       	nop
       8:	13 c1       	rjmp	.+550    	; 0x230 <__bad_interrupt>
       a:	00 00       	nop
       c:	11 c1       	rjmp	.+546    	; 0x230 <__bad_interrupt>
       e:	00 00       	nop
      10:	0f c1       	rjmp	.+542    	; 0x230 <__bad_interrupt>
      12:	00 00       	nop
      14:	0d c1       	rjmp	.+538    	; 0x230 <__bad_interrupt>
      16:	00 00       	nop
      18:	0b c1       	rjmp	.+534    	; 0x230 <__bad_interrupt>
      1a:	00 00       	nop
      1c:	09 c1       	rjmp	.+530    	; 0x230 <__bad_interrupt>
      1e:	00 00       	nop
      20:	07 c1       	rjmp	.+526    	; 0x230 <__bad_interrupt>
      22:	00 00       	nop
      24:	05 c1       	rjmp	.+522    	; 0x230 <__bad_interrupt>
      26:	00 00       	nop
      28:	03 c1       	rjmp	.+518    	; 0x230 <__bad_interrupt>
      2a:	00 00       	nop
      2c:	01 c1       	rjmp	.+514    	; 0x230 <__bad_interrupt>
      2e:	00 00       	nop
      30:	fd c5       	rjmp	.+3066   	; 0xc2c <__vector_12>
      32:	00 00       	nop
      34:	fd c0       	rjmp	.+506    	; 0x230 <__bad_interrupt>
      36:	00 00       	nop
      38:	fb c0       	rjmp	.+502    	; 0x230 <__bad_interrupt>
      3a:	00 00       	nop
      3c:	f9 c0       	rjmp	.+498    	; 0x230 <__bad_interrupt>
      3e:	00 00       	nop
      40:	f7 c0       	rjmp	.+494    	; 0x230 <__bad_interrupt>
      42:	00 00       	nop
      44:	f5 c0       	rjmp	.+490    	; 0x230 <__bad_interrupt>
      46:	00 00       	nop
      48:	f3 c0       	rjmp	.+486    	; 0x230 <__bad_interrupt>
      4a:	00 00       	nop
      4c:	f1 c0       	rjmp	.+482    	; 0x230 <__bad_interrupt>
      4e:	00 00       	nop
      50:	ef c0       	rjmp	.+478    	; 0x230 <__bad_interrupt>
      52:	00 00       	nop
      54:	ed c0       	rjmp	.+474    	; 0x230 <__bad_interrupt>
      56:	00 00       	nop
      58:	eb c0       	rjmp	.+470    	; 0x230 <__bad_interrupt>
      5a:	00 00       	nop
      5c:	e9 c0       	rjmp	.+466    	; 0x230 <__bad_interrupt>
      5e:	00 00       	nop
      60:	e7 c0       	rjmp	.+462    	; 0x230 <__bad_interrupt>
      62:	00 00       	nop
      64:	0c 94 cc 27 	jmp	0x4f98	; 0x4f98 <__vector_25>
      68:	0c 94 1e 28 	jmp	0x503c	; 0x503c <__vector_26>
      6c:	e1 c0       	rjmp	.+450    	; 0x230 <__bad_interrupt>
      6e:	00 00       	nop
      70:	df c0       	rjmp	.+446    	; 0x230 <__bad_interrupt>
      72:	00 00       	nop
      74:	dd c0       	rjmp	.+442    	; 0x230 <__bad_interrupt>
      76:	00 00       	nop
      78:	db c0       	rjmp	.+438    	; 0x230 <__bad_interrupt>
      7a:	00 00       	nop
      7c:	d9 c0       	rjmp	.+434    	; 0x230 <__bad_interrupt>
      7e:	00 00       	nop
      80:	d7 c0       	rjmp	.+430    	; 0x230 <__bad_interrupt>
      82:	00 00       	nop
      84:	d5 c0       	rjmp	.+426    	; 0x230 <__bad_interrupt>
      86:	00 00       	nop
      88:	d3 c0       	rjmp	.+422    	; 0x230 <__bad_interrupt>
      8a:	00 00       	nop
      8c:	d1 c0       	rjmp	.+418    	; 0x230 <__bad_interrupt>
      8e:	00 00       	nop
      90:	0c 94 62 28 	jmp	0x50c4	; 0x50c4 <__vector_36>
      94:	0c 94 b4 28 	jmp	0x5168	; 0x5168 <__vector_37>
      98:	cb c0       	rjmp	.+406    	; 0x230 <__bad_interrupt>
      9a:	00 00       	nop
      9c:	0c 94 7c 32 	jmp	0x64f8	; 0x64f8 <__vector_39>
      a0:	c7 c0       	rjmp	.+398    	; 0x230 <__bad_interrupt>
      a2:	00 00       	nop
      a4:	c5 c0       	rjmp	.+394    	; 0x230 <__bad_interrupt>
      a6:	00 00       	nop
      a8:	c3 c0       	rjmp	.+390    	; 0x230 <__bad_interrupt>
      aa:	00 00       	nop
      ac:	c1 c0       	rjmp	.+386    	; 0x230 <__bad_interrupt>
      ae:	00 00       	nop
      b0:	bf c0       	rjmp	.+382    	; 0x230 <__bad_interrupt>
      b2:	00 00       	nop
      b4:	bd c0       	rjmp	.+378    	; 0x230 <__bad_interrupt>
      b6:	00 00       	nop
      b8:	bb c0       	rjmp	.+374    	; 0x230 <__bad_interrupt>
      ba:	00 00       	nop
      bc:	b9 c0       	rjmp	.+370    	; 0x230 <__bad_interrupt>
      be:	00 00       	nop
      c0:	b7 c0       	rjmp	.+366    	; 0x230 <__bad_interrupt>
      c2:	00 00       	nop
      c4:	b5 c0       	rjmp	.+362    	; 0x230 <__bad_interrupt>
      c6:	00 00       	nop
      c8:	b3 c0       	rjmp	.+358    	; 0x230 <__bad_interrupt>
      ca:	00 00       	nop
      cc:	0c 94 f8 28 	jmp	0x51f0	; 0x51f0 <__vector_51>
      d0:	0c 94 4a 29 	jmp	0x5294	; 0x5294 <__vector_52>
      d4:	ad c0       	rjmp	.+346    	; 0x230 <__bad_interrupt>
      d6:	00 00       	nop
      d8:	0c 94 8e 29 	jmp	0x531c	; 0x531c <__vector_54>
      dc:	0c 94 e0 29 	jmp	0x53c0	; 0x53c0 <__vector_55>
      e0:	a7 c0       	rjmp	.+334    	; 0x230 <__bad_interrupt>
      e2:	00 00       	nop
      e4:	a1 1f       	adc	r26, r17
      e6:	a1 1f       	adc	r26, r17
      e8:	a1 1f       	adc	r26, r17
      ea:	ec 1f       	adc	r30, r28
      ec:	f8 1f       	adc	r31, r24
      ee:	1e 20       	and	r1, r14
      f0:	a1 1f       	adc	r26, r17
      f2:	a1 1f       	adc	r26, r17
      f4:	ec 1f       	adc	r30, r28
      f6:	f8 1f       	adc	r31, r24
      f8:	9e 32       	cpi	r25, 0x2E	; 46
      fa:	0e 33       	cpi	r16, 0x3E	; 62
      fc:	0e 33       	cpi	r16, 0x3E	; 62
      fe:	0e 33       	cpi	r16, 0x3E	; 62
     100:	0e 33       	cpi	r16, 0x3E	; 62
     102:	0e 33       	cpi	r16, 0x3E	; 62
     104:	0e 33       	cpi	r16, 0x3E	; 62
     106:	0e 33       	cpi	r16, 0x3E	; 62
     108:	9e 32       	cpi	r25, 0x2E	; 46
     10a:	0e 33       	cpi	r16, 0x3E	; 62
     10c:	0e 33       	cpi	r16, 0x3E	; 62
     10e:	0e 33       	cpi	r16, 0x3E	; 62
     110:	0e 33       	cpi	r16, 0x3E	; 62
     112:	0e 33       	cpi	r16, 0x3E	; 62
     114:	0e 33       	cpi	r16, 0x3E	; 62
     116:	0e 33       	cpi	r16, 0x3E	; 62
     118:	a0 32       	cpi	r26, 0x20	; 32
     11a:	0e 33       	cpi	r16, 0x3E	; 62
     11c:	0e 33       	cpi	r16, 0x3E	; 62
     11e:	0e 33       	cpi	r16, 0x3E	; 62
     120:	0e 33       	cpi	r16, 0x3E	; 62
     122:	0e 33       	cpi	r16, 0x3E	; 62
     124:	0e 33       	cpi	r16, 0x3E	; 62
     126:	0e 33       	cpi	r16, 0x3E	; 62
     128:	0e 33       	cpi	r16, 0x3E	; 62
     12a:	0e 33       	cpi	r16, 0x3E	; 62
     12c:	0e 33       	cpi	r16, 0x3E	; 62
     12e:	0e 33       	cpi	r16, 0x3E	; 62
     130:	0e 33       	cpi	r16, 0x3E	; 62
     132:	0e 33       	cpi	r16, 0x3E	; 62
     134:	0e 33       	cpi	r16, 0x3E	; 62
     136:	0e 33       	cpi	r16, 0x3E	; 62
     138:	a0 32       	cpi	r26, 0x20	; 32
     13a:	0e 33       	cpi	r16, 0x3E	; 62
     13c:	0e 33       	cpi	r16, 0x3E	; 62
     13e:	0e 33       	cpi	r16, 0x3E	; 62
     140:	0e 33       	cpi	r16, 0x3E	; 62
     142:	0e 33       	cpi	r16, 0x3E	; 62
     144:	0e 33       	cpi	r16, 0x3E	; 62
     146:	0e 33       	cpi	r16, 0x3E	; 62
     148:	0e 33       	cpi	r16, 0x3E	; 62
     14a:	0e 33       	cpi	r16, 0x3E	; 62
     14c:	0e 33       	cpi	r16, 0x3E	; 62
     14e:	0e 33       	cpi	r16, 0x3E	; 62
     150:	0e 33       	cpi	r16, 0x3E	; 62
     152:	0e 33       	cpi	r16, 0x3E	; 62
     154:	0e 33       	cpi	r16, 0x3E	; 62
     156:	0e 33       	cpi	r16, 0x3E	; 62
     158:	0a 33       	cpi	r16, 0x3A	; 58
     15a:	0e 33       	cpi	r16, 0x3E	; 62
     15c:	0e 33       	cpi	r16, 0x3E	; 62
     15e:	0e 33       	cpi	r16, 0x3E	; 62
     160:	0e 33       	cpi	r16, 0x3E	; 62
     162:	0e 33       	cpi	r16, 0x3E	; 62
     164:	0e 33       	cpi	r16, 0x3E	; 62
     166:	0e 33       	cpi	r16, 0x3E	; 62
     168:	d5 32       	cpi	r29, 0x25	; 37
     16a:	0e 33       	cpi	r16, 0x3E	; 62
     16c:	0e 33       	cpi	r16, 0x3E	; 62
     16e:	0e 33       	cpi	r16, 0x3E	; 62
     170:	0e 33       	cpi	r16, 0x3E	; 62
     172:	0e 33       	cpi	r16, 0x3E	; 62
     174:	0e 33       	cpi	r16, 0x3E	; 62
     176:	0e 33       	cpi	r16, 0x3E	; 62
     178:	0e 33       	cpi	r16, 0x3E	; 62
     17a:	0e 33       	cpi	r16, 0x3E	; 62
     17c:	0e 33       	cpi	r16, 0x3E	; 62
     17e:	0e 33       	cpi	r16, 0x3E	; 62
     180:	0e 33       	cpi	r16, 0x3E	; 62
     182:	0e 33       	cpi	r16, 0x3E	; 62
     184:	0e 33       	cpi	r16, 0x3E	; 62
     186:	0e 33       	cpi	r16, 0x3E	; 62
     188:	c9 32       	cpi	r28, 0x29	; 41
     18a:	0e 33       	cpi	r16, 0x3E	; 62
     18c:	0e 33       	cpi	r16, 0x3E	; 62
     18e:	0e 33       	cpi	r16, 0x3E	; 62
     190:	0e 33       	cpi	r16, 0x3E	; 62
     192:	0e 33       	cpi	r16, 0x3E	; 62
     194:	0e 33       	cpi	r16, 0x3E	; 62
     196:	0e 33       	cpi	r16, 0x3E	; 62
     198:	ed 32       	cpi	r30, 0x2D	; 45

0000019a <prvIdleTask>:
                    mtCOVERAGE_TEST_MARKER();
                }
            }
        }
        portCLEAR_INTERRUPT_MASK_FROM_ISR( uxSavedInterruptStatus );
    }
     19a:	cf 93       	push	r28
     19c:	df 93       	push	r29
     19e:	1f 92       	push	r1
     1a0:	1f 92       	push	r1
     1a2:	cd b7       	in	r28, 0x3d	; 61
     1a4:	de b7       	in	r29, 0x3e	; 62
     1a6:	9a 83       	std	Y+2, r25	; 0x02
     1a8:	89 83       	std	Y+1, r24	; 0x01
     1aa:	0e 94 f4 16 	call	0x2de8	; 0x2de8 <prvCheckTasksWaitingTermination>
     1ae:	80 91 14 08 	lds	r24, 0x0814	; 0x800814 <pxReadyTasksLists>
     1b2:	82 30       	cpi	r24, 0x02	; 2
     1b4:	08 f0       	brcs	.+2      	; 0x1b8 <prvIdleTask+0x1e>
     1b6:	4f d4       	rcall	.+2206   	; 0xa56 <vPortYield>
     1b8:	0e 94 24 21 	call	0x4248	; 0x4248 <vApplicationIdleHook>
     1bc:	f6 cf       	rjmp	.-20     	; 0x1aa <prvIdleTask+0x10>

000001be <prvTimerTask>:
{
Timer_t *pxTimer = xTimer;

    configASSERT( xTimer );
    return pxTimer->pcTimerName;
}
     1be:	cf 93       	push	r28
     1c0:	df 93       	push	r29
     1c2:	00 d0       	rcall	.+0      	; 0x1c4 <prvTimerTask+0x6>
     1c4:	1f 92       	push	r1
     1c6:	1f 92       	push	r1
     1c8:	cd b7       	in	r28, 0x3d	; 61
     1ca:	de b7       	in	r29, 0x3e	; 62
     1cc:	9d 83       	std	Y+5, r25	; 0x05
     1ce:	8c 83       	std	Y+4, r24	; 0x04
     1d0:	ce 01       	movw	r24, r28
     1d2:	03 96       	adiw	r24, 0x03	; 3
     1d4:	0e 94 8f 1e 	call	0x3d1e	; 0x3d1e <prvGetNextExpireTime>
     1d8:	9a 83       	std	Y+2, r25	; 0x02
     1da:	89 83       	std	Y+1, r24	; 0x01
     1dc:	2b 81       	ldd	r18, Y+3	; 0x03
     1de:	89 81       	ldd	r24, Y+1	; 0x01
     1e0:	9a 81       	ldd	r25, Y+2	; 0x02
     1e2:	62 2f       	mov	r22, r18
     1e4:	0e 94 3a 1e 	call	0x3c74	; 0x3c74 <prvProcessTimerOrBlockTask>
     1e8:	0e 94 60 1f 	call	0x3ec0	; 0x3ec0 <prvProcessReceivedCommands>
     1ec:	f1 cf       	rjmp	.-30     	; 0x1d0 <prvTimerTask+0x12>

000001ee <__ctors_end>:
     1ee:	11 24       	eor	r1, r1
     1f0:	1f be       	out	0x3f, r1	; 63
     1f2:	cf ef       	ldi	r28, 0xFF	; 255
     1f4:	d1 e2       	ldi	r29, 0x21	; 33
     1f6:	de bf       	out	0x3e, r29	; 62
     1f8:	cd bf       	out	0x3d, r28	; 61
     1fa:	00 e0       	ldi	r16, 0x00	; 0
     1fc:	0c bf       	out	0x3c, r16	; 60

000001fe <__do_copy_data>:
     1fe:	18 e0       	ldi	r17, 0x08	; 8
     200:	a0 e0       	ldi	r26, 0x00	; 0
     202:	b2 e0       	ldi	r27, 0x02	; 2
     204:	ee e2       	ldi	r30, 0x2E	; 46
     206:	f4 e7       	ldi	r31, 0x74	; 116
     208:	00 e0       	ldi	r16, 0x00	; 0
     20a:	0b bf       	out	0x3b, r16	; 59
     20c:	02 c0       	rjmp	.+4      	; 0x212 <__do_copy_data+0x14>
     20e:	07 90       	elpm	r0, Z+
     210:	0d 92       	st	X+, r0
     212:	a2 31       	cpi	r26, 0x12	; 18
     214:	b1 07       	cpc	r27, r17
     216:	d9 f7       	brne	.-10     	; 0x20e <__do_copy_data+0x10>

00000218 <__do_clear_bss>:
     218:	2a e0       	ldi	r18, 0x0A	; 10
     21a:	a2 e1       	ldi	r26, 0x12	; 18
     21c:	b8 e0       	ldi	r27, 0x08	; 8
     21e:	01 c0       	rjmp	.+2      	; 0x222 <.do_clear_bss_start>

00000220 <.do_clear_bss_loop>:
     220:	1d 92       	st	X+, r1

00000222 <.do_clear_bss_start>:
     222:	a8 39       	cpi	r26, 0x98	; 152
     224:	b2 07       	cpc	r27, r18
     226:	e1 f7       	brne	.-8      	; 0x220 <.do_clear_bss_loop>
     228:	0e 94 39 26 	call	0x4c72	; 0x4c72 <main>
     22c:	0c 94 15 3a 	jmp	0x742a	; 0x742a <_exit>

00000230 <__bad_interrupt>:
     230:	e7 ce       	rjmp	.-562    	; 0x0 <__vectors>

00000232 <measure_co2_callback>:

int co2_value;


void measure_co2_callback(uint16_t ppm)
{
     232:	cf 93       	push	r28
     234:	df 93       	push	r29
     236:	1f 92       	push	r1
     238:	1f 92       	push	r1
     23a:	cd b7       	in	r28, 0x3d	; 61
     23c:	de b7       	in	r29, 0x3e	; 62
     23e:	9a 83       	std	Y+2, r25	; 0x02
     240:	89 83       	std	Y+1, r24	; 0x01
	co2_value = (int) ppm;
     242:	89 81       	ldd	r24, Y+1	; 0x01
     244:	9a 81       	ldd	r25, Y+2	; 0x02
     246:	90 93 69 0a 	sts	0x0A69, r25	; 0x800a69 <co2_value+0x1>
     24a:	80 93 68 0a 	sts	0x0A68, r24	; 0x800a68 <co2_value>
     24e:	00 00       	nop
     250:	0f 90       	pop	r0
     252:	0f 90       	pop	r0
     254:	df 91       	pop	r29
     256:	cf 91       	pop	r28
     258:	08 95       	ret

0000025a <timer_callback>:
 *  Author: drags
 */ 
#include "../Headers/m_lora_includes.h"

void timer_callback(TimerHandle_t pxTimer)
{
     25a:	cf 93       	push	r28
     25c:	df 93       	push	r29
     25e:	1f 92       	push	r1
     260:	1f 92       	push	r1
     262:	cd b7       	in	r28, 0x3d	; 61
     264:	de b7       	in	r29, 0x3e	; 62
     266:	9a 83       	std	Y+2, r25	; 0x02
     268:	89 83       	std	Y+1, r24	; 0x01
	xSemaphoreGive(xSemaphore_temperature);
     26a:	80 91 70 0a 	lds	r24, 0x0A70	; 0x800a70 <xSemaphore_temperature>
     26e:	90 91 71 0a 	lds	r25, 0x0A71	; 0x800a71 <xSemaphore_temperature+0x1>
     272:	20 e0       	ldi	r18, 0x00	; 0
     274:	40 e0       	ldi	r20, 0x00	; 0
     276:	50 e0       	ldi	r21, 0x00	; 0
     278:	60 e0       	ldi	r22, 0x00	; 0
     27a:	70 e0       	ldi	r23, 0x00	; 0
     27c:	42 d6       	rcall	.+3204   	; 0xf02 <xQueueGenericSend>

	xSemaphoreGive(xSemaphore_co2);
     27e:	80 91 72 0a 	lds	r24, 0x0A72	; 0x800a72 <xSemaphore_co2>
     282:	90 91 73 0a 	lds	r25, 0x0A73	; 0x800a73 <xSemaphore_co2+0x1>
     286:	20 e0       	ldi	r18, 0x00	; 0
     288:	40 e0       	ldi	r20, 0x00	; 0
     28a:	50 e0       	ldi	r21, 0x00	; 0
     28c:	60 e0       	ldi	r22, 0x00	; 0
     28e:	70 e0       	ldi	r23, 0x00	; 0
     290:	38 d6       	rcall	.+3184   	; 0xf02 <xQueueGenericSend>
	
	xSemaphoreGive(xSemaphore_send_data);
     292:	80 91 74 0a 	lds	r24, 0x0A74	; 0x800a74 <xSemaphore_send_data>
     296:	90 91 75 0a 	lds	r25, 0x0A75	; 0x800a75 <xSemaphore_send_data+0x1>
     29a:	20 e0       	ldi	r18, 0x00	; 0
     29c:	40 e0       	ldi	r20, 0x00	; 0
     29e:	50 e0       	ldi	r21, 0x00	; 0
     2a0:	60 e0       	ldi	r22, 0x00	; 0
     2a2:	70 e0       	ldi	r23, 0x00	; 0
     2a4:	2e d6       	rcall	.+3164   	; 0xf02 <xQueueGenericSend>
	
     2a6:	00 00       	nop
     2a8:	0f 90       	pop	r0
     2aa:	0f 90       	pop	r0
     2ac:	df 91       	pop	r29
     2ae:	cf 91       	pop	r28
     2b0:	08 95       	ret

000002b2 <task_switch_in>:
	 @brief Set PORTB bit 2-5, to the task switched into running by the operating system.
	
	 Called by the the traceTASK_SWITCHED_IN() macro in FreeRTOS.
	 Are enabled in FreeRTOSConfig.h
	 **********************************************************************/
	void task_switch_in(uint8_t task_no) {
     2b2:	cf 93       	push	r28
     2b4:	df 93       	push	r29
     2b6:	1f 92       	push	r1
     2b8:	cd b7       	in	r28, 0x3d	; 61
     2ba:	de b7       	in	r29, 0x3e	; 62
     2bc:	89 83       	std	Y+1, r24	; 0x01
		 #ifdef HAL_DEFS_H_

		 #else
		 // Used on VIA MEGA Shield rev. 2.0.0
		 PORTK &= 0b11110000;
     2be:	88 e0       	ldi	r24, 0x08	; 8
     2c0:	91 e0       	ldi	r25, 0x01	; 1
     2c2:	28 e0       	ldi	r18, 0x08	; 8
     2c4:	31 e0       	ldi	r19, 0x01	; 1
     2c6:	f9 01       	movw	r30, r18
     2c8:	20 81       	ld	r18, Z
     2ca:	20 7f       	andi	r18, 0xF0	; 240
     2cc:	fc 01       	movw	r30, r24
     2ce:	20 83       	st	Z, r18
		 PORTK |= (task_no & 0b00001111);
     2d0:	88 e0       	ldi	r24, 0x08	; 8
     2d2:	91 e0       	ldi	r25, 0x01	; 1
     2d4:	28 e0       	ldi	r18, 0x08	; 8
     2d6:	31 e0       	ldi	r19, 0x01	; 1
     2d8:	f9 01       	movw	r30, r18
     2da:	20 81       	ld	r18, Z
     2dc:	32 2f       	mov	r19, r18
     2de:	29 81       	ldd	r18, Y+1	; 0x01
     2e0:	2f 70       	andi	r18, 0x0F	; 15
     2e2:	23 2b       	or	r18, r19
     2e4:	fc 01       	movw	r30, r24
     2e6:	20 83       	st	Z, r18
		 #endif
	}
     2e8:	00 00       	nop
     2ea:	0f 90       	pop	r0
     2ec:	df 91       	pop	r29
     2ee:	cf 91       	pop	r28
     2f0:	08 95       	ret

000002f2 <task_switch_out>:
	 @brief Set PORTB bit 2-5, to zero when a task is switched out of running by the operating system.
	
	 Called by the the traceTASK_SWITCHED_OUT() macro in FreeRTOS.
	 Are enabled in FreeRTOSConfig.h
	 **********************************************************************/
	void task_switch_out(uint8_t task_no) {
     2f2:	cf 93       	push	r28
     2f4:	df 93       	push	r29
     2f6:	1f 92       	push	r1
     2f8:	cd b7       	in	r28, 0x3d	; 61
     2fa:	de b7       	in	r29, 0x3e	; 62
     2fc:	89 83       	std	Y+1, r24	; 0x01
		#ifdef HAL_DEFS_H_

		#else
		// Used on VIA MEGA Shield rev. 2.0.0
		PORTK &= 0b11110000;
     2fe:	88 e0       	ldi	r24, 0x08	; 8
     300:	91 e0       	ldi	r25, 0x01	; 1
     302:	28 e0       	ldi	r18, 0x08	; 8
     304:	31 e0       	ldi	r19, 0x01	; 1
     306:	f9 01       	movw	r30, r18
     308:	20 81       	ld	r18, Z
     30a:	20 7f       	andi	r18, 0xF0	; 240
     30c:	fc 01       	movw	r30, r24
     30e:	20 83       	st	Z, r18
		#endif
	}
     310:	00 00       	nop
     312:	0f 90       	pop	r0
     314:	df 91       	pop	r29
     316:	cf 91       	pop	r28
     318:	08 95       	ret

0000031a <pvPortMalloc>:
#endif

/*-----------------------------------------------------------*/

void *pvPortMalloc( size_t xWantedSize )
{
     31a:	cf 93       	push	r28
     31c:	df 93       	push	r29
     31e:	00 d0       	rcall	.+0      	; 0x320 <pvPortMalloc+0x6>
     320:	1f 92       	push	r1
     322:	cd b7       	in	r28, 0x3d	; 61
     324:	de b7       	in	r29, 0x3e	; 62
     326:	9c 83       	std	Y+4, r25	; 0x04
     328:	8b 83       	std	Y+3, r24	; 0x03
void *pvReturn;

    vTaskSuspendAll();
     32a:	0e 94 13 13 	call	0x2626	; 0x2626 <vTaskSuspendAll>
    {
        pvReturn = malloc( xWantedSize );
     32e:	8b 81       	ldd	r24, Y+3	; 0x03
     330:	9c 81       	ldd	r25, Y+4	; 0x04
     332:	0e 94 98 35 	call	0x6b30	; 0x6b30 <malloc>
     336:	9a 83       	std	Y+2, r25	; 0x02
     338:	89 83       	std	Y+1, r24	; 0x01
        traceMALLOC( pvReturn, xWantedSize );
    }
    ( void ) xTaskResumeAll();
     33a:	0e 94 20 13 	call	0x2640	; 0x2640 <xTaskResumeAll>

    #if( configUSE_MALLOC_FAILED_HOOK == 1 )
    {
        if( pvReturn == NULL )
     33e:	89 81       	ldd	r24, Y+1	; 0x01
     340:	9a 81       	ldd	r25, Y+2	; 0x02
     342:	89 2b       	or	r24, r25
     344:	11 f4       	brne	.+4      	; 0x34a <pvPortMalloc+0x30>
        {
            extern void vApplicationMallocFailedHook( void );
            vApplicationMallocFailedHook();
     346:	0e 94 2c 21 	call	0x4258	; 0x4258 <vApplicationMallocFailedHook>
        }
    }
    #endif

    return pvReturn;
     34a:	89 81       	ldd	r24, Y+1	; 0x01
     34c:	9a 81       	ldd	r25, Y+2	; 0x02
}
     34e:	0f 90       	pop	r0
     350:	0f 90       	pop	r0
     352:	0f 90       	pop	r0
     354:	0f 90       	pop	r0
     356:	df 91       	pop	r29
     358:	cf 91       	pop	r28
     35a:	08 95       	ret

0000035c <vPortFree>:
/*-----------------------------------------------------------*/

void vPortFree( void *pv )
{
     35c:	cf 93       	push	r28
     35e:	df 93       	push	r29
     360:	1f 92       	push	r1
     362:	1f 92       	push	r1
     364:	cd b7       	in	r28, 0x3d	; 61
     366:	de b7       	in	r29, 0x3e	; 62
     368:	9a 83       	std	Y+2, r25	; 0x02
     36a:	89 83       	std	Y+1, r24	; 0x01
    if( pv )
     36c:	89 81       	ldd	r24, Y+1	; 0x01
     36e:	9a 81       	ldd	r25, Y+2	; 0x02
     370:	89 2b       	or	r24, r25
     372:	41 f0       	breq	.+16     	; 0x384 <vPortFree+0x28>
    {
        vTaskSuspendAll();
     374:	0e 94 13 13 	call	0x2626	; 0x2626 <vTaskSuspendAll>
        {
            free( pv );
     378:	89 81       	ldd	r24, Y+1	; 0x01
     37a:	9a 81       	ldd	r25, Y+2	; 0x02
     37c:	0e 94 30 36 	call	0x6c60	; 0x6c60 <free>
            traceFREE( pv, 0 );
        }
        ( void ) xTaskResumeAll();
     380:	0e 94 20 13 	call	0x2640	; 0x2640 <xTaskResumeAll>
    }
}
     384:	00 00       	nop
     386:	0f 90       	pop	r0
     388:	0f 90       	pop	r0
     38a:	df 91       	pop	r29
     38c:	cf 91       	pop	r28
     38e:	08 95       	ret

00000390 <vListInitialise>:
/*-----------------------------------------------------------
 * PUBLIC LIST API documented in list.h
 *----------------------------------------------------------*/

void vListInitialise( List_t * const pxList )
{
     390:	cf 93       	push	r28
     392:	df 93       	push	r29
     394:	1f 92       	push	r1
     396:	1f 92       	push	r1
     398:	cd b7       	in	r28, 0x3d	; 61
     39a:	de b7       	in	r29, 0x3e	; 62
     39c:	9a 83       	std	Y+2, r25	; 0x02
     39e:	89 83       	std	Y+1, r24	; 0x01
    /* The list structure contains a list item which is used to mark the
    end of the list.  To initialise the list the list end is inserted
    as the only list entry. */
    pxList->pxIndex = ( ListItem_t * ) &( pxList->xListEnd );            /*lint !e826 !e740 !e9087 The mini list structure is used as the list end to save RAM.  This is checked and valid. */
     3a0:	89 81       	ldd	r24, Y+1	; 0x01
     3a2:	9a 81       	ldd	r25, Y+2	; 0x02
     3a4:	9c 01       	movw	r18, r24
     3a6:	2d 5f       	subi	r18, 0xFD	; 253
     3a8:	3f 4f       	sbci	r19, 0xFF	; 255
     3aa:	89 81       	ldd	r24, Y+1	; 0x01
     3ac:	9a 81       	ldd	r25, Y+2	; 0x02
     3ae:	fc 01       	movw	r30, r24
     3b0:	32 83       	std	Z+2, r19	; 0x02
     3b2:	21 83       	std	Z+1, r18	; 0x01

    /* The list end value is the highest possible value in the list to
    ensure it remains at the end of the list. */
    pxList->xListEnd.xItemValue = portMAX_DELAY;
     3b4:	89 81       	ldd	r24, Y+1	; 0x01
     3b6:	9a 81       	ldd	r25, Y+2	; 0x02
     3b8:	2f ef       	ldi	r18, 0xFF	; 255
     3ba:	3f ef       	ldi	r19, 0xFF	; 255
     3bc:	fc 01       	movw	r30, r24
     3be:	34 83       	std	Z+4, r19	; 0x04
     3c0:	23 83       	std	Z+3, r18	; 0x03

    /* The list end next and previous pointers point to itself so we know
    when the list is empty. */
    pxList->xListEnd.pxNext = ( ListItem_t * ) &( pxList->xListEnd );    /*lint !e826 !e740 !e9087 The mini list structure is used as the list end to save RAM.  This is checked and valid. */
     3c2:	89 81       	ldd	r24, Y+1	; 0x01
     3c4:	9a 81       	ldd	r25, Y+2	; 0x02
     3c6:	9c 01       	movw	r18, r24
     3c8:	2d 5f       	subi	r18, 0xFD	; 253
     3ca:	3f 4f       	sbci	r19, 0xFF	; 255
     3cc:	89 81       	ldd	r24, Y+1	; 0x01
     3ce:	9a 81       	ldd	r25, Y+2	; 0x02
     3d0:	fc 01       	movw	r30, r24
     3d2:	36 83       	std	Z+6, r19	; 0x06
     3d4:	25 83       	std	Z+5, r18	; 0x05
    pxList->xListEnd.pxPrevious = ( ListItem_t * ) &( pxList->xListEnd );/*lint !e826 !e740 !e9087 The mini list structure is used as the list end to save RAM.  This is checked and valid. */
     3d6:	89 81       	ldd	r24, Y+1	; 0x01
     3d8:	9a 81       	ldd	r25, Y+2	; 0x02
     3da:	9c 01       	movw	r18, r24
     3dc:	2d 5f       	subi	r18, 0xFD	; 253
     3de:	3f 4f       	sbci	r19, 0xFF	; 255
     3e0:	89 81       	ldd	r24, Y+1	; 0x01
     3e2:	9a 81       	ldd	r25, Y+2	; 0x02
     3e4:	fc 01       	movw	r30, r24
     3e6:	30 87       	std	Z+8, r19	; 0x08
     3e8:	27 83       	std	Z+7, r18	; 0x07

    pxList->uxNumberOfItems = ( UBaseType_t ) 0U;
     3ea:	89 81       	ldd	r24, Y+1	; 0x01
     3ec:	9a 81       	ldd	r25, Y+2	; 0x02
     3ee:	fc 01       	movw	r30, r24
     3f0:	10 82       	st	Z, r1

    /* Write known values into the list if
    configUSE_LIST_DATA_INTEGRITY_CHECK_BYTES is set to 1. */
    listSET_LIST_INTEGRITY_CHECK_1_VALUE( pxList );
    listSET_LIST_INTEGRITY_CHECK_2_VALUE( pxList );
}
     3f2:	00 00       	nop
     3f4:	0f 90       	pop	r0
     3f6:	0f 90       	pop	r0
     3f8:	df 91       	pop	r29
     3fa:	cf 91       	pop	r28
     3fc:	08 95       	ret

000003fe <vListInitialiseItem>:
/*-----------------------------------------------------------*/

void vListInitialiseItem( ListItem_t * const pxItem )
{
     3fe:	cf 93       	push	r28
     400:	df 93       	push	r29
     402:	1f 92       	push	r1
     404:	1f 92       	push	r1
     406:	cd b7       	in	r28, 0x3d	; 61
     408:	de b7       	in	r29, 0x3e	; 62
     40a:	9a 83       	std	Y+2, r25	; 0x02
     40c:	89 83       	std	Y+1, r24	; 0x01
    /* Make sure the list item is not recorded as being on a list. */
    pxItem->pxContainer = NULL;
     40e:	89 81       	ldd	r24, Y+1	; 0x01
     410:	9a 81       	ldd	r25, Y+2	; 0x02
     412:	fc 01       	movw	r30, r24
     414:	11 86       	std	Z+9, r1	; 0x09
     416:	10 86       	std	Z+8, r1	; 0x08

    /* Write known values into the list item if
    configUSE_LIST_DATA_INTEGRITY_CHECK_BYTES is set to 1. */
    listSET_FIRST_LIST_ITEM_INTEGRITY_CHECK_VALUE( pxItem );
    listSET_SECOND_LIST_ITEM_INTEGRITY_CHECK_VALUE( pxItem );
}
     418:	00 00       	nop
     41a:	0f 90       	pop	r0
     41c:	0f 90       	pop	r0
     41e:	df 91       	pop	r29
     420:	cf 91       	pop	r28
     422:	08 95       	ret

00000424 <vListInsertEnd>:
/*-----------------------------------------------------------*/

void vListInsertEnd( List_t * const pxList, ListItem_t * const pxNewListItem )
{
     424:	cf 93       	push	r28
     426:	df 93       	push	r29
     428:	00 d0       	rcall	.+0      	; 0x42a <vListInsertEnd+0x6>
     42a:	00 d0       	rcall	.+0      	; 0x42c <vListInsertEnd+0x8>
     42c:	cd b7       	in	r28, 0x3d	; 61
     42e:	de b7       	in	r29, 0x3e	; 62
     430:	9c 83       	std	Y+4, r25	; 0x04
     432:	8b 83       	std	Y+3, r24	; 0x03
     434:	7e 83       	std	Y+6, r23	; 0x06
     436:	6d 83       	std	Y+5, r22	; 0x05
ListItem_t * const pxIndex = pxList->pxIndex;
     438:	8b 81       	ldd	r24, Y+3	; 0x03
     43a:	9c 81       	ldd	r25, Y+4	; 0x04
     43c:	fc 01       	movw	r30, r24
     43e:	81 81       	ldd	r24, Z+1	; 0x01
     440:	92 81       	ldd	r25, Z+2	; 0x02
     442:	9a 83       	std	Y+2, r25	; 0x02
     444:	89 83       	std	Y+1, r24	; 0x01
    listTEST_LIST_ITEM_INTEGRITY( pxNewListItem );

    /* Insert a new list item into pxList, but rather than sort the list,
    makes the new list item the last item to be removed by a call to
    listGET_OWNER_OF_NEXT_ENTRY(). */
    pxNewListItem->pxNext = pxIndex;
     446:	8d 81       	ldd	r24, Y+5	; 0x05
     448:	9e 81       	ldd	r25, Y+6	; 0x06
     44a:	29 81       	ldd	r18, Y+1	; 0x01
     44c:	3a 81       	ldd	r19, Y+2	; 0x02
     44e:	fc 01       	movw	r30, r24
     450:	33 83       	std	Z+3, r19	; 0x03
     452:	22 83       	std	Z+2, r18	; 0x02
    pxNewListItem->pxPrevious = pxIndex->pxPrevious;
     454:	89 81       	ldd	r24, Y+1	; 0x01
     456:	9a 81       	ldd	r25, Y+2	; 0x02
     458:	fc 01       	movw	r30, r24
     45a:	24 81       	ldd	r18, Z+4	; 0x04
     45c:	35 81       	ldd	r19, Z+5	; 0x05
     45e:	8d 81       	ldd	r24, Y+5	; 0x05
     460:	9e 81       	ldd	r25, Y+6	; 0x06
     462:	fc 01       	movw	r30, r24
     464:	35 83       	std	Z+5, r19	; 0x05
     466:	24 83       	std	Z+4, r18	; 0x04

    /* Only used during decision coverage testing. */
    mtCOVERAGE_TEST_DELAY();

    pxIndex->pxPrevious->pxNext = pxNewListItem;
     468:	89 81       	ldd	r24, Y+1	; 0x01
     46a:	9a 81       	ldd	r25, Y+2	; 0x02
     46c:	fc 01       	movw	r30, r24
     46e:	84 81       	ldd	r24, Z+4	; 0x04
     470:	95 81       	ldd	r25, Z+5	; 0x05
     472:	2d 81       	ldd	r18, Y+5	; 0x05
     474:	3e 81       	ldd	r19, Y+6	; 0x06
     476:	fc 01       	movw	r30, r24
     478:	33 83       	std	Z+3, r19	; 0x03
     47a:	22 83       	std	Z+2, r18	; 0x02
    pxIndex->pxPrevious = pxNewListItem;
     47c:	89 81       	ldd	r24, Y+1	; 0x01
     47e:	9a 81       	ldd	r25, Y+2	; 0x02
     480:	2d 81       	ldd	r18, Y+5	; 0x05
     482:	3e 81       	ldd	r19, Y+6	; 0x06
     484:	fc 01       	movw	r30, r24
     486:	35 83       	std	Z+5, r19	; 0x05
     488:	24 83       	std	Z+4, r18	; 0x04

    /* Remember which list the item is in. */
    pxNewListItem->pxContainer = pxList;
     48a:	8d 81       	ldd	r24, Y+5	; 0x05
     48c:	9e 81       	ldd	r25, Y+6	; 0x06
     48e:	2b 81       	ldd	r18, Y+3	; 0x03
     490:	3c 81       	ldd	r19, Y+4	; 0x04
     492:	fc 01       	movw	r30, r24
     494:	31 87       	std	Z+9, r19	; 0x09
     496:	20 87       	std	Z+8, r18	; 0x08

    ( pxList->uxNumberOfItems )++;
     498:	8b 81       	ldd	r24, Y+3	; 0x03
     49a:	9c 81       	ldd	r25, Y+4	; 0x04
     49c:	fc 01       	movw	r30, r24
     49e:	80 81       	ld	r24, Z
     4a0:	21 e0       	ldi	r18, 0x01	; 1
     4a2:	28 0f       	add	r18, r24
     4a4:	8b 81       	ldd	r24, Y+3	; 0x03
     4a6:	9c 81       	ldd	r25, Y+4	; 0x04
     4a8:	fc 01       	movw	r30, r24
     4aa:	20 83       	st	Z, r18
}
     4ac:	00 00       	nop
     4ae:	26 96       	adiw	r28, 0x06	; 6
     4b0:	0f b6       	in	r0, 0x3f	; 63
     4b2:	f8 94       	cli
     4b4:	de bf       	out	0x3e, r29	; 62
     4b6:	0f be       	out	0x3f, r0	; 63
     4b8:	cd bf       	out	0x3d, r28	; 61
     4ba:	df 91       	pop	r29
     4bc:	cf 91       	pop	r28
     4be:	08 95       	ret

000004c0 <vListInsert>:
/*-----------------------------------------------------------*/

void vListInsert( List_t * const pxList, ListItem_t * const pxNewListItem )
{
     4c0:	cf 93       	push	r28
     4c2:	df 93       	push	r29
     4c4:	cd b7       	in	r28, 0x3d	; 61
     4c6:	de b7       	in	r29, 0x3e	; 62
     4c8:	28 97       	sbiw	r28, 0x08	; 8
     4ca:	0f b6       	in	r0, 0x3f	; 63
     4cc:	f8 94       	cli
     4ce:	de bf       	out	0x3e, r29	; 62
     4d0:	0f be       	out	0x3f, r0	; 63
     4d2:	cd bf       	out	0x3d, r28	; 61
     4d4:	9e 83       	std	Y+6, r25	; 0x06
     4d6:	8d 83       	std	Y+5, r24	; 0x05
     4d8:	78 87       	std	Y+8, r23	; 0x08
     4da:	6f 83       	std	Y+7, r22	; 0x07
ListItem_t *pxIterator;
const TickType_t xValueOfInsertion = pxNewListItem->xItemValue;
     4dc:	8f 81       	ldd	r24, Y+7	; 0x07
     4de:	98 85       	ldd	r25, Y+8	; 0x08
     4e0:	fc 01       	movw	r30, r24
     4e2:	80 81       	ld	r24, Z
     4e4:	91 81       	ldd	r25, Z+1	; 0x01
     4e6:	9c 83       	std	Y+4, r25	; 0x04
     4e8:	8b 83       	std	Y+3, r24	; 0x03
    new list item should be placed after it.  This ensures that TCBs which are
    stored in ready lists (all of which have the same xItemValue value) get a
    share of the CPU.  However, if the xItemValue is the same as the back marker
    the iteration loop below will not end.  Therefore the value is checked
    first, and the algorithm slightly modified if necessary. */
    if( xValueOfInsertion == portMAX_DELAY )
     4ea:	8b 81       	ldd	r24, Y+3	; 0x03
     4ec:	9c 81       	ldd	r25, Y+4	; 0x04
     4ee:	01 96       	adiw	r24, 0x01	; 1
     4f0:	41 f4       	brne	.+16     	; 0x502 <vListInsert+0x42>
    {
        pxIterator = pxList->xListEnd.pxPrevious;
     4f2:	8d 81       	ldd	r24, Y+5	; 0x05
     4f4:	9e 81       	ldd	r25, Y+6	; 0x06
     4f6:	fc 01       	movw	r30, r24
     4f8:	87 81       	ldd	r24, Z+7	; 0x07
     4fa:	90 85       	ldd	r25, Z+8	; 0x08
     4fc:	9a 83       	std	Y+2, r25	; 0x02
     4fe:	89 83       	std	Y+1, r24	; 0x01
     500:	1a c0       	rjmp	.+52     	; 0x536 <vListInsert+0x76>
            4) Using a queue or semaphore before it has been initialised or
               before the scheduler has been started (are interrupts firing
               before vTaskStartScheduler() has been called?).
        **********************************************************************/

        for( pxIterator = ( ListItem_t * ) &( pxList->xListEnd ); pxIterator->pxNext->xItemValue <= xValueOfInsertion; pxIterator = pxIterator->pxNext ) /*lint !e826 !e740 !e9087 The mini list structure is used as the list end to save RAM.  This is checked and valid. *//*lint !e440 The iterator moves to a different value, not xValueOfInsertion. */
     502:	8d 81       	ldd	r24, Y+5	; 0x05
     504:	9e 81       	ldd	r25, Y+6	; 0x06
     506:	03 96       	adiw	r24, 0x03	; 3
     508:	9a 83       	std	Y+2, r25	; 0x02
     50a:	89 83       	std	Y+1, r24	; 0x01
     50c:	07 c0       	rjmp	.+14     	; 0x51c <vListInsert+0x5c>
     50e:	89 81       	ldd	r24, Y+1	; 0x01
     510:	9a 81       	ldd	r25, Y+2	; 0x02
     512:	fc 01       	movw	r30, r24
     514:	82 81       	ldd	r24, Z+2	; 0x02
     516:	93 81       	ldd	r25, Z+3	; 0x03
     518:	9a 83       	std	Y+2, r25	; 0x02
     51a:	89 83       	std	Y+1, r24	; 0x01
     51c:	89 81       	ldd	r24, Y+1	; 0x01
     51e:	9a 81       	ldd	r25, Y+2	; 0x02
     520:	fc 01       	movw	r30, r24
     522:	82 81       	ldd	r24, Z+2	; 0x02
     524:	93 81       	ldd	r25, Z+3	; 0x03
     526:	fc 01       	movw	r30, r24
     528:	20 81       	ld	r18, Z
     52a:	31 81       	ldd	r19, Z+1	; 0x01
     52c:	8b 81       	ldd	r24, Y+3	; 0x03
     52e:	9c 81       	ldd	r25, Y+4	; 0x04
     530:	82 17       	cp	r24, r18
     532:	93 07       	cpc	r25, r19
     534:	60 f7       	brcc	.-40     	; 0x50e <vListInsert+0x4e>
            /* There is nothing to do here, just iterating to the wanted
            insertion position. */
        }
    }

    pxNewListItem->pxNext = pxIterator->pxNext;
     536:	89 81       	ldd	r24, Y+1	; 0x01
     538:	9a 81       	ldd	r25, Y+2	; 0x02
     53a:	fc 01       	movw	r30, r24
     53c:	22 81       	ldd	r18, Z+2	; 0x02
     53e:	33 81       	ldd	r19, Z+3	; 0x03
     540:	8f 81       	ldd	r24, Y+7	; 0x07
     542:	98 85       	ldd	r25, Y+8	; 0x08
     544:	fc 01       	movw	r30, r24
     546:	33 83       	std	Z+3, r19	; 0x03
     548:	22 83       	std	Z+2, r18	; 0x02
    pxNewListItem->pxNext->pxPrevious = pxNewListItem;
     54a:	8f 81       	ldd	r24, Y+7	; 0x07
     54c:	98 85       	ldd	r25, Y+8	; 0x08
     54e:	fc 01       	movw	r30, r24
     550:	82 81       	ldd	r24, Z+2	; 0x02
     552:	93 81       	ldd	r25, Z+3	; 0x03
     554:	2f 81       	ldd	r18, Y+7	; 0x07
     556:	38 85       	ldd	r19, Y+8	; 0x08
     558:	fc 01       	movw	r30, r24
     55a:	35 83       	std	Z+5, r19	; 0x05
     55c:	24 83       	std	Z+4, r18	; 0x04
    pxNewListItem->pxPrevious = pxIterator;
     55e:	8f 81       	ldd	r24, Y+7	; 0x07
     560:	98 85       	ldd	r25, Y+8	; 0x08
     562:	29 81       	ldd	r18, Y+1	; 0x01
     564:	3a 81       	ldd	r19, Y+2	; 0x02
     566:	fc 01       	movw	r30, r24
     568:	35 83       	std	Z+5, r19	; 0x05
     56a:	24 83       	std	Z+4, r18	; 0x04
    pxIterator->pxNext = pxNewListItem;
     56c:	89 81       	ldd	r24, Y+1	; 0x01
     56e:	9a 81       	ldd	r25, Y+2	; 0x02
     570:	2f 81       	ldd	r18, Y+7	; 0x07
     572:	38 85       	ldd	r19, Y+8	; 0x08
     574:	fc 01       	movw	r30, r24
     576:	33 83       	std	Z+3, r19	; 0x03
     578:	22 83       	std	Z+2, r18	; 0x02

    /* Remember which list the item is in.  This allows fast removal of the
    item later. */
    pxNewListItem->pxContainer = pxList;
     57a:	8f 81       	ldd	r24, Y+7	; 0x07
     57c:	98 85       	ldd	r25, Y+8	; 0x08
     57e:	2d 81       	ldd	r18, Y+5	; 0x05
     580:	3e 81       	ldd	r19, Y+6	; 0x06
     582:	fc 01       	movw	r30, r24
     584:	31 87       	std	Z+9, r19	; 0x09
     586:	20 87       	std	Z+8, r18	; 0x08

    ( pxList->uxNumberOfItems )++;
     588:	8d 81       	ldd	r24, Y+5	; 0x05
     58a:	9e 81       	ldd	r25, Y+6	; 0x06
     58c:	fc 01       	movw	r30, r24
     58e:	80 81       	ld	r24, Z
     590:	21 e0       	ldi	r18, 0x01	; 1
     592:	28 0f       	add	r18, r24
     594:	8d 81       	ldd	r24, Y+5	; 0x05
     596:	9e 81       	ldd	r25, Y+6	; 0x06
     598:	fc 01       	movw	r30, r24
     59a:	20 83       	st	Z, r18
}
     59c:	00 00       	nop
     59e:	28 96       	adiw	r28, 0x08	; 8
     5a0:	0f b6       	in	r0, 0x3f	; 63
     5a2:	f8 94       	cli
     5a4:	de bf       	out	0x3e, r29	; 62
     5a6:	0f be       	out	0x3f, r0	; 63
     5a8:	cd bf       	out	0x3d, r28	; 61
     5aa:	df 91       	pop	r29
     5ac:	cf 91       	pop	r28
     5ae:	08 95       	ret

000005b0 <uxListRemove>:
/*-----------------------------------------------------------*/

UBaseType_t uxListRemove( ListItem_t * const pxItemToRemove )
{
     5b0:	cf 93       	push	r28
     5b2:	df 93       	push	r29
     5b4:	00 d0       	rcall	.+0      	; 0x5b6 <uxListRemove+0x6>
     5b6:	1f 92       	push	r1
     5b8:	cd b7       	in	r28, 0x3d	; 61
     5ba:	de b7       	in	r29, 0x3e	; 62
     5bc:	9c 83       	std	Y+4, r25	; 0x04
     5be:	8b 83       	std	Y+3, r24	; 0x03
/* The list item knows which list it is in.  Obtain the list from the list
item. */
List_t * const pxList = pxItemToRemove->pxContainer;
     5c0:	8b 81       	ldd	r24, Y+3	; 0x03
     5c2:	9c 81       	ldd	r25, Y+4	; 0x04
     5c4:	fc 01       	movw	r30, r24
     5c6:	80 85       	ldd	r24, Z+8	; 0x08
     5c8:	91 85       	ldd	r25, Z+9	; 0x09
     5ca:	9a 83       	std	Y+2, r25	; 0x02
     5cc:	89 83       	std	Y+1, r24	; 0x01

    pxItemToRemove->pxNext->pxPrevious = pxItemToRemove->pxPrevious;
     5ce:	8b 81       	ldd	r24, Y+3	; 0x03
     5d0:	9c 81       	ldd	r25, Y+4	; 0x04
     5d2:	fc 01       	movw	r30, r24
     5d4:	82 81       	ldd	r24, Z+2	; 0x02
     5d6:	93 81       	ldd	r25, Z+3	; 0x03
     5d8:	2b 81       	ldd	r18, Y+3	; 0x03
     5da:	3c 81       	ldd	r19, Y+4	; 0x04
     5dc:	f9 01       	movw	r30, r18
     5de:	24 81       	ldd	r18, Z+4	; 0x04
     5e0:	35 81       	ldd	r19, Z+5	; 0x05
     5e2:	fc 01       	movw	r30, r24
     5e4:	35 83       	std	Z+5, r19	; 0x05
     5e6:	24 83       	std	Z+4, r18	; 0x04
    pxItemToRemove->pxPrevious->pxNext = pxItemToRemove->pxNext;
     5e8:	8b 81       	ldd	r24, Y+3	; 0x03
     5ea:	9c 81       	ldd	r25, Y+4	; 0x04
     5ec:	fc 01       	movw	r30, r24
     5ee:	84 81       	ldd	r24, Z+4	; 0x04
     5f0:	95 81       	ldd	r25, Z+5	; 0x05
     5f2:	2b 81       	ldd	r18, Y+3	; 0x03
     5f4:	3c 81       	ldd	r19, Y+4	; 0x04
     5f6:	f9 01       	movw	r30, r18
     5f8:	22 81       	ldd	r18, Z+2	; 0x02
     5fa:	33 81       	ldd	r19, Z+3	; 0x03
     5fc:	fc 01       	movw	r30, r24
     5fe:	33 83       	std	Z+3, r19	; 0x03
     600:	22 83       	std	Z+2, r18	; 0x02

    /* Only used during decision coverage testing. */
    mtCOVERAGE_TEST_DELAY();

    /* Make sure the index is left pointing to a valid item. */
    if( pxList->pxIndex == pxItemToRemove )
     602:	89 81       	ldd	r24, Y+1	; 0x01
     604:	9a 81       	ldd	r25, Y+2	; 0x02
     606:	fc 01       	movw	r30, r24
     608:	21 81       	ldd	r18, Z+1	; 0x01
     60a:	32 81       	ldd	r19, Z+2	; 0x02
     60c:	8b 81       	ldd	r24, Y+3	; 0x03
     60e:	9c 81       	ldd	r25, Y+4	; 0x04
     610:	28 17       	cp	r18, r24
     612:	39 07       	cpc	r19, r25
     614:	51 f4       	brne	.+20     	; 0x62a <uxListRemove+0x7a>
    {
        pxList->pxIndex = pxItemToRemove->pxPrevious;
     616:	8b 81       	ldd	r24, Y+3	; 0x03
     618:	9c 81       	ldd	r25, Y+4	; 0x04
     61a:	fc 01       	movw	r30, r24
     61c:	24 81       	ldd	r18, Z+4	; 0x04
     61e:	35 81       	ldd	r19, Z+5	; 0x05
     620:	89 81       	ldd	r24, Y+1	; 0x01
     622:	9a 81       	ldd	r25, Y+2	; 0x02
     624:	fc 01       	movw	r30, r24
     626:	32 83       	std	Z+2, r19	; 0x02
     628:	21 83       	std	Z+1, r18	; 0x01
    else
    {
        mtCOVERAGE_TEST_MARKER();
    }

    pxItemToRemove->pxContainer = NULL;
     62a:	8b 81       	ldd	r24, Y+3	; 0x03
     62c:	9c 81       	ldd	r25, Y+4	; 0x04
     62e:	fc 01       	movw	r30, r24
     630:	11 86       	std	Z+9, r1	; 0x09
     632:	10 86       	std	Z+8, r1	; 0x08
    ( pxList->uxNumberOfItems )--;
     634:	89 81       	ldd	r24, Y+1	; 0x01
     636:	9a 81       	ldd	r25, Y+2	; 0x02
     638:	fc 01       	movw	r30, r24
     63a:	80 81       	ld	r24, Z
     63c:	2f ef       	ldi	r18, 0xFF	; 255
     63e:	28 0f       	add	r18, r24
     640:	89 81       	ldd	r24, Y+1	; 0x01
     642:	9a 81       	ldd	r25, Y+2	; 0x02
     644:	fc 01       	movw	r30, r24
     646:	20 83       	st	Z, r18

    return pxList->uxNumberOfItems;
     648:	89 81       	ldd	r24, Y+1	; 0x01
     64a:	9a 81       	ldd	r25, Y+2	; 0x02
     64c:	fc 01       	movw	r30, r24
     64e:	80 81       	ld	r24, Z
}
     650:	0f 90       	pop	r0
     652:	0f 90       	pop	r0
     654:	0f 90       	pop	r0
     656:	0f 90       	pop	r0
     658:	df 91       	pop	r29
     65a:	cf 91       	pop	r28
     65c:	08 95       	ret

0000065e <pxPortInitialiseStack>:
{
    /* It is unlikely that the AVR port will get stopped.  If required simply
    disable the tick interrupt here. */

    wdt_disable();    // disable Watchdog Timer
}
     65e:	cf 93       	push	r28
     660:	df 93       	push	r29
     662:	cd b7       	in	r28, 0x3d	; 61
     664:	de b7       	in	r29, 0x3e	; 62
     666:	28 97       	sbiw	r28, 0x08	; 8
     668:	0f b6       	in	r0, 0x3f	; 63
     66a:	f8 94       	cli
     66c:	de bf       	out	0x3e, r29	; 62
     66e:	0f be       	out	0x3f, r0	; 63
     670:	cd bf       	out	0x3d, r28	; 61
     672:	9c 83       	std	Y+4, r25	; 0x04
     674:	8b 83       	std	Y+3, r24	; 0x03
     676:	7e 83       	std	Y+6, r23	; 0x06
     678:	6d 83       	std	Y+5, r22	; 0x05
     67a:	58 87       	std	Y+8, r21	; 0x08
     67c:	4f 83       	std	Y+7, r20	; 0x07
     67e:	8b 81       	ldd	r24, Y+3	; 0x03
     680:	9c 81       	ldd	r25, Y+4	; 0x04
     682:	21 e1       	ldi	r18, 0x11	; 17
     684:	fc 01       	movw	r30, r24
     686:	20 83       	st	Z, r18
     688:	8b 81       	ldd	r24, Y+3	; 0x03
     68a:	9c 81       	ldd	r25, Y+4	; 0x04
     68c:	01 97       	sbiw	r24, 0x01	; 1
     68e:	9c 83       	std	Y+4, r25	; 0x04
     690:	8b 83       	std	Y+3, r24	; 0x03
     692:	8b 81       	ldd	r24, Y+3	; 0x03
     694:	9c 81       	ldd	r25, Y+4	; 0x04
     696:	22 e2       	ldi	r18, 0x22	; 34
     698:	fc 01       	movw	r30, r24
     69a:	20 83       	st	Z, r18
     69c:	8b 81       	ldd	r24, Y+3	; 0x03
     69e:	9c 81       	ldd	r25, Y+4	; 0x04
     6a0:	01 97       	sbiw	r24, 0x01	; 1
     6a2:	9c 83       	std	Y+4, r25	; 0x04
     6a4:	8b 83       	std	Y+3, r24	; 0x03
     6a6:	8b 81       	ldd	r24, Y+3	; 0x03
     6a8:	9c 81       	ldd	r25, Y+4	; 0x04
     6aa:	23 e3       	ldi	r18, 0x33	; 51
     6ac:	fc 01       	movw	r30, r24
     6ae:	20 83       	st	Z, r18
     6b0:	8b 81       	ldd	r24, Y+3	; 0x03
     6b2:	9c 81       	ldd	r25, Y+4	; 0x04
     6b4:	01 97       	sbiw	r24, 0x01	; 1
     6b6:	9c 83       	std	Y+4, r25	; 0x04
     6b8:	8b 83       	std	Y+3, r24	; 0x03
     6ba:	8d 81       	ldd	r24, Y+5	; 0x05
     6bc:	9e 81       	ldd	r25, Y+6	; 0x06
     6be:	9a 83       	std	Y+2, r25	; 0x02
     6c0:	89 83       	std	Y+1, r24	; 0x01
     6c2:	29 81       	ldd	r18, Y+1	; 0x01
     6c4:	8b 81       	ldd	r24, Y+3	; 0x03
     6c6:	9c 81       	ldd	r25, Y+4	; 0x04
     6c8:	fc 01       	movw	r30, r24
     6ca:	20 83       	st	Z, r18
     6cc:	8b 81       	ldd	r24, Y+3	; 0x03
     6ce:	9c 81       	ldd	r25, Y+4	; 0x04
     6d0:	01 97       	sbiw	r24, 0x01	; 1
     6d2:	9c 83       	std	Y+4, r25	; 0x04
     6d4:	8b 83       	std	Y+3, r24	; 0x03
     6d6:	89 81       	ldd	r24, Y+1	; 0x01
     6d8:	9a 81       	ldd	r25, Y+2	; 0x02
     6da:	89 2f       	mov	r24, r25
     6dc:	99 27       	eor	r25, r25
     6de:	9a 83       	std	Y+2, r25	; 0x02
     6e0:	89 83       	std	Y+1, r24	; 0x01
     6e2:	29 81       	ldd	r18, Y+1	; 0x01
     6e4:	8b 81       	ldd	r24, Y+3	; 0x03
     6e6:	9c 81       	ldd	r25, Y+4	; 0x04
     6e8:	fc 01       	movw	r30, r24
     6ea:	20 83       	st	Z, r18
     6ec:	8b 81       	ldd	r24, Y+3	; 0x03
     6ee:	9c 81       	ldd	r25, Y+4	; 0x04
     6f0:	01 97       	sbiw	r24, 0x01	; 1
     6f2:	9c 83       	std	Y+4, r25	; 0x04
     6f4:	8b 83       	std	Y+3, r24	; 0x03
     6f6:	8b 81       	ldd	r24, Y+3	; 0x03
     6f8:	9c 81       	ldd	r25, Y+4	; 0x04
     6fa:	fc 01       	movw	r30, r24
     6fc:	10 82       	st	Z, r1
     6fe:	8b 81       	ldd	r24, Y+3	; 0x03
     700:	9c 81       	ldd	r25, Y+4	; 0x04
     702:	01 97       	sbiw	r24, 0x01	; 1
     704:	9c 83       	std	Y+4, r25	; 0x04
     706:	8b 83       	std	Y+3, r24	; 0x03
     708:	8b 81       	ldd	r24, Y+3	; 0x03
     70a:	9c 81       	ldd	r25, Y+4	; 0x04
     70c:	fc 01       	movw	r30, r24
     70e:	10 82       	st	Z, r1
     710:	8b 81       	ldd	r24, Y+3	; 0x03
     712:	9c 81       	ldd	r25, Y+4	; 0x04
     714:	01 97       	sbiw	r24, 0x01	; 1
     716:	9c 83       	std	Y+4, r25	; 0x04
     718:	8b 83       	std	Y+3, r24	; 0x03
     71a:	8b 81       	ldd	r24, Y+3	; 0x03
     71c:	9c 81       	ldd	r25, Y+4	; 0x04
     71e:	20 e8       	ldi	r18, 0x80	; 128
     720:	fc 01       	movw	r30, r24
     722:	20 83       	st	Z, r18
     724:	8b 81       	ldd	r24, Y+3	; 0x03
     726:	9c 81       	ldd	r25, Y+4	; 0x04
     728:	01 97       	sbiw	r24, 0x01	; 1
     72a:	9c 83       	std	Y+4, r25	; 0x04
     72c:	8b 83       	std	Y+3, r24	; 0x03
     72e:	8b 81       	ldd	r24, Y+3	; 0x03
     730:	9c 81       	ldd	r25, Y+4	; 0x04
     732:	fc 01       	movw	r30, r24
     734:	10 82       	st	Z, r1
     736:	8b 81       	ldd	r24, Y+3	; 0x03
     738:	9c 81       	ldd	r25, Y+4	; 0x04
     73a:	01 97       	sbiw	r24, 0x01	; 1
     73c:	9c 83       	std	Y+4, r25	; 0x04
     73e:	8b 83       	std	Y+3, r24	; 0x03
     740:	8b 81       	ldd	r24, Y+3	; 0x03
     742:	9c 81       	ldd	r25, Y+4	; 0x04
     744:	fc 01       	movw	r30, r24
     746:	10 82       	st	Z, r1
     748:	8b 81       	ldd	r24, Y+3	; 0x03
     74a:	9c 81       	ldd	r25, Y+4	; 0x04
     74c:	01 97       	sbiw	r24, 0x01	; 1
     74e:	9c 83       	std	Y+4, r25	; 0x04
     750:	8b 83       	std	Y+3, r24	; 0x03
     752:	8b 81       	ldd	r24, Y+3	; 0x03
     754:	9c 81       	ldd	r25, Y+4	; 0x04
     756:	fc 01       	movw	r30, r24
     758:	10 82       	st	Z, r1
     75a:	8b 81       	ldd	r24, Y+3	; 0x03
     75c:	9c 81       	ldd	r25, Y+4	; 0x04
     75e:	01 97       	sbiw	r24, 0x01	; 1
     760:	9c 83       	std	Y+4, r25	; 0x04
     762:	8b 83       	std	Y+3, r24	; 0x03
     764:	8b 81       	ldd	r24, Y+3	; 0x03
     766:	9c 81       	ldd	r25, Y+4	; 0x04
     768:	22 e0       	ldi	r18, 0x02	; 2
     76a:	fc 01       	movw	r30, r24
     76c:	20 83       	st	Z, r18
     76e:	8b 81       	ldd	r24, Y+3	; 0x03
     770:	9c 81       	ldd	r25, Y+4	; 0x04
     772:	01 97       	sbiw	r24, 0x01	; 1
     774:	9c 83       	std	Y+4, r25	; 0x04
     776:	8b 83       	std	Y+3, r24	; 0x03
     778:	8b 81       	ldd	r24, Y+3	; 0x03
     77a:	9c 81       	ldd	r25, Y+4	; 0x04
     77c:	23 e0       	ldi	r18, 0x03	; 3
     77e:	fc 01       	movw	r30, r24
     780:	20 83       	st	Z, r18
     782:	8b 81       	ldd	r24, Y+3	; 0x03
     784:	9c 81       	ldd	r25, Y+4	; 0x04
     786:	01 97       	sbiw	r24, 0x01	; 1
     788:	9c 83       	std	Y+4, r25	; 0x04
     78a:	8b 83       	std	Y+3, r24	; 0x03
     78c:	8b 81       	ldd	r24, Y+3	; 0x03
     78e:	9c 81       	ldd	r25, Y+4	; 0x04
     790:	24 e0       	ldi	r18, 0x04	; 4
     792:	fc 01       	movw	r30, r24
     794:	20 83       	st	Z, r18
     796:	8b 81       	ldd	r24, Y+3	; 0x03
     798:	9c 81       	ldd	r25, Y+4	; 0x04
     79a:	01 97       	sbiw	r24, 0x01	; 1
     79c:	9c 83       	std	Y+4, r25	; 0x04
     79e:	8b 83       	std	Y+3, r24	; 0x03
     7a0:	8b 81       	ldd	r24, Y+3	; 0x03
     7a2:	9c 81       	ldd	r25, Y+4	; 0x04
     7a4:	25 e0       	ldi	r18, 0x05	; 5
     7a6:	fc 01       	movw	r30, r24
     7a8:	20 83       	st	Z, r18
     7aa:	8b 81       	ldd	r24, Y+3	; 0x03
     7ac:	9c 81       	ldd	r25, Y+4	; 0x04
     7ae:	01 97       	sbiw	r24, 0x01	; 1
     7b0:	9c 83       	std	Y+4, r25	; 0x04
     7b2:	8b 83       	std	Y+3, r24	; 0x03
     7b4:	8b 81       	ldd	r24, Y+3	; 0x03
     7b6:	9c 81       	ldd	r25, Y+4	; 0x04
     7b8:	26 e0       	ldi	r18, 0x06	; 6
     7ba:	fc 01       	movw	r30, r24
     7bc:	20 83       	st	Z, r18
     7be:	8b 81       	ldd	r24, Y+3	; 0x03
     7c0:	9c 81       	ldd	r25, Y+4	; 0x04
     7c2:	01 97       	sbiw	r24, 0x01	; 1
     7c4:	9c 83       	std	Y+4, r25	; 0x04
     7c6:	8b 83       	std	Y+3, r24	; 0x03
     7c8:	8b 81       	ldd	r24, Y+3	; 0x03
     7ca:	9c 81       	ldd	r25, Y+4	; 0x04
     7cc:	27 e0       	ldi	r18, 0x07	; 7
     7ce:	fc 01       	movw	r30, r24
     7d0:	20 83       	st	Z, r18
     7d2:	8b 81       	ldd	r24, Y+3	; 0x03
     7d4:	9c 81       	ldd	r25, Y+4	; 0x04
     7d6:	01 97       	sbiw	r24, 0x01	; 1
     7d8:	9c 83       	std	Y+4, r25	; 0x04
     7da:	8b 83       	std	Y+3, r24	; 0x03
     7dc:	8b 81       	ldd	r24, Y+3	; 0x03
     7de:	9c 81       	ldd	r25, Y+4	; 0x04
     7e0:	28 e0       	ldi	r18, 0x08	; 8
     7e2:	fc 01       	movw	r30, r24
     7e4:	20 83       	st	Z, r18
     7e6:	8b 81       	ldd	r24, Y+3	; 0x03
     7e8:	9c 81       	ldd	r25, Y+4	; 0x04
     7ea:	01 97       	sbiw	r24, 0x01	; 1
     7ec:	9c 83       	std	Y+4, r25	; 0x04
     7ee:	8b 83       	std	Y+3, r24	; 0x03
     7f0:	8b 81       	ldd	r24, Y+3	; 0x03
     7f2:	9c 81       	ldd	r25, Y+4	; 0x04
     7f4:	29 e0       	ldi	r18, 0x09	; 9
     7f6:	fc 01       	movw	r30, r24
     7f8:	20 83       	st	Z, r18
     7fa:	8b 81       	ldd	r24, Y+3	; 0x03
     7fc:	9c 81       	ldd	r25, Y+4	; 0x04
     7fe:	01 97       	sbiw	r24, 0x01	; 1
     800:	9c 83       	std	Y+4, r25	; 0x04
     802:	8b 83       	std	Y+3, r24	; 0x03
     804:	8b 81       	ldd	r24, Y+3	; 0x03
     806:	9c 81       	ldd	r25, Y+4	; 0x04
     808:	20 e1       	ldi	r18, 0x10	; 16
     80a:	fc 01       	movw	r30, r24
     80c:	20 83       	st	Z, r18
     80e:	8b 81       	ldd	r24, Y+3	; 0x03
     810:	9c 81       	ldd	r25, Y+4	; 0x04
     812:	01 97       	sbiw	r24, 0x01	; 1
     814:	9c 83       	std	Y+4, r25	; 0x04
     816:	8b 83       	std	Y+3, r24	; 0x03
     818:	8b 81       	ldd	r24, Y+3	; 0x03
     81a:	9c 81       	ldd	r25, Y+4	; 0x04
     81c:	21 e1       	ldi	r18, 0x11	; 17
     81e:	fc 01       	movw	r30, r24
     820:	20 83       	st	Z, r18
     822:	8b 81       	ldd	r24, Y+3	; 0x03
     824:	9c 81       	ldd	r25, Y+4	; 0x04
     826:	01 97       	sbiw	r24, 0x01	; 1
     828:	9c 83       	std	Y+4, r25	; 0x04
     82a:	8b 83       	std	Y+3, r24	; 0x03
     82c:	8b 81       	ldd	r24, Y+3	; 0x03
     82e:	9c 81       	ldd	r25, Y+4	; 0x04
     830:	22 e1       	ldi	r18, 0x12	; 18
     832:	fc 01       	movw	r30, r24
     834:	20 83       	st	Z, r18
     836:	8b 81       	ldd	r24, Y+3	; 0x03
     838:	9c 81       	ldd	r25, Y+4	; 0x04
     83a:	01 97       	sbiw	r24, 0x01	; 1
     83c:	9c 83       	std	Y+4, r25	; 0x04
     83e:	8b 83       	std	Y+3, r24	; 0x03
     840:	8b 81       	ldd	r24, Y+3	; 0x03
     842:	9c 81       	ldd	r25, Y+4	; 0x04
     844:	23 e1       	ldi	r18, 0x13	; 19
     846:	fc 01       	movw	r30, r24
     848:	20 83       	st	Z, r18
     84a:	8b 81       	ldd	r24, Y+3	; 0x03
     84c:	9c 81       	ldd	r25, Y+4	; 0x04
     84e:	01 97       	sbiw	r24, 0x01	; 1
     850:	9c 83       	std	Y+4, r25	; 0x04
     852:	8b 83       	std	Y+3, r24	; 0x03
     854:	8b 81       	ldd	r24, Y+3	; 0x03
     856:	9c 81       	ldd	r25, Y+4	; 0x04
     858:	24 e1       	ldi	r18, 0x14	; 20
     85a:	fc 01       	movw	r30, r24
     85c:	20 83       	st	Z, r18
     85e:	8b 81       	ldd	r24, Y+3	; 0x03
     860:	9c 81       	ldd	r25, Y+4	; 0x04
     862:	01 97       	sbiw	r24, 0x01	; 1
     864:	9c 83       	std	Y+4, r25	; 0x04
     866:	8b 83       	std	Y+3, r24	; 0x03
     868:	8b 81       	ldd	r24, Y+3	; 0x03
     86a:	9c 81       	ldd	r25, Y+4	; 0x04
     86c:	25 e1       	ldi	r18, 0x15	; 21
     86e:	fc 01       	movw	r30, r24
     870:	20 83       	st	Z, r18
     872:	8b 81       	ldd	r24, Y+3	; 0x03
     874:	9c 81       	ldd	r25, Y+4	; 0x04
     876:	01 97       	sbiw	r24, 0x01	; 1
     878:	9c 83       	std	Y+4, r25	; 0x04
     87a:	8b 83       	std	Y+3, r24	; 0x03
     87c:	8b 81       	ldd	r24, Y+3	; 0x03
     87e:	9c 81       	ldd	r25, Y+4	; 0x04
     880:	26 e1       	ldi	r18, 0x16	; 22
     882:	fc 01       	movw	r30, r24
     884:	20 83       	st	Z, r18
     886:	8b 81       	ldd	r24, Y+3	; 0x03
     888:	9c 81       	ldd	r25, Y+4	; 0x04
     88a:	01 97       	sbiw	r24, 0x01	; 1
     88c:	9c 83       	std	Y+4, r25	; 0x04
     88e:	8b 83       	std	Y+3, r24	; 0x03
     890:	8b 81       	ldd	r24, Y+3	; 0x03
     892:	9c 81       	ldd	r25, Y+4	; 0x04
     894:	27 e1       	ldi	r18, 0x17	; 23
     896:	fc 01       	movw	r30, r24
     898:	20 83       	st	Z, r18
     89a:	8b 81       	ldd	r24, Y+3	; 0x03
     89c:	9c 81       	ldd	r25, Y+4	; 0x04
     89e:	01 97       	sbiw	r24, 0x01	; 1
     8a0:	9c 83       	std	Y+4, r25	; 0x04
     8a2:	8b 83       	std	Y+3, r24	; 0x03
     8a4:	8b 81       	ldd	r24, Y+3	; 0x03
     8a6:	9c 81       	ldd	r25, Y+4	; 0x04
     8a8:	28 e1       	ldi	r18, 0x18	; 24
     8aa:	fc 01       	movw	r30, r24
     8ac:	20 83       	st	Z, r18
     8ae:	8b 81       	ldd	r24, Y+3	; 0x03
     8b0:	9c 81       	ldd	r25, Y+4	; 0x04
     8b2:	01 97       	sbiw	r24, 0x01	; 1
     8b4:	9c 83       	std	Y+4, r25	; 0x04
     8b6:	8b 83       	std	Y+3, r24	; 0x03
     8b8:	8b 81       	ldd	r24, Y+3	; 0x03
     8ba:	9c 81       	ldd	r25, Y+4	; 0x04
     8bc:	29 e1       	ldi	r18, 0x19	; 25
     8be:	fc 01       	movw	r30, r24
     8c0:	20 83       	st	Z, r18
     8c2:	8b 81       	ldd	r24, Y+3	; 0x03
     8c4:	9c 81       	ldd	r25, Y+4	; 0x04
     8c6:	01 97       	sbiw	r24, 0x01	; 1
     8c8:	9c 83       	std	Y+4, r25	; 0x04
     8ca:	8b 83       	std	Y+3, r24	; 0x03
     8cc:	8b 81       	ldd	r24, Y+3	; 0x03
     8ce:	9c 81       	ldd	r25, Y+4	; 0x04
     8d0:	20 e2       	ldi	r18, 0x20	; 32
     8d2:	fc 01       	movw	r30, r24
     8d4:	20 83       	st	Z, r18
     8d6:	8b 81       	ldd	r24, Y+3	; 0x03
     8d8:	9c 81       	ldd	r25, Y+4	; 0x04
     8da:	01 97       	sbiw	r24, 0x01	; 1
     8dc:	9c 83       	std	Y+4, r25	; 0x04
     8de:	8b 83       	std	Y+3, r24	; 0x03
     8e0:	8b 81       	ldd	r24, Y+3	; 0x03
     8e2:	9c 81       	ldd	r25, Y+4	; 0x04
     8e4:	21 e2       	ldi	r18, 0x21	; 33
     8e6:	fc 01       	movw	r30, r24
     8e8:	20 83       	st	Z, r18
     8ea:	8b 81       	ldd	r24, Y+3	; 0x03
     8ec:	9c 81       	ldd	r25, Y+4	; 0x04
     8ee:	01 97       	sbiw	r24, 0x01	; 1
     8f0:	9c 83       	std	Y+4, r25	; 0x04
     8f2:	8b 83       	std	Y+3, r24	; 0x03
     8f4:	8b 81       	ldd	r24, Y+3	; 0x03
     8f6:	9c 81       	ldd	r25, Y+4	; 0x04
     8f8:	22 e2       	ldi	r18, 0x22	; 34
     8fa:	fc 01       	movw	r30, r24
     8fc:	20 83       	st	Z, r18
     8fe:	8b 81       	ldd	r24, Y+3	; 0x03
     900:	9c 81       	ldd	r25, Y+4	; 0x04
     902:	01 97       	sbiw	r24, 0x01	; 1
     904:	9c 83       	std	Y+4, r25	; 0x04
     906:	8b 83       	std	Y+3, r24	; 0x03
     908:	8b 81       	ldd	r24, Y+3	; 0x03
     90a:	9c 81       	ldd	r25, Y+4	; 0x04
     90c:	23 e2       	ldi	r18, 0x23	; 35
     90e:	fc 01       	movw	r30, r24
     910:	20 83       	st	Z, r18
     912:	8b 81       	ldd	r24, Y+3	; 0x03
     914:	9c 81       	ldd	r25, Y+4	; 0x04
     916:	01 97       	sbiw	r24, 0x01	; 1
     918:	9c 83       	std	Y+4, r25	; 0x04
     91a:	8b 83       	std	Y+3, r24	; 0x03
     91c:	8f 81       	ldd	r24, Y+7	; 0x07
     91e:	98 85       	ldd	r25, Y+8	; 0x08
     920:	9a 83       	std	Y+2, r25	; 0x02
     922:	89 83       	std	Y+1, r24	; 0x01
     924:	29 81       	ldd	r18, Y+1	; 0x01
     926:	8b 81       	ldd	r24, Y+3	; 0x03
     928:	9c 81       	ldd	r25, Y+4	; 0x04
     92a:	fc 01       	movw	r30, r24
     92c:	20 83       	st	Z, r18
     92e:	8b 81       	ldd	r24, Y+3	; 0x03
     930:	9c 81       	ldd	r25, Y+4	; 0x04
     932:	01 97       	sbiw	r24, 0x01	; 1
     934:	9c 83       	std	Y+4, r25	; 0x04
     936:	8b 83       	std	Y+3, r24	; 0x03
     938:	89 81       	ldd	r24, Y+1	; 0x01
     93a:	9a 81       	ldd	r25, Y+2	; 0x02
     93c:	89 2f       	mov	r24, r25
     93e:	99 27       	eor	r25, r25
     940:	9a 83       	std	Y+2, r25	; 0x02
     942:	89 83       	std	Y+1, r24	; 0x01
     944:	29 81       	ldd	r18, Y+1	; 0x01
     946:	8b 81       	ldd	r24, Y+3	; 0x03
     948:	9c 81       	ldd	r25, Y+4	; 0x04
     94a:	fc 01       	movw	r30, r24
     94c:	20 83       	st	Z, r18
     94e:	8b 81       	ldd	r24, Y+3	; 0x03
     950:	9c 81       	ldd	r25, Y+4	; 0x04
     952:	01 97       	sbiw	r24, 0x01	; 1
     954:	9c 83       	std	Y+4, r25	; 0x04
     956:	8b 83       	std	Y+3, r24	; 0x03
     958:	8b 81       	ldd	r24, Y+3	; 0x03
     95a:	9c 81       	ldd	r25, Y+4	; 0x04
     95c:	26 e2       	ldi	r18, 0x26	; 38
     95e:	fc 01       	movw	r30, r24
     960:	20 83       	st	Z, r18
     962:	8b 81       	ldd	r24, Y+3	; 0x03
     964:	9c 81       	ldd	r25, Y+4	; 0x04
     966:	01 97       	sbiw	r24, 0x01	; 1
     968:	9c 83       	std	Y+4, r25	; 0x04
     96a:	8b 83       	std	Y+3, r24	; 0x03
     96c:	8b 81       	ldd	r24, Y+3	; 0x03
     96e:	9c 81       	ldd	r25, Y+4	; 0x04
     970:	27 e2       	ldi	r18, 0x27	; 39
     972:	fc 01       	movw	r30, r24
     974:	20 83       	st	Z, r18
     976:	8b 81       	ldd	r24, Y+3	; 0x03
     978:	9c 81       	ldd	r25, Y+4	; 0x04
     97a:	01 97       	sbiw	r24, 0x01	; 1
     97c:	9c 83       	std	Y+4, r25	; 0x04
     97e:	8b 83       	std	Y+3, r24	; 0x03
     980:	8b 81       	ldd	r24, Y+3	; 0x03
     982:	9c 81       	ldd	r25, Y+4	; 0x04
     984:	28 e2       	ldi	r18, 0x28	; 40
     986:	fc 01       	movw	r30, r24
     988:	20 83       	st	Z, r18
     98a:	8b 81       	ldd	r24, Y+3	; 0x03
     98c:	9c 81       	ldd	r25, Y+4	; 0x04
     98e:	01 97       	sbiw	r24, 0x01	; 1
     990:	9c 83       	std	Y+4, r25	; 0x04
     992:	8b 83       	std	Y+3, r24	; 0x03
     994:	8b 81       	ldd	r24, Y+3	; 0x03
     996:	9c 81       	ldd	r25, Y+4	; 0x04
     998:	29 e2       	ldi	r18, 0x29	; 41
     99a:	fc 01       	movw	r30, r24
     99c:	20 83       	st	Z, r18
     99e:	8b 81       	ldd	r24, Y+3	; 0x03
     9a0:	9c 81       	ldd	r25, Y+4	; 0x04
     9a2:	01 97       	sbiw	r24, 0x01	; 1
     9a4:	9c 83       	std	Y+4, r25	; 0x04
     9a6:	8b 83       	std	Y+3, r24	; 0x03
     9a8:	8b 81       	ldd	r24, Y+3	; 0x03
     9aa:	9c 81       	ldd	r25, Y+4	; 0x04
     9ac:	20 e3       	ldi	r18, 0x30	; 48
     9ae:	fc 01       	movw	r30, r24
     9b0:	20 83       	st	Z, r18
     9b2:	8b 81       	ldd	r24, Y+3	; 0x03
     9b4:	9c 81       	ldd	r25, Y+4	; 0x04
     9b6:	01 97       	sbiw	r24, 0x01	; 1
     9b8:	9c 83       	std	Y+4, r25	; 0x04
     9ba:	8b 83       	std	Y+3, r24	; 0x03
     9bc:	8b 81       	ldd	r24, Y+3	; 0x03
     9be:	9c 81       	ldd	r25, Y+4	; 0x04
     9c0:	21 e3       	ldi	r18, 0x31	; 49
     9c2:	fc 01       	movw	r30, r24
     9c4:	20 83       	st	Z, r18
     9c6:	8b 81       	ldd	r24, Y+3	; 0x03
     9c8:	9c 81       	ldd	r25, Y+4	; 0x04
     9ca:	01 97       	sbiw	r24, 0x01	; 1
     9cc:	9c 83       	std	Y+4, r25	; 0x04
     9ce:	8b 83       	std	Y+3, r24	; 0x03
     9d0:	8b 81       	ldd	r24, Y+3	; 0x03
     9d2:	9c 81       	ldd	r25, Y+4	; 0x04
     9d4:	28 96       	adiw	r28, 0x08	; 8
     9d6:	0f b6       	in	r0, 0x3f	; 63
     9d8:	f8 94       	cli
     9da:	de bf       	out	0x3e, r29	; 62
     9dc:	0f be       	out	0x3f, r0	; 63
     9de:	cd bf       	out	0x3d, r28	; 61
     9e0:	df 91       	pop	r29
     9e2:	cf 91       	pop	r28
     9e4:	08 95       	ret

000009e6 <xPortStartScheduler>:
     9e6:	cf 93       	push	r28
     9e8:	df 93       	push	r29
     9ea:	cd b7       	in	r28, 0x3d	; 61
     9ec:	de b7       	in	r29, 0x3e	; 62
     9ee:	ff d0       	rcall	.+510    	; 0xbee <prvSetupTimerInterrupt>
     9f0:	a0 91 12 08 	lds	r26, 0x0812	; 0x800812 <__data_end>
     9f4:	b0 91 13 08 	lds	r27, 0x0813	; 0x800813 <__data_end+0x1>
     9f8:	cd 91       	ld	r28, X+
     9fa:	cd bf       	out	0x3d, r28	; 61
     9fc:	dd 91       	ld	r29, X+
     9fe:	de bf       	out	0x3e, r29	; 62
     a00:	ff 91       	pop	r31
     a02:	ef 91       	pop	r30
     a04:	df 91       	pop	r29
     a06:	cf 91       	pop	r28
     a08:	bf 91       	pop	r27
     a0a:	af 91       	pop	r26
     a0c:	9f 91       	pop	r25
     a0e:	8f 91       	pop	r24
     a10:	7f 91       	pop	r23
     a12:	6f 91       	pop	r22
     a14:	5f 91       	pop	r21
     a16:	4f 91       	pop	r20
     a18:	3f 91       	pop	r19
     a1a:	2f 91       	pop	r18
     a1c:	1f 91       	pop	r17
     a1e:	0f 91       	pop	r16
     a20:	ff 90       	pop	r15
     a22:	ef 90       	pop	r14
     a24:	df 90       	pop	r13
     a26:	cf 90       	pop	r12
     a28:	bf 90       	pop	r11
     a2a:	af 90       	pop	r10
     a2c:	9f 90       	pop	r9
     a2e:	8f 90       	pop	r8
     a30:	7f 90       	pop	r7
     a32:	6f 90       	pop	r6
     a34:	5f 90       	pop	r5
     a36:	4f 90       	pop	r4
     a38:	3f 90       	pop	r3
     a3a:	2f 90       	pop	r2
     a3c:	1f 90       	pop	r1
     a3e:	0f 90       	pop	r0
     a40:	0c be       	out	0x3c, r0	; 60
     a42:	0f 90       	pop	r0
     a44:	0b be       	out	0x3b, r0	; 59
     a46:	0f 90       	pop	r0
     a48:	0f be       	out	0x3f, r0	; 63
     a4a:	0f 90       	pop	r0
     a4c:	08 95       	ret
     a4e:	81 e0       	ldi	r24, 0x01	; 1
     a50:	df 91       	pop	r29
     a52:	cf 91       	pop	r28
     a54:	08 95       	ret

00000a56 <vPortYield>:
 * can use a naked attribute.
 */
void vPortYield( void ) __attribute__ ( ( hot, flatten, naked ) );
void vPortYield( void )
{
    portSAVE_CONTEXT();
     a56:	0f 92       	push	r0
     a58:	0f b6       	in	r0, 0x3f	; 63
     a5a:	f8 94       	cli
     a5c:	0f 92       	push	r0
     a5e:	0b b6       	in	r0, 0x3b	; 59
     a60:	0f 92       	push	r0
     a62:	0c b6       	in	r0, 0x3c	; 60
     a64:	0f 92       	push	r0
     a66:	1f 92       	push	r1
     a68:	11 24       	eor	r1, r1
     a6a:	2f 92       	push	r2
     a6c:	3f 92       	push	r3
     a6e:	4f 92       	push	r4
     a70:	5f 92       	push	r5
     a72:	6f 92       	push	r6
     a74:	7f 92       	push	r7
     a76:	8f 92       	push	r8
     a78:	9f 92       	push	r9
     a7a:	af 92       	push	r10
     a7c:	bf 92       	push	r11
     a7e:	cf 92       	push	r12
     a80:	df 92       	push	r13
     a82:	ef 92       	push	r14
     a84:	ff 92       	push	r15
     a86:	0f 93       	push	r16
     a88:	1f 93       	push	r17
     a8a:	2f 93       	push	r18
     a8c:	3f 93       	push	r19
     a8e:	4f 93       	push	r20
     a90:	5f 93       	push	r21
     a92:	6f 93       	push	r22
     a94:	7f 93       	push	r23
     a96:	8f 93       	push	r24
     a98:	9f 93       	push	r25
     a9a:	af 93       	push	r26
     a9c:	bf 93       	push	r27
     a9e:	cf 93       	push	r28
     aa0:	df 93       	push	r29
     aa2:	ef 93       	push	r30
     aa4:	ff 93       	push	r31
     aa6:	a0 91 12 08 	lds	r26, 0x0812	; 0x800812 <__data_end>
     aaa:	b0 91 13 08 	lds	r27, 0x0813	; 0x800813 <__data_end+0x1>
     aae:	0d b6       	in	r0, 0x3d	; 61
     ab0:	0d 92       	st	X+, r0
     ab2:	0e b6       	in	r0, 0x3e	; 62
     ab4:	0d 92       	st	X+, r0
    vTaskSwitchContext();
     ab6:	0e 94 b9 14 	call	0x2972	; 0x2972 <vTaskSwitchContext>
    portRESTORE_CONTEXT();
     aba:	a0 91 12 08 	lds	r26, 0x0812	; 0x800812 <__data_end>
     abe:	b0 91 13 08 	lds	r27, 0x0813	; 0x800813 <__data_end+0x1>
     ac2:	cd 91       	ld	r28, X+
     ac4:	cd bf       	out	0x3d, r28	; 61
     ac6:	dd 91       	ld	r29, X+
     ac8:	de bf       	out	0x3e, r29	; 62
     aca:	ff 91       	pop	r31
     acc:	ef 91       	pop	r30
     ace:	df 91       	pop	r29
     ad0:	cf 91       	pop	r28
     ad2:	bf 91       	pop	r27
     ad4:	af 91       	pop	r26
     ad6:	9f 91       	pop	r25
     ad8:	8f 91       	pop	r24
     ada:	7f 91       	pop	r23
     adc:	6f 91       	pop	r22
     ade:	5f 91       	pop	r21
     ae0:	4f 91       	pop	r20
     ae2:	3f 91       	pop	r19
     ae4:	2f 91       	pop	r18
     ae6:	1f 91       	pop	r17
     ae8:	0f 91       	pop	r16
     aea:	ff 90       	pop	r15
     aec:	ef 90       	pop	r14
     aee:	df 90       	pop	r13
     af0:	cf 90       	pop	r12
     af2:	bf 90       	pop	r11
     af4:	af 90       	pop	r10
     af6:	9f 90       	pop	r9
     af8:	8f 90       	pop	r8
     afa:	7f 90       	pop	r7
     afc:	6f 90       	pop	r6
     afe:	5f 90       	pop	r5
     b00:	4f 90       	pop	r4
     b02:	3f 90       	pop	r3
     b04:	2f 90       	pop	r2
     b06:	1f 90       	pop	r1
     b08:	0f 90       	pop	r0
     b0a:	0c be       	out	0x3c, r0	; 60
     b0c:	0f 90       	pop	r0
     b0e:	0b be       	out	0x3b, r0	; 59
     b10:	0f 90       	pop	r0
     b12:	0f be       	out	0x3f, r0	; 63
     b14:	0f 90       	pop	r0

    __asm__ __volatile__ ( "ret" );
     b16:	08 95       	ret
	...

00000b1a <vPortYieldFromTick>:
 * call comes from the tick ISR.
 */
void vPortYieldFromTick( void ) __attribute__ ( ( hot, flatten, naked ) );
void vPortYieldFromTick( void )
{
    portSAVE_CONTEXT();
     b1a:	0f 92       	push	r0
     b1c:	0f b6       	in	r0, 0x3f	; 63
     b1e:	f8 94       	cli
     b20:	0f 92       	push	r0
     b22:	0b b6       	in	r0, 0x3b	; 59
     b24:	0f 92       	push	r0
     b26:	0c b6       	in	r0, 0x3c	; 60
     b28:	0f 92       	push	r0
     b2a:	1f 92       	push	r1
     b2c:	11 24       	eor	r1, r1
     b2e:	2f 92       	push	r2
     b30:	3f 92       	push	r3
     b32:	4f 92       	push	r4
     b34:	5f 92       	push	r5
     b36:	6f 92       	push	r6
     b38:	7f 92       	push	r7
     b3a:	8f 92       	push	r8
     b3c:	9f 92       	push	r9
     b3e:	af 92       	push	r10
     b40:	bf 92       	push	r11
     b42:	cf 92       	push	r12
     b44:	df 92       	push	r13
     b46:	ef 92       	push	r14
     b48:	ff 92       	push	r15
     b4a:	0f 93       	push	r16
     b4c:	1f 93       	push	r17
     b4e:	2f 93       	push	r18
     b50:	3f 93       	push	r19
     b52:	4f 93       	push	r20
     b54:	5f 93       	push	r21
     b56:	6f 93       	push	r22
     b58:	7f 93       	push	r23
     b5a:	8f 93       	push	r24
     b5c:	9f 93       	push	r25
     b5e:	af 93       	push	r26
     b60:	bf 93       	push	r27
     b62:	cf 93       	push	r28
     b64:	df 93       	push	r29
     b66:	ef 93       	push	r30
     b68:	ff 93       	push	r31
     b6a:	a0 91 12 08 	lds	r26, 0x0812	; 0x800812 <__data_end>
     b6e:	b0 91 13 08 	lds	r27, 0x0813	; 0x800813 <__data_end+0x1>
     b72:	0d b6       	in	r0, 0x3d	; 61
     b74:	0d 92       	st	X+, r0
     b76:	0e b6       	in	r0, 0x3e	; 62
     b78:	0d 92       	st	X+, r0

    sleep_reset();        //     reset the sleep_mode() faster than sleep_disable();
     b7a:	83 e5       	ldi	r24, 0x53	; 83
     b7c:	90 e0       	ldi	r25, 0x00	; 0
     b7e:	fc 01       	movw	r30, r24
     b80:	10 82       	st	Z, r1

    if( xTaskIncrementTick() != pdFALSE )
     b82:	0e 94 cd 13 	call	0x279a	; 0x279a <xTaskIncrementTick>
     b86:	88 23       	and	r24, r24
     b88:	11 f0       	breq	.+4      	; 0xb8e <vPortYieldFromTick+0x74>
    {
        vTaskSwitchContext();
     b8a:	0e 94 b9 14 	call	0x2972	; 0x2972 <vTaskSwitchContext>
    }

    portRESTORE_CONTEXT();
     b8e:	a0 91 12 08 	lds	r26, 0x0812	; 0x800812 <__data_end>
     b92:	b0 91 13 08 	lds	r27, 0x0813	; 0x800813 <__data_end+0x1>
     b96:	cd 91       	ld	r28, X+
     b98:	cd bf       	out	0x3d, r28	; 61
     b9a:	dd 91       	ld	r29, X+
     b9c:	de bf       	out	0x3e, r29	; 62
     b9e:	ff 91       	pop	r31
     ba0:	ef 91       	pop	r30
     ba2:	df 91       	pop	r29
     ba4:	cf 91       	pop	r28
     ba6:	bf 91       	pop	r27
     ba8:	af 91       	pop	r26
     baa:	9f 91       	pop	r25
     bac:	8f 91       	pop	r24
     bae:	7f 91       	pop	r23
     bb0:	6f 91       	pop	r22
     bb2:	5f 91       	pop	r21
     bb4:	4f 91       	pop	r20
     bb6:	3f 91       	pop	r19
     bb8:	2f 91       	pop	r18
     bba:	1f 91       	pop	r17
     bbc:	0f 91       	pop	r16
     bbe:	ff 90       	pop	r15
     bc0:	ef 90       	pop	r14
     bc2:	df 90       	pop	r13
     bc4:	cf 90       	pop	r12
     bc6:	bf 90       	pop	r11
     bc8:	af 90       	pop	r10
     bca:	9f 90       	pop	r9
     bcc:	8f 90       	pop	r8
     bce:	7f 90       	pop	r7
     bd0:	6f 90       	pop	r6
     bd2:	5f 90       	pop	r5
     bd4:	4f 90       	pop	r4
     bd6:	3f 90       	pop	r3
     bd8:	2f 90       	pop	r2
     bda:	1f 90       	pop	r1
     bdc:	0f 90       	pop	r0
     bde:	0c be       	out	0x3c, r0	; 60
     be0:	0f 90       	pop	r0
     be2:	0b be       	out	0x3b, r0	; 59
     be4:	0f 90       	pop	r0
     be6:	0f be       	out	0x3f, r0	; 63
     be8:	0f 90       	pop	r0

    __asm__ __volatile__ ( "ret" );
     bea:	08 95       	ret
	...

00000bee <prvSetupTimerInterrupt>:
}
/*-----------------------------------------------------------*/

//initialize watchdog
void prvSetupTimerInterrupt( void )
{
     bee:	cf 93       	push	r28
     bf0:	df 93       	push	r29
     bf2:	cd b7       	in	r28, 0x3d	; 61
     bf4:	de b7       	in	r29, 0x3e	; 62
    //reset watchdog
    wdt_reset();
     bf6:	a8 95       	wdr
                "out __SREG__,__tmp_reg__"  "\n\t"
                "sts %0, %2"                "\n\t"
                : /* no outputs */
                : "n" (_SFR_MEM_ADDR(_WD_CONTROL_REG)),
                "r" ((uint8_t)(_BV(_WD_CHANGE_BIT) | _BV(WDE))),
                "r" ((uint8_t) ((value & 0x08 ? _WD_PS3_MASK : 0x00) |
     bf8:	80 e0       	ldi	r24, 0x00	; 0
     bfa:	90 e0       	ldi	r25, 0x00	; 0
     bfc:	88 70       	andi	r24, 0x08	; 8
     bfe:	99 27       	eor	r25, r25
     c00:	89 2b       	or	r24, r25
     c02:	11 f0       	breq	.+4      	; 0xc08 <prvSetupTimerInterrupt+0x1a>
     c04:	80 ee       	ldi	r24, 0xE0	; 224
     c06:	01 c0       	rjmp	.+2      	; 0xc0a <prvSetupTimerInterrupt+0x1c>
     c08:	80 ec       	ldi	r24, 0xC0	; 192
     c0a:	90 e0       	ldi	r25, 0x00	; 0
     c0c:	97 70       	andi	r25, 0x07	; 7
     c0e:	89 2b       	or	r24, r25
     c10:	98 2f       	mov	r25, r24
                : "r0"
        );
    }
    else
    {
        __asm__ __volatile__ (
     c12:	88 e1       	ldi	r24, 0x18	; 24
     c14:	0f b6       	in	r0, 0x3f	; 63
     c16:	f8 94       	cli
     c18:	a8 95       	wdr
     c1a:	80 93 60 00 	sts	0x0060, r24	; 0x800060 <__TEXT_REGION_LENGTH__+0x700060>
     c1e:	0f be       	out	0x3f, r0	; 63
     c20:	90 93 60 00 	sts	0x0060, r25	; 0x800060 <__TEXT_REGION_LENGTH__+0x700060>

    //set up WDT Interrupt (rather than the WDT Reset).
    wdt_interrupt_enable( portUSE_WDTO );
}
     c24:	00 00       	nop
     c26:	df 91       	pop	r29
     c28:	cf 91       	pop	r28
     c2a:	08 95       	ret

00000c2c <__vector_12>:
     */
    ISR(portSCHEDULER_ISR, ISR_NAKED) __attribute__ ((hot, flatten));
//  ISR(portSCHEDULER_ISR, ISR_NAKED ISR_NOBLOCK) __attribute__ ((hot, flatten));
    ISR(portSCHEDULER_ISR)
    {
        vPortYieldFromTick();
     c2c:	76 df       	rcall	.-276    	; 0xb1a <vPortYieldFromTick>
        __asm__ __volatile__ ( "reti" );
     c2e:	18 95       	reti
	...

00000c32 <xQueueGenericReset>:
    {
        xReturn = pdFALSE;
    }

    return xReturn;
} /*lint !e818 xQueue could not be pointer to const because it is a typedef. */
     c32:	cf 93       	push	r28
     c34:	df 93       	push	r29
     c36:	00 d0       	rcall	.+0      	; 0xc38 <xQueueGenericReset+0x6>
     c38:	1f 92       	push	r1
     c3a:	1f 92       	push	r1
     c3c:	cd b7       	in	r28, 0x3d	; 61
     c3e:	de b7       	in	r29, 0x3e	; 62
     c40:	9c 83       	std	Y+4, r25	; 0x04
     c42:	8b 83       	std	Y+3, r24	; 0x03
     c44:	6d 83       	std	Y+5, r22	; 0x05
     c46:	8b 81       	ldd	r24, Y+3	; 0x03
     c48:	9c 81       	ldd	r25, Y+4	; 0x04
     c4a:	9a 83       	std	Y+2, r25	; 0x02
     c4c:	89 83       	std	Y+1, r24	; 0x01
     c4e:	0f b6       	in	r0, 0x3f	; 63
     c50:	f8 94       	cli
     c52:	0f 92       	push	r0
     c54:	89 81       	ldd	r24, Y+1	; 0x01
     c56:	9a 81       	ldd	r25, Y+2	; 0x02
     c58:	fc 01       	movw	r30, r24
     c5a:	80 81       	ld	r24, Z
     c5c:	91 81       	ldd	r25, Z+1	; 0x01
     c5e:	29 81       	ldd	r18, Y+1	; 0x01
     c60:	3a 81       	ldd	r19, Y+2	; 0x02
     c62:	f9 01       	movw	r30, r18
     c64:	23 8d       	ldd	r18, Z+27	; 0x1b
     c66:	42 2f       	mov	r20, r18
     c68:	50 e0       	ldi	r21, 0x00	; 0
     c6a:	29 81       	ldd	r18, Y+1	; 0x01
     c6c:	3a 81       	ldd	r19, Y+2	; 0x02
     c6e:	f9 01       	movw	r30, r18
     c70:	24 8d       	ldd	r18, Z+28	; 0x1c
     c72:	22 2f       	mov	r18, r18
     c74:	30 e0       	ldi	r19, 0x00	; 0
     c76:	42 9f       	mul	r20, r18
     c78:	b0 01       	movw	r22, r0
     c7a:	43 9f       	mul	r20, r19
     c7c:	70 0d       	add	r23, r0
     c7e:	52 9f       	mul	r21, r18
     c80:	70 0d       	add	r23, r0
     c82:	11 24       	eor	r1, r1
     c84:	9b 01       	movw	r18, r22
     c86:	28 0f       	add	r18, r24
     c88:	39 1f       	adc	r19, r25
     c8a:	89 81       	ldd	r24, Y+1	; 0x01
     c8c:	9a 81       	ldd	r25, Y+2	; 0x02
     c8e:	fc 01       	movw	r30, r24
     c90:	35 83       	std	Z+5, r19	; 0x05
     c92:	24 83       	std	Z+4, r18	; 0x04
     c94:	89 81       	ldd	r24, Y+1	; 0x01
     c96:	9a 81       	ldd	r25, Y+2	; 0x02
     c98:	fc 01       	movw	r30, r24
     c9a:	12 8e       	std	Z+26, r1	; 0x1a
     c9c:	89 81       	ldd	r24, Y+1	; 0x01
     c9e:	9a 81       	ldd	r25, Y+2	; 0x02
     ca0:	fc 01       	movw	r30, r24
     ca2:	20 81       	ld	r18, Z
     ca4:	31 81       	ldd	r19, Z+1	; 0x01
     ca6:	89 81       	ldd	r24, Y+1	; 0x01
     ca8:	9a 81       	ldd	r25, Y+2	; 0x02
     caa:	fc 01       	movw	r30, r24
     cac:	33 83       	std	Z+3, r19	; 0x03
     cae:	22 83       	std	Z+2, r18	; 0x02
     cb0:	89 81       	ldd	r24, Y+1	; 0x01
     cb2:	9a 81       	ldd	r25, Y+2	; 0x02
     cb4:	fc 01       	movw	r30, r24
     cb6:	20 81       	ld	r18, Z
     cb8:	31 81       	ldd	r19, Z+1	; 0x01
     cba:	89 81       	ldd	r24, Y+1	; 0x01
     cbc:	9a 81       	ldd	r25, Y+2	; 0x02
     cbe:	fc 01       	movw	r30, r24
     cc0:	83 8d       	ldd	r24, Z+27	; 0x1b
     cc2:	88 2f       	mov	r24, r24
     cc4:	90 e0       	ldi	r25, 0x00	; 0
     cc6:	bc 01       	movw	r22, r24
     cc8:	61 50       	subi	r22, 0x01	; 1
     cca:	71 09       	sbc	r23, r1
     ccc:	89 81       	ldd	r24, Y+1	; 0x01
     cce:	9a 81       	ldd	r25, Y+2	; 0x02
     cd0:	fc 01       	movw	r30, r24
     cd2:	84 8d       	ldd	r24, Z+28	; 0x1c
     cd4:	48 2f       	mov	r20, r24
     cd6:	50 e0       	ldi	r21, 0x00	; 0
     cd8:	64 9f       	mul	r22, r20
     cda:	c0 01       	movw	r24, r0
     cdc:	65 9f       	mul	r22, r21
     cde:	90 0d       	add	r25, r0
     ce0:	74 9f       	mul	r23, r20
     ce2:	90 0d       	add	r25, r0
     ce4:	11 24       	eor	r1, r1
     ce6:	28 0f       	add	r18, r24
     ce8:	39 1f       	adc	r19, r25
     cea:	89 81       	ldd	r24, Y+1	; 0x01
     cec:	9a 81       	ldd	r25, Y+2	; 0x02
     cee:	fc 01       	movw	r30, r24
     cf0:	37 83       	std	Z+7, r19	; 0x07
     cf2:	26 83       	std	Z+6, r18	; 0x06
     cf4:	89 81       	ldd	r24, Y+1	; 0x01
     cf6:	9a 81       	ldd	r25, Y+2	; 0x02
     cf8:	2f ef       	ldi	r18, 0xFF	; 255
     cfa:	fc 01       	movw	r30, r24
     cfc:	25 8f       	std	Z+29, r18	; 0x1d
     cfe:	89 81       	ldd	r24, Y+1	; 0x01
     d00:	9a 81       	ldd	r25, Y+2	; 0x02
     d02:	2f ef       	ldi	r18, 0xFF	; 255
     d04:	fc 01       	movw	r30, r24
     d06:	26 8f       	std	Z+30, r18	; 0x1e
     d08:	8d 81       	ldd	r24, Y+5	; 0x05
     d0a:	88 23       	and	r24, r24
     d0c:	79 f4       	brne	.+30     	; 0xd2c <xQueueGenericReset+0xfa>
     d0e:	89 81       	ldd	r24, Y+1	; 0x01
     d10:	9a 81       	ldd	r25, Y+2	; 0x02
     d12:	fc 01       	movw	r30, r24
     d14:	80 85       	ldd	r24, Z+8	; 0x08
     d16:	88 23       	and	r24, r24
     d18:	89 f0       	breq	.+34     	; 0xd3c <xQueueGenericReset+0x10a>
     d1a:	89 81       	ldd	r24, Y+1	; 0x01
     d1c:	9a 81       	ldd	r25, Y+2	; 0x02
     d1e:	08 96       	adiw	r24, 0x08	; 8
     d20:	0e 94 ab 15 	call	0x2b56	; 0x2b56 <xTaskRemoveFromEventList>
     d24:	88 23       	and	r24, r24
     d26:	51 f0       	breq	.+20     	; 0xd3c <xQueueGenericReset+0x10a>
     d28:	96 de       	rcall	.-724    	; 0xa56 <vPortYield>
     d2a:	08 c0       	rjmp	.+16     	; 0xd3c <xQueueGenericReset+0x10a>
     d2c:	89 81       	ldd	r24, Y+1	; 0x01
     d2e:	9a 81       	ldd	r25, Y+2	; 0x02
     d30:	08 96       	adiw	r24, 0x08	; 8
     d32:	2e db       	rcall	.-2468   	; 0x390 <vListInitialise>
     d34:	89 81       	ldd	r24, Y+1	; 0x01
     d36:	9a 81       	ldd	r25, Y+2	; 0x02
     d38:	41 96       	adiw	r24, 0x11	; 17
     d3a:	2a db       	rcall	.-2476   	; 0x390 <vListInitialise>
     d3c:	0f 90       	pop	r0
     d3e:	0f be       	out	0x3f, r0	; 63
     d40:	81 e0       	ldi	r24, 0x01	; 1
     d42:	0f 90       	pop	r0
     d44:	0f 90       	pop	r0
     d46:	0f 90       	pop	r0
     d48:	0f 90       	pop	r0
     d4a:	0f 90       	pop	r0
     d4c:	df 91       	pop	r29
     d4e:	cf 91       	pop	r28
     d50:	08 95       	ret

00000d52 <xQueueGenericCreate>:
     d52:	0f 93       	push	r16
     d54:	1f 93       	push	r17
     d56:	cf 93       	push	r28
     d58:	df 93       	push	r29
     d5a:	cd b7       	in	r28, 0x3d	; 61
     d5c:	de b7       	in	r29, 0x3e	; 62
     d5e:	29 97       	sbiw	r28, 0x09	; 9
     d60:	0f b6       	in	r0, 0x3f	; 63
     d62:	f8 94       	cli
     d64:	de bf       	out	0x3e, r29	; 62
     d66:	0f be       	out	0x3f, r0	; 63
     d68:	cd bf       	out	0x3d, r28	; 61
     d6a:	8f 83       	std	Y+7, r24	; 0x07
     d6c:	68 87       	std	Y+8, r22	; 0x08
     d6e:	49 87       	std	Y+9, r20	; 0x09
     d70:	88 85       	ldd	r24, Y+8	; 0x08
     d72:	88 23       	and	r24, r24
     d74:	19 f4       	brne	.+6      	; 0xd7c <xQueueGenericCreate+0x2a>
     d76:	1a 82       	std	Y+2, r1	; 0x02
     d78:	19 82       	std	Y+1, r1	; 0x01
     d7a:	0f c0       	rjmp	.+30     	; 0xd9a <xQueueGenericCreate+0x48>
     d7c:	8f 81       	ldd	r24, Y+7	; 0x07
     d7e:	48 2f       	mov	r20, r24
     d80:	50 e0       	ldi	r21, 0x00	; 0
     d82:	88 85       	ldd	r24, Y+8	; 0x08
     d84:	28 2f       	mov	r18, r24
     d86:	30 e0       	ldi	r19, 0x00	; 0
     d88:	42 9f       	mul	r20, r18
     d8a:	c0 01       	movw	r24, r0
     d8c:	43 9f       	mul	r20, r19
     d8e:	90 0d       	add	r25, r0
     d90:	52 9f       	mul	r21, r18
     d92:	90 0d       	add	r25, r0
     d94:	11 24       	eor	r1, r1
     d96:	9a 83       	std	Y+2, r25	; 0x02
     d98:	89 83       	std	Y+1, r24	; 0x01
     d9a:	89 81       	ldd	r24, Y+1	; 0x01
     d9c:	9a 81       	ldd	r25, Y+2	; 0x02
     d9e:	81 96       	adiw	r24, 0x21	; 33
     da0:	bc da       	rcall	.-2696   	; 0x31a <pvPortMalloc>
     da2:	9c 83       	std	Y+4, r25	; 0x04
     da4:	8b 83       	std	Y+3, r24	; 0x03
     da6:	8b 81       	ldd	r24, Y+3	; 0x03
     da8:	9c 81       	ldd	r25, Y+4	; 0x04
     daa:	89 2b       	or	r24, r25
     dac:	99 f0       	breq	.+38     	; 0xdd4 <xQueueGenericCreate+0x82>
     dae:	8b 81       	ldd	r24, Y+3	; 0x03
     db0:	9c 81       	ldd	r25, Y+4	; 0x04
     db2:	9e 83       	std	Y+6, r25	; 0x06
     db4:	8d 83       	std	Y+5, r24	; 0x05
     db6:	8d 81       	ldd	r24, Y+5	; 0x05
     db8:	9e 81       	ldd	r25, Y+6	; 0x06
     dba:	81 96       	adiw	r24, 0x21	; 33
     dbc:	9e 83       	std	Y+6, r25	; 0x06
     dbe:	8d 83       	std	Y+5, r24	; 0x05
     dc0:	2b 81       	ldd	r18, Y+3	; 0x03
     dc2:	3c 81       	ldd	r19, Y+4	; 0x04
     dc4:	8d 81       	ldd	r24, Y+5	; 0x05
     dc6:	9e 81       	ldd	r25, Y+6	; 0x06
     dc8:	89 01       	movw	r16, r18
     dca:	29 85       	ldd	r18, Y+9	; 0x09
     dcc:	ac 01       	movw	r20, r24
     dce:	68 85       	ldd	r22, Y+8	; 0x08
     dd0:	8f 81       	ldd	r24, Y+7	; 0x07
     dd2:	0d d0       	rcall	.+26     	; 0xdee <prvInitialiseNewQueue>
     dd4:	8b 81       	ldd	r24, Y+3	; 0x03
     dd6:	9c 81       	ldd	r25, Y+4	; 0x04
     dd8:	29 96       	adiw	r28, 0x09	; 9
     dda:	0f b6       	in	r0, 0x3f	; 63
     ddc:	f8 94       	cli
     dde:	de bf       	out	0x3e, r29	; 62
     de0:	0f be       	out	0x3f, r0	; 63
     de2:	cd bf       	out	0x3d, r28	; 61
     de4:	df 91       	pop	r29
     de6:	cf 91       	pop	r28
     de8:	1f 91       	pop	r17
     dea:	0f 91       	pop	r16
     dec:	08 95       	ret

00000dee <prvInitialiseNewQueue>:
     dee:	0f 93       	push	r16
     df0:	1f 93       	push	r17
     df2:	cf 93       	push	r28
     df4:	df 93       	push	r29
     df6:	cd b7       	in	r28, 0x3d	; 61
     df8:	de b7       	in	r29, 0x3e	; 62
     dfa:	27 97       	sbiw	r28, 0x07	; 7
     dfc:	0f b6       	in	r0, 0x3f	; 63
     dfe:	f8 94       	cli
     e00:	de bf       	out	0x3e, r29	; 62
     e02:	0f be       	out	0x3f, r0	; 63
     e04:	cd bf       	out	0x3d, r28	; 61
     e06:	89 83       	std	Y+1, r24	; 0x01
     e08:	6a 83       	std	Y+2, r22	; 0x02
     e0a:	5c 83       	std	Y+4, r21	; 0x04
     e0c:	4b 83       	std	Y+3, r20	; 0x03
     e0e:	2d 83       	std	Y+5, r18	; 0x05
     e10:	1f 83       	std	Y+7, r17	; 0x07
     e12:	0e 83       	std	Y+6, r16	; 0x06
     e14:	8a 81       	ldd	r24, Y+2	; 0x02
     e16:	88 23       	and	r24, r24
     e18:	41 f4       	brne	.+16     	; 0xe2a <prvInitialiseNewQueue+0x3c>
     e1a:	8e 81       	ldd	r24, Y+6	; 0x06
     e1c:	9f 81       	ldd	r25, Y+7	; 0x07
     e1e:	2e 81       	ldd	r18, Y+6	; 0x06
     e20:	3f 81       	ldd	r19, Y+7	; 0x07
     e22:	fc 01       	movw	r30, r24
     e24:	31 83       	std	Z+1, r19	; 0x01
     e26:	20 83       	st	Z, r18
     e28:	07 c0       	rjmp	.+14     	; 0xe38 <prvInitialiseNewQueue+0x4a>
     e2a:	8e 81       	ldd	r24, Y+6	; 0x06
     e2c:	9f 81       	ldd	r25, Y+7	; 0x07
     e2e:	2b 81       	ldd	r18, Y+3	; 0x03
     e30:	3c 81       	ldd	r19, Y+4	; 0x04
     e32:	fc 01       	movw	r30, r24
     e34:	31 83       	std	Z+1, r19	; 0x01
     e36:	20 83       	st	Z, r18
     e38:	8e 81       	ldd	r24, Y+6	; 0x06
     e3a:	9f 81       	ldd	r25, Y+7	; 0x07
     e3c:	29 81       	ldd	r18, Y+1	; 0x01
     e3e:	fc 01       	movw	r30, r24
     e40:	23 8f       	std	Z+27, r18	; 0x1b
     e42:	8e 81       	ldd	r24, Y+6	; 0x06
     e44:	9f 81       	ldd	r25, Y+7	; 0x07
     e46:	2a 81       	ldd	r18, Y+2	; 0x02
     e48:	fc 01       	movw	r30, r24
     e4a:	24 8f       	std	Z+28, r18	; 0x1c
     e4c:	8e 81       	ldd	r24, Y+6	; 0x06
     e4e:	9f 81       	ldd	r25, Y+7	; 0x07
     e50:	61 e0       	ldi	r22, 0x01	; 1
     e52:	ef de       	rcall	.-546    	; 0xc32 <xQueueGenericReset>
     e54:	8e 81       	ldd	r24, Y+6	; 0x06
     e56:	9f 81       	ldd	r25, Y+7	; 0x07
     e58:	2d 81       	ldd	r18, Y+5	; 0x05
     e5a:	fc 01       	movw	r30, r24
     e5c:	20 a3       	std	Z+32, r18	; 0x20
     e5e:	00 00       	nop
     e60:	27 96       	adiw	r28, 0x07	; 7
     e62:	0f b6       	in	r0, 0x3f	; 63
     e64:	f8 94       	cli
     e66:	de bf       	out	0x3e, r29	; 62
     e68:	0f be       	out	0x3f, r0	; 63
     e6a:	cd bf       	out	0x3d, r28	; 61
     e6c:	df 91       	pop	r29
     e6e:	cf 91       	pop	r28
     e70:	1f 91       	pop	r17
     e72:	0f 91       	pop	r16
     e74:	08 95       	ret

00000e76 <prvInitialiseMutex>:
     e76:	cf 93       	push	r28
     e78:	df 93       	push	r29
     e7a:	1f 92       	push	r1
     e7c:	1f 92       	push	r1
     e7e:	cd b7       	in	r28, 0x3d	; 61
     e80:	de b7       	in	r29, 0x3e	; 62
     e82:	9a 83       	std	Y+2, r25	; 0x02
     e84:	89 83       	std	Y+1, r24	; 0x01
     e86:	89 81       	ldd	r24, Y+1	; 0x01
     e88:	9a 81       	ldd	r25, Y+2	; 0x02
     e8a:	89 2b       	or	r24, r25
     e8c:	b1 f0       	breq	.+44     	; 0xeba <prvInitialiseMutex+0x44>
     e8e:	89 81       	ldd	r24, Y+1	; 0x01
     e90:	9a 81       	ldd	r25, Y+2	; 0x02
     e92:	fc 01       	movw	r30, r24
     e94:	15 82       	std	Z+5, r1	; 0x05
     e96:	14 82       	std	Z+4, r1	; 0x04
     e98:	89 81       	ldd	r24, Y+1	; 0x01
     e9a:	9a 81       	ldd	r25, Y+2	; 0x02
     e9c:	fc 01       	movw	r30, r24
     e9e:	11 82       	std	Z+1, r1	; 0x01
     ea0:	10 82       	st	Z, r1
     ea2:	89 81       	ldd	r24, Y+1	; 0x01
     ea4:	9a 81       	ldd	r25, Y+2	; 0x02
     ea6:	fc 01       	movw	r30, r24
     ea8:	16 82       	std	Z+6, r1	; 0x06
     eaa:	89 81       	ldd	r24, Y+1	; 0x01
     eac:	9a 81       	ldd	r25, Y+2	; 0x02
     eae:	20 e0       	ldi	r18, 0x00	; 0
     eb0:	40 e0       	ldi	r20, 0x00	; 0
     eb2:	50 e0       	ldi	r21, 0x00	; 0
     eb4:	60 e0       	ldi	r22, 0x00	; 0
     eb6:	70 e0       	ldi	r23, 0x00	; 0
     eb8:	24 d0       	rcall	.+72     	; 0xf02 <xQueueGenericSend>
     eba:	00 00       	nop
     ebc:	0f 90       	pop	r0
     ebe:	0f 90       	pop	r0
     ec0:	df 91       	pop	r29
     ec2:	cf 91       	pop	r28
     ec4:	08 95       	ret

00000ec6 <xQueueCreateMutex>:
     ec6:	cf 93       	push	r28
     ec8:	df 93       	push	r29
     eca:	00 d0       	rcall	.+0      	; 0xecc <xQueueCreateMutex+0x6>
     ecc:	1f 92       	push	r1
     ece:	1f 92       	push	r1
     ed0:	cd b7       	in	r28, 0x3d	; 61
     ed2:	de b7       	in	r29, 0x3e	; 62
     ed4:	8d 83       	std	Y+5, r24	; 0x05
     ed6:	81 e0       	ldi	r24, 0x01	; 1
     ed8:	89 83       	std	Y+1, r24	; 0x01
     eda:	1a 82       	std	Y+2, r1	; 0x02
     edc:	4d 81       	ldd	r20, Y+5	; 0x05
     ede:	6a 81       	ldd	r22, Y+2	; 0x02
     ee0:	89 81       	ldd	r24, Y+1	; 0x01
     ee2:	37 df       	rcall	.-402    	; 0xd52 <xQueueGenericCreate>
     ee4:	9c 83       	std	Y+4, r25	; 0x04
     ee6:	8b 83       	std	Y+3, r24	; 0x03
     ee8:	8b 81       	ldd	r24, Y+3	; 0x03
     eea:	9c 81       	ldd	r25, Y+4	; 0x04
     eec:	c4 df       	rcall	.-120    	; 0xe76 <prvInitialiseMutex>
     eee:	8b 81       	ldd	r24, Y+3	; 0x03
     ef0:	9c 81       	ldd	r25, Y+4	; 0x04
     ef2:	0f 90       	pop	r0
     ef4:	0f 90       	pop	r0
     ef6:	0f 90       	pop	r0
     ef8:	0f 90       	pop	r0
     efa:	0f 90       	pop	r0
     efc:	df 91       	pop	r29
     efe:	cf 91       	pop	r28
     f00:	08 95       	ret

00000f02 <xQueueGenericSend>:
     f02:	cf 93       	push	r28
     f04:	df 93       	push	r29
     f06:	cd b7       	in	r28, 0x3d	; 61
     f08:	de b7       	in	r29, 0x3e	; 62
     f0a:	2e 97       	sbiw	r28, 0x0e	; 14
     f0c:	0f b6       	in	r0, 0x3f	; 63
     f0e:	f8 94       	cli
     f10:	de bf       	out	0x3e, r29	; 62
     f12:	0f be       	out	0x3f, r0	; 63
     f14:	cd bf       	out	0x3d, r28	; 61
     f16:	99 87       	std	Y+9, r25	; 0x09
     f18:	88 87       	std	Y+8, r24	; 0x08
     f1a:	7b 87       	std	Y+11, r23	; 0x0b
     f1c:	6a 87       	std	Y+10, r22	; 0x0a
     f1e:	5d 87       	std	Y+13, r21	; 0x0d
     f20:	4c 87       	std	Y+12, r20	; 0x0c
     f22:	2e 87       	std	Y+14, r18	; 0x0e
     f24:	19 82       	std	Y+1, r1	; 0x01
     f26:	88 85       	ldd	r24, Y+8	; 0x08
     f28:	99 85       	ldd	r25, Y+9	; 0x09
     f2a:	9b 83       	std	Y+3, r25	; 0x03
     f2c:	8a 83       	std	Y+2, r24	; 0x02
     f2e:	0f b6       	in	r0, 0x3f	; 63
     f30:	f8 94       	cli
     f32:	0f 92       	push	r0
     f34:	8a 81       	ldd	r24, Y+2	; 0x02
     f36:	9b 81       	ldd	r25, Y+3	; 0x03
     f38:	fc 01       	movw	r30, r24
     f3a:	22 8d       	ldd	r18, Z+26	; 0x1a
     f3c:	8a 81       	ldd	r24, Y+2	; 0x02
     f3e:	9b 81       	ldd	r25, Y+3	; 0x03
     f40:	fc 01       	movw	r30, r24
     f42:	83 8d       	ldd	r24, Z+27	; 0x1b
     f44:	28 17       	cp	r18, r24
     f46:	18 f0       	brcs	.+6      	; 0xf4e <xQueueGenericSend+0x4c>
     f48:	8e 85       	ldd	r24, Y+14	; 0x0e
     f4a:	82 30       	cpi	r24, 0x02	; 2
     f4c:	f9 f4       	brne	.+62     	; 0xf8c <xQueueGenericSend+0x8a>
     f4e:	2a 85       	ldd	r18, Y+10	; 0x0a
     f50:	3b 85       	ldd	r19, Y+11	; 0x0b
     f52:	8a 81       	ldd	r24, Y+2	; 0x02
     f54:	9b 81       	ldd	r25, Y+3	; 0x03
     f56:	4e 85       	ldd	r20, Y+14	; 0x0e
     f58:	b9 01       	movw	r22, r18
     f5a:	7f d2       	rcall	.+1278   	; 0x145a <prvCopyDataToQueue>
     f5c:	8c 83       	std	Y+4, r24	; 0x04
     f5e:	8a 81       	ldd	r24, Y+2	; 0x02
     f60:	9b 81       	ldd	r25, Y+3	; 0x03
     f62:	fc 01       	movw	r30, r24
     f64:	81 89       	ldd	r24, Z+17	; 0x11
     f66:	88 23       	and	r24, r24
     f68:	49 f0       	breq	.+18     	; 0xf7c <xQueueGenericSend+0x7a>
     f6a:	8a 81       	ldd	r24, Y+2	; 0x02
     f6c:	9b 81       	ldd	r25, Y+3	; 0x03
     f6e:	41 96       	adiw	r24, 0x11	; 17
     f70:	0e 94 ab 15 	call	0x2b56	; 0x2b56 <xTaskRemoveFromEventList>
     f74:	88 23       	and	r24, r24
     f76:	31 f0       	breq	.+12     	; 0xf84 <xQueueGenericSend+0x82>
     f78:	6e dd       	rcall	.-1316   	; 0xa56 <vPortYield>
     f7a:	04 c0       	rjmp	.+8      	; 0xf84 <xQueueGenericSend+0x82>
     f7c:	8c 81       	ldd	r24, Y+4	; 0x04
     f7e:	88 23       	and	r24, r24
     f80:	09 f0       	breq	.+2      	; 0xf84 <xQueueGenericSend+0x82>
     f82:	69 dd       	rcall	.-1326   	; 0xa56 <vPortYield>
     f84:	0f 90       	pop	r0
     f86:	0f be       	out	0x3f, r0	; 63
     f88:	81 e0       	ldi	r24, 0x01	; 1
     f8a:	5b c0       	rjmp	.+182    	; 0x1042 <xQueueGenericSend+0x140>
     f8c:	8c 85       	ldd	r24, Y+12	; 0x0c
     f8e:	9d 85       	ldd	r25, Y+13	; 0x0d
     f90:	89 2b       	or	r24, r25
     f92:	21 f4       	brne	.+8      	; 0xf9c <xQueueGenericSend+0x9a>
     f94:	0f 90       	pop	r0
     f96:	0f be       	out	0x3f, r0	; 63
     f98:	80 e0       	ldi	r24, 0x00	; 0
     f9a:	53 c0       	rjmp	.+166    	; 0x1042 <xQueueGenericSend+0x140>
     f9c:	89 81       	ldd	r24, Y+1	; 0x01
     f9e:	88 23       	and	r24, r24
     fa0:	31 f4       	brne	.+12     	; 0xfae <xQueueGenericSend+0xac>
     fa2:	ce 01       	movw	r24, r28
     fa4:	05 96       	adiw	r24, 0x05	; 5
     fa6:	0e 94 18 16 	call	0x2c30	; 0x2c30 <vTaskInternalSetTimeOutState>
     faa:	81 e0       	ldi	r24, 0x01	; 1
     fac:	89 83       	std	Y+1, r24	; 0x01
     fae:	0f 90       	pop	r0
     fb0:	0f be       	out	0x3f, r0	; 63
     fb2:	0e 94 13 13 	call	0x2626	; 0x2626 <vTaskSuspendAll>
     fb6:	0f b6       	in	r0, 0x3f	; 63
     fb8:	f8 94       	cli
     fba:	0f 92       	push	r0
     fbc:	8a 81       	ldd	r24, Y+2	; 0x02
     fbe:	9b 81       	ldd	r25, Y+3	; 0x03
     fc0:	fc 01       	movw	r30, r24
     fc2:	85 8d       	ldd	r24, Z+29	; 0x1d
     fc4:	8f 3f       	cpi	r24, 0xFF	; 255
     fc6:	21 f4       	brne	.+8      	; 0xfd0 <xQueueGenericSend+0xce>
     fc8:	8a 81       	ldd	r24, Y+2	; 0x02
     fca:	9b 81       	ldd	r25, Y+3	; 0x03
     fcc:	fc 01       	movw	r30, r24
     fce:	15 8e       	std	Z+29, r1	; 0x1d
     fd0:	8a 81       	ldd	r24, Y+2	; 0x02
     fd2:	9b 81       	ldd	r25, Y+3	; 0x03
     fd4:	fc 01       	movw	r30, r24
     fd6:	86 8d       	ldd	r24, Z+30	; 0x1e
     fd8:	8f 3f       	cpi	r24, 0xFF	; 255
     fda:	21 f4       	brne	.+8      	; 0xfe4 <xQueueGenericSend+0xe2>
     fdc:	8a 81       	ldd	r24, Y+2	; 0x02
     fde:	9b 81       	ldd	r25, Y+3	; 0x03
     fe0:	fc 01       	movw	r30, r24
     fe2:	16 8e       	std	Z+30, r1	; 0x1e
     fe4:	0f 90       	pop	r0
     fe6:	0f be       	out	0x3f, r0	; 63
     fe8:	9e 01       	movw	r18, r28
     fea:	24 5f       	subi	r18, 0xF4	; 244
     fec:	3f 4f       	sbci	r19, 0xFF	; 255
     fee:	ce 01       	movw	r24, r28
     ff0:	05 96       	adiw	r24, 0x05	; 5
     ff2:	b9 01       	movw	r22, r18
     ff4:	0e 94 35 16 	call	0x2c6a	; 0x2c6a <xTaskCheckForTimeOut>
     ff8:	88 23       	and	r24, r24
     ffa:	e9 f4       	brne	.+58     	; 0x1036 <xQueueGenericSend+0x134>
     ffc:	8a 81       	ldd	r24, Y+2	; 0x02
     ffe:	9b 81       	ldd	r25, Y+3	; 0x03
    1000:	c8 d3       	rcall	.+1936   	; 0x1792 <prvIsQueueFull>
    1002:	88 23       	and	r24, r24
    1004:	91 f0       	breq	.+36     	; 0x102a <xQueueGenericSend+0x128>
    1006:	2c 85       	ldd	r18, Y+12	; 0x0c
    1008:	3d 85       	ldd	r19, Y+13	; 0x0d
    100a:	8a 81       	ldd	r24, Y+2	; 0x02
    100c:	9b 81       	ldd	r25, Y+3	; 0x03
    100e:	08 96       	adiw	r24, 0x08	; 8
    1010:	b9 01       	movw	r22, r18
    1012:	0e 94 5d 15 	call	0x2aba	; 0x2aba <vTaskPlaceOnEventList>
    1016:	8a 81       	ldd	r24, Y+2	; 0x02
    1018:	9b 81       	ldd	r25, Y+3	; 0x03
    101a:	40 d3       	rcall	.+1664   	; 0x169c <prvUnlockQueue>
    101c:	0e 94 20 13 	call	0x2640	; 0x2640 <xTaskResumeAll>
    1020:	88 23       	and	r24, r24
    1022:	09 f0       	breq	.+2      	; 0x1026 <xQueueGenericSend+0x124>
    1024:	84 cf       	rjmp	.-248    	; 0xf2e <xQueueGenericSend+0x2c>
    1026:	17 dd       	rcall	.-1490   	; 0xa56 <vPortYield>
    1028:	82 cf       	rjmp	.-252    	; 0xf2e <xQueueGenericSend+0x2c>
    102a:	8a 81       	ldd	r24, Y+2	; 0x02
    102c:	9b 81       	ldd	r25, Y+3	; 0x03
    102e:	36 d3       	rcall	.+1644   	; 0x169c <prvUnlockQueue>
    1030:	0e 94 20 13 	call	0x2640	; 0x2640 <xTaskResumeAll>
    1034:	7c cf       	rjmp	.-264    	; 0xf2e <xQueueGenericSend+0x2c>
    1036:	8a 81       	ldd	r24, Y+2	; 0x02
    1038:	9b 81       	ldd	r25, Y+3	; 0x03
    103a:	30 d3       	rcall	.+1632   	; 0x169c <prvUnlockQueue>
    103c:	0e 94 20 13 	call	0x2640	; 0x2640 <xTaskResumeAll>
    1040:	80 e0       	ldi	r24, 0x00	; 0
    1042:	2e 96       	adiw	r28, 0x0e	; 14
    1044:	0f b6       	in	r0, 0x3f	; 63
    1046:	f8 94       	cli
    1048:	de bf       	out	0x3e, r29	; 62
    104a:	0f be       	out	0x3f, r0	; 63
    104c:	cd bf       	out	0x3d, r28	; 61
    104e:	df 91       	pop	r29
    1050:	cf 91       	pop	r28
    1052:	08 95       	ret

00001054 <xQueueGenericSendFromISR>:
    1054:	cf 93       	push	r28
    1056:	df 93       	push	r29
    1058:	cd b7       	in	r28, 0x3d	; 61
    105a:	de b7       	in	r29, 0x3e	; 62
    105c:	2c 97       	sbiw	r28, 0x0c	; 12
    105e:	0f b6       	in	r0, 0x3f	; 63
    1060:	f8 94       	cli
    1062:	de bf       	out	0x3e, r29	; 62
    1064:	0f be       	out	0x3f, r0	; 63
    1066:	cd bf       	out	0x3d, r28	; 61
    1068:	9f 83       	std	Y+7, r25	; 0x07
    106a:	8e 83       	std	Y+6, r24	; 0x06
    106c:	79 87       	std	Y+9, r23	; 0x09
    106e:	68 87       	std	Y+8, r22	; 0x08
    1070:	5b 87       	std	Y+11, r21	; 0x0b
    1072:	4a 87       	std	Y+10, r20	; 0x0a
    1074:	2c 87       	std	Y+12, r18	; 0x0c
    1076:	8e 81       	ldd	r24, Y+6	; 0x06
    1078:	9f 81       	ldd	r25, Y+7	; 0x07
    107a:	9b 83       	std	Y+3, r25	; 0x03
    107c:	8a 83       	std	Y+2, r24	; 0x02
    107e:	1c 82       	std	Y+4, r1	; 0x04
    1080:	8a 81       	ldd	r24, Y+2	; 0x02
    1082:	9b 81       	ldd	r25, Y+3	; 0x03
    1084:	fc 01       	movw	r30, r24
    1086:	22 8d       	ldd	r18, Z+26	; 0x1a
    1088:	8a 81       	ldd	r24, Y+2	; 0x02
    108a:	9b 81       	ldd	r25, Y+3	; 0x03
    108c:	fc 01       	movw	r30, r24
    108e:	83 8d       	ldd	r24, Z+27	; 0x1b
    1090:	28 17       	cp	r18, r24
    1092:	18 f0       	brcs	.+6      	; 0x109a <xQueueGenericSendFromISR+0x46>
    1094:	8c 85       	ldd	r24, Y+12	; 0x0c
    1096:	82 30       	cpi	r24, 0x02	; 2
    1098:	81 f5       	brne	.+96     	; 0x10fa <xQueueGenericSendFromISR+0xa6>
    109a:	8a 81       	ldd	r24, Y+2	; 0x02
    109c:	9b 81       	ldd	r25, Y+3	; 0x03
    109e:	fc 01       	movw	r30, r24
    10a0:	86 8d       	ldd	r24, Z+30	; 0x1e
    10a2:	8d 83       	std	Y+5, r24	; 0x05
    10a4:	28 85       	ldd	r18, Y+8	; 0x08
    10a6:	39 85       	ldd	r19, Y+9	; 0x09
    10a8:	8a 81       	ldd	r24, Y+2	; 0x02
    10aa:	9b 81       	ldd	r25, Y+3	; 0x03
    10ac:	4c 85       	ldd	r20, Y+12	; 0x0c
    10ae:	b9 01       	movw	r22, r18
    10b0:	d4 d1       	rcall	.+936    	; 0x145a <prvCopyDataToQueue>
    10b2:	8d 81       	ldd	r24, Y+5	; 0x05
    10b4:	8f 3f       	cpi	r24, 0xFF	; 255
    10b6:	b9 f4       	brne	.+46     	; 0x10e6 <xQueueGenericSendFromISR+0x92>
    10b8:	8a 81       	ldd	r24, Y+2	; 0x02
    10ba:	9b 81       	ldd	r25, Y+3	; 0x03
    10bc:	fc 01       	movw	r30, r24
    10be:	81 89       	ldd	r24, Z+17	; 0x11
    10c0:	88 23       	and	r24, r24
    10c2:	c1 f0       	breq	.+48     	; 0x10f4 <xQueueGenericSendFromISR+0xa0>
    10c4:	8a 81       	ldd	r24, Y+2	; 0x02
    10c6:	9b 81       	ldd	r25, Y+3	; 0x03
    10c8:	41 96       	adiw	r24, 0x11	; 17
    10ca:	0e 94 ab 15 	call	0x2b56	; 0x2b56 <xTaskRemoveFromEventList>
    10ce:	88 23       	and	r24, r24
    10d0:	89 f0       	breq	.+34     	; 0x10f4 <xQueueGenericSendFromISR+0xa0>
    10d2:	8a 85       	ldd	r24, Y+10	; 0x0a
    10d4:	9b 85       	ldd	r25, Y+11	; 0x0b
    10d6:	89 2b       	or	r24, r25
    10d8:	69 f0       	breq	.+26     	; 0x10f4 <xQueueGenericSendFromISR+0xa0>
    10da:	8a 85       	ldd	r24, Y+10	; 0x0a
    10dc:	9b 85       	ldd	r25, Y+11	; 0x0b
    10de:	21 e0       	ldi	r18, 0x01	; 1
    10e0:	fc 01       	movw	r30, r24
    10e2:	20 83       	st	Z, r18
    10e4:	07 c0       	rjmp	.+14     	; 0x10f4 <xQueueGenericSendFromISR+0xa0>
    10e6:	8d 81       	ldd	r24, Y+5	; 0x05
    10e8:	8f 5f       	subi	r24, 0xFF	; 255
    10ea:	28 2f       	mov	r18, r24
    10ec:	8a 81       	ldd	r24, Y+2	; 0x02
    10ee:	9b 81       	ldd	r25, Y+3	; 0x03
    10f0:	fc 01       	movw	r30, r24
    10f2:	26 8f       	std	Z+30, r18	; 0x1e
    10f4:	81 e0       	ldi	r24, 0x01	; 1
    10f6:	89 83       	std	Y+1, r24	; 0x01
    10f8:	01 c0       	rjmp	.+2      	; 0x10fc <xQueueGenericSendFromISR+0xa8>
    10fa:	19 82       	std	Y+1, r1	; 0x01
    10fc:	89 81       	ldd	r24, Y+1	; 0x01
    10fe:	2c 96       	adiw	r28, 0x0c	; 12
    1100:	0f b6       	in	r0, 0x3f	; 63
    1102:	f8 94       	cli
    1104:	de bf       	out	0x3e, r29	; 62
    1106:	0f be       	out	0x3f, r0	; 63
    1108:	cd bf       	out	0x3d, r28	; 61
    110a:	df 91       	pop	r29
    110c:	cf 91       	pop	r28
    110e:	08 95       	ret

00001110 <xQueueReceive>:
    1110:	cf 93       	push	r28
    1112:	df 93       	push	r29
    1114:	cd b7       	in	r28, 0x3d	; 61
    1116:	de b7       	in	r29, 0x3e	; 62
    1118:	2d 97       	sbiw	r28, 0x0d	; 13
    111a:	0f b6       	in	r0, 0x3f	; 63
    111c:	f8 94       	cli
    111e:	de bf       	out	0x3e, r29	; 62
    1120:	0f be       	out	0x3f, r0	; 63
    1122:	cd bf       	out	0x3d, r28	; 61
    1124:	99 87       	std	Y+9, r25	; 0x09
    1126:	88 87       	std	Y+8, r24	; 0x08
    1128:	7b 87       	std	Y+11, r23	; 0x0b
    112a:	6a 87       	std	Y+10, r22	; 0x0a
    112c:	5d 87       	std	Y+13, r21	; 0x0d
    112e:	4c 87       	std	Y+12, r20	; 0x0c
    1130:	19 82       	std	Y+1, r1	; 0x01
    1132:	88 85       	ldd	r24, Y+8	; 0x08
    1134:	99 85       	ldd	r25, Y+9	; 0x09
    1136:	9b 83       	std	Y+3, r25	; 0x03
    1138:	8a 83       	std	Y+2, r24	; 0x02
    113a:	0f b6       	in	r0, 0x3f	; 63
    113c:	f8 94       	cli
    113e:	0f 92       	push	r0
    1140:	8a 81       	ldd	r24, Y+2	; 0x02
    1142:	9b 81       	ldd	r25, Y+3	; 0x03
    1144:	fc 01       	movw	r30, r24
    1146:	82 8d       	ldd	r24, Z+26	; 0x1a
    1148:	8c 83       	std	Y+4, r24	; 0x04
    114a:	8c 81       	ldd	r24, Y+4	; 0x04
    114c:	88 23       	and	r24, r24
    114e:	f9 f0       	breq	.+62     	; 0x118e <xQueueReceive+0x7e>
    1150:	2a 85       	ldd	r18, Y+10	; 0x0a
    1152:	3b 85       	ldd	r19, Y+11	; 0x0b
    1154:	8a 81       	ldd	r24, Y+2	; 0x02
    1156:	9b 81       	ldd	r25, Y+3	; 0x03
    1158:	b9 01       	movw	r22, r18
    115a:	4f d2       	rcall	.+1182   	; 0x15fa <prvCopyDataFromQueue>
    115c:	8c 81       	ldd	r24, Y+4	; 0x04
    115e:	2f ef       	ldi	r18, 0xFF	; 255
    1160:	28 0f       	add	r18, r24
    1162:	8a 81       	ldd	r24, Y+2	; 0x02
    1164:	9b 81       	ldd	r25, Y+3	; 0x03
    1166:	fc 01       	movw	r30, r24
    1168:	22 8f       	std	Z+26, r18	; 0x1a
    116a:	8a 81       	ldd	r24, Y+2	; 0x02
    116c:	9b 81       	ldd	r25, Y+3	; 0x03
    116e:	fc 01       	movw	r30, r24
    1170:	80 85       	ldd	r24, Z+8	; 0x08
    1172:	88 23       	and	r24, r24
    1174:	41 f0       	breq	.+16     	; 0x1186 <xQueueReceive+0x76>
    1176:	8a 81       	ldd	r24, Y+2	; 0x02
    1178:	9b 81       	ldd	r25, Y+3	; 0x03
    117a:	08 96       	adiw	r24, 0x08	; 8
    117c:	0e 94 ab 15 	call	0x2b56	; 0x2b56 <xTaskRemoveFromEventList>
    1180:	88 23       	and	r24, r24
    1182:	09 f0       	breq	.+2      	; 0x1186 <xQueueReceive+0x76>
    1184:	68 dc       	rcall	.-1840   	; 0xa56 <vPortYield>
    1186:	0f 90       	pop	r0
    1188:	0f be       	out	0x3f, r0	; 63
    118a:	81 e0       	ldi	r24, 0x01	; 1
    118c:	61 c0       	rjmp	.+194    	; 0x1250 <xQueueReceive+0x140>
    118e:	8c 85       	ldd	r24, Y+12	; 0x0c
    1190:	9d 85       	ldd	r25, Y+13	; 0x0d
    1192:	89 2b       	or	r24, r25
    1194:	21 f4       	brne	.+8      	; 0x119e <xQueueReceive+0x8e>
    1196:	0f 90       	pop	r0
    1198:	0f be       	out	0x3f, r0	; 63
    119a:	80 e0       	ldi	r24, 0x00	; 0
    119c:	59 c0       	rjmp	.+178    	; 0x1250 <xQueueReceive+0x140>
    119e:	89 81       	ldd	r24, Y+1	; 0x01
    11a0:	88 23       	and	r24, r24
    11a2:	31 f4       	brne	.+12     	; 0x11b0 <xQueueReceive+0xa0>
    11a4:	ce 01       	movw	r24, r28
    11a6:	05 96       	adiw	r24, 0x05	; 5
    11a8:	0e 94 18 16 	call	0x2c30	; 0x2c30 <vTaskInternalSetTimeOutState>
    11ac:	81 e0       	ldi	r24, 0x01	; 1
    11ae:	89 83       	std	Y+1, r24	; 0x01
    11b0:	0f 90       	pop	r0
    11b2:	0f be       	out	0x3f, r0	; 63
    11b4:	0e 94 13 13 	call	0x2626	; 0x2626 <vTaskSuspendAll>
    11b8:	0f b6       	in	r0, 0x3f	; 63
    11ba:	f8 94       	cli
    11bc:	0f 92       	push	r0
    11be:	8a 81       	ldd	r24, Y+2	; 0x02
    11c0:	9b 81       	ldd	r25, Y+3	; 0x03
    11c2:	fc 01       	movw	r30, r24
    11c4:	85 8d       	ldd	r24, Z+29	; 0x1d
    11c6:	8f 3f       	cpi	r24, 0xFF	; 255
    11c8:	21 f4       	brne	.+8      	; 0x11d2 <xQueueReceive+0xc2>
    11ca:	8a 81       	ldd	r24, Y+2	; 0x02
    11cc:	9b 81       	ldd	r25, Y+3	; 0x03
    11ce:	fc 01       	movw	r30, r24
    11d0:	15 8e       	std	Z+29, r1	; 0x1d
    11d2:	8a 81       	ldd	r24, Y+2	; 0x02
    11d4:	9b 81       	ldd	r25, Y+3	; 0x03
    11d6:	fc 01       	movw	r30, r24
    11d8:	86 8d       	ldd	r24, Z+30	; 0x1e
    11da:	8f 3f       	cpi	r24, 0xFF	; 255
    11dc:	21 f4       	brne	.+8      	; 0x11e6 <xQueueReceive+0xd6>
    11de:	8a 81       	ldd	r24, Y+2	; 0x02
    11e0:	9b 81       	ldd	r25, Y+3	; 0x03
    11e2:	fc 01       	movw	r30, r24
    11e4:	16 8e       	std	Z+30, r1	; 0x1e
    11e6:	0f 90       	pop	r0
    11e8:	0f be       	out	0x3f, r0	; 63
    11ea:	9e 01       	movw	r18, r28
    11ec:	24 5f       	subi	r18, 0xF4	; 244
    11ee:	3f 4f       	sbci	r19, 0xFF	; 255
    11f0:	ce 01       	movw	r24, r28
    11f2:	05 96       	adiw	r24, 0x05	; 5
    11f4:	b9 01       	movw	r22, r18
    11f6:	0e 94 35 16 	call	0x2c6a	; 0x2c6a <xTaskCheckForTimeOut>
    11fa:	88 23       	and	r24, r24
    11fc:	e9 f4       	brne	.+58     	; 0x1238 <xQueueReceive+0x128>
    11fe:	8a 81       	ldd	r24, Y+2	; 0x02
    1200:	9b 81       	ldd	r25, Y+3	; 0x03
    1202:	aa d2       	rcall	.+1364   	; 0x1758 <prvIsQueueEmpty>
    1204:	88 23       	and	r24, r24
    1206:	91 f0       	breq	.+36     	; 0x122c <xQueueReceive+0x11c>
    1208:	2c 85       	ldd	r18, Y+12	; 0x0c
    120a:	3d 85       	ldd	r19, Y+13	; 0x0d
    120c:	8a 81       	ldd	r24, Y+2	; 0x02
    120e:	9b 81       	ldd	r25, Y+3	; 0x03
    1210:	41 96       	adiw	r24, 0x11	; 17
    1212:	b9 01       	movw	r22, r18
    1214:	0e 94 5d 15 	call	0x2aba	; 0x2aba <vTaskPlaceOnEventList>
    1218:	8a 81       	ldd	r24, Y+2	; 0x02
    121a:	9b 81       	ldd	r25, Y+3	; 0x03
    121c:	3f d2       	rcall	.+1150   	; 0x169c <prvUnlockQueue>
    121e:	0e 94 20 13 	call	0x2640	; 0x2640 <xTaskResumeAll>
    1222:	88 23       	and	r24, r24
    1224:	09 f0       	breq	.+2      	; 0x1228 <xQueueReceive+0x118>
    1226:	89 cf       	rjmp	.-238    	; 0x113a <xQueueReceive+0x2a>
    1228:	16 dc       	rcall	.-2004   	; 0xa56 <vPortYield>
    122a:	87 cf       	rjmp	.-242    	; 0x113a <xQueueReceive+0x2a>
    122c:	8a 81       	ldd	r24, Y+2	; 0x02
    122e:	9b 81       	ldd	r25, Y+3	; 0x03
    1230:	35 d2       	rcall	.+1130   	; 0x169c <prvUnlockQueue>
    1232:	0e 94 20 13 	call	0x2640	; 0x2640 <xTaskResumeAll>
    1236:	81 cf       	rjmp	.-254    	; 0x113a <xQueueReceive+0x2a>
    1238:	8a 81       	ldd	r24, Y+2	; 0x02
    123a:	9b 81       	ldd	r25, Y+3	; 0x03
    123c:	2f d2       	rcall	.+1118   	; 0x169c <prvUnlockQueue>
    123e:	0e 94 20 13 	call	0x2640	; 0x2640 <xTaskResumeAll>
    1242:	8a 81       	ldd	r24, Y+2	; 0x02
    1244:	9b 81       	ldd	r25, Y+3	; 0x03
    1246:	88 d2       	rcall	.+1296   	; 0x1758 <prvIsQueueEmpty>
    1248:	88 23       	and	r24, r24
    124a:	09 f4       	brne	.+2      	; 0x124e <xQueueReceive+0x13e>
    124c:	76 cf       	rjmp	.-276    	; 0x113a <xQueueReceive+0x2a>
    124e:	80 e0       	ldi	r24, 0x00	; 0
    1250:	2d 96       	adiw	r28, 0x0d	; 13
    1252:	0f b6       	in	r0, 0x3f	; 63
    1254:	f8 94       	cli
    1256:	de bf       	out	0x3e, r29	; 62
    1258:	0f be       	out	0x3f, r0	; 63
    125a:	cd bf       	out	0x3d, r28	; 61
    125c:	df 91       	pop	r29
    125e:	cf 91       	pop	r28
    1260:	08 95       	ret

00001262 <xQueueSemaphoreTake>:
    1262:	cf 93       	push	r28
    1264:	df 93       	push	r29
    1266:	cd b7       	in	r28, 0x3d	; 61
    1268:	de b7       	in	r29, 0x3e	; 62
    126a:	2d 97       	sbiw	r28, 0x0d	; 13
    126c:	0f b6       	in	r0, 0x3f	; 63
    126e:	f8 94       	cli
    1270:	de bf       	out	0x3e, r29	; 62
    1272:	0f be       	out	0x3f, r0	; 63
    1274:	cd bf       	out	0x3d, r28	; 61
    1276:	9b 87       	std	Y+11, r25	; 0x0b
    1278:	8a 87       	std	Y+10, r24	; 0x0a
    127a:	7d 87       	std	Y+13, r23	; 0x0d
    127c:	6c 87       	std	Y+12, r22	; 0x0c
    127e:	19 82       	std	Y+1, r1	; 0x01
    1280:	8a 85       	ldd	r24, Y+10	; 0x0a
    1282:	9b 85       	ldd	r25, Y+11	; 0x0b
    1284:	9c 83       	std	Y+4, r25	; 0x04
    1286:	8b 83       	std	Y+3, r24	; 0x03
    1288:	1a 82       	std	Y+2, r1	; 0x02
    128a:	0f b6       	in	r0, 0x3f	; 63
    128c:	f8 94       	cli
    128e:	0f 92       	push	r0
    1290:	8b 81       	ldd	r24, Y+3	; 0x03
    1292:	9c 81       	ldd	r25, Y+4	; 0x04
    1294:	fc 01       	movw	r30, r24
    1296:	82 8d       	ldd	r24, Z+26	; 0x1a
    1298:	8d 83       	std	Y+5, r24	; 0x05
    129a:	8d 81       	ldd	r24, Y+5	; 0x05
    129c:	88 23       	and	r24, r24
    129e:	41 f1       	breq	.+80     	; 0x12f0 <xQueueSemaphoreTake+0x8e>
    12a0:	8d 81       	ldd	r24, Y+5	; 0x05
    12a2:	2f ef       	ldi	r18, 0xFF	; 255
    12a4:	28 0f       	add	r18, r24
    12a6:	8b 81       	ldd	r24, Y+3	; 0x03
    12a8:	9c 81       	ldd	r25, Y+4	; 0x04
    12aa:	fc 01       	movw	r30, r24
    12ac:	22 8f       	std	Z+26, r18	; 0x1a
    12ae:	8b 81       	ldd	r24, Y+3	; 0x03
    12b0:	9c 81       	ldd	r25, Y+4	; 0x04
    12b2:	fc 01       	movw	r30, r24
    12b4:	80 81       	ld	r24, Z
    12b6:	91 81       	ldd	r25, Z+1	; 0x01
    12b8:	89 2b       	or	r24, r25
    12ba:	41 f4       	brne	.+16     	; 0x12cc <xQueueSemaphoreTake+0x6a>
    12bc:	0e 94 63 19 	call	0x32c6	; 0x32c6 <pvTaskIncrementMutexHeldCount>
    12c0:	9c 01       	movw	r18, r24
    12c2:	8b 81       	ldd	r24, Y+3	; 0x03
    12c4:	9c 81       	ldd	r25, Y+4	; 0x04
    12c6:	fc 01       	movw	r30, r24
    12c8:	35 83       	std	Z+5, r19	; 0x05
    12ca:	24 83       	std	Z+4, r18	; 0x04
    12cc:	8b 81       	ldd	r24, Y+3	; 0x03
    12ce:	9c 81       	ldd	r25, Y+4	; 0x04
    12d0:	fc 01       	movw	r30, r24
    12d2:	80 85       	ldd	r24, Z+8	; 0x08
    12d4:	88 23       	and	r24, r24
    12d6:	41 f0       	breq	.+16     	; 0x12e8 <xQueueSemaphoreTake+0x86>
    12d8:	8b 81       	ldd	r24, Y+3	; 0x03
    12da:	9c 81       	ldd	r25, Y+4	; 0x04
    12dc:	08 96       	adiw	r24, 0x08	; 8
    12de:	0e 94 ab 15 	call	0x2b56	; 0x2b56 <xTaskRemoveFromEventList>
    12e2:	88 23       	and	r24, r24
    12e4:	09 f0       	breq	.+2      	; 0x12e8 <xQueueSemaphoreTake+0x86>
    12e6:	b7 db       	rcall	.-2194   	; 0xa56 <vPortYield>
    12e8:	0f 90       	pop	r0
    12ea:	0f be       	out	0x3f, r0	; 63
    12ec:	81 e0       	ldi	r24, 0x01	; 1
    12ee:	8a c0       	rjmp	.+276    	; 0x1404 <xQueueSemaphoreTake+0x1a2>
    12f0:	8c 85       	ldd	r24, Y+12	; 0x0c
    12f2:	9d 85       	ldd	r25, Y+13	; 0x0d
    12f4:	89 2b       	or	r24, r25
    12f6:	21 f4       	brne	.+8      	; 0x1300 <xQueueSemaphoreTake+0x9e>
    12f8:	0f 90       	pop	r0
    12fa:	0f be       	out	0x3f, r0	; 63
    12fc:	80 e0       	ldi	r24, 0x00	; 0
    12fe:	82 c0       	rjmp	.+260    	; 0x1404 <xQueueSemaphoreTake+0x1a2>
    1300:	89 81       	ldd	r24, Y+1	; 0x01
    1302:	88 23       	and	r24, r24
    1304:	31 f4       	brne	.+12     	; 0x1312 <xQueueSemaphoreTake+0xb0>
    1306:	ce 01       	movw	r24, r28
    1308:	07 96       	adiw	r24, 0x07	; 7
    130a:	0e 94 18 16 	call	0x2c30	; 0x2c30 <vTaskInternalSetTimeOutState>
    130e:	81 e0       	ldi	r24, 0x01	; 1
    1310:	89 83       	std	Y+1, r24	; 0x01
    1312:	0f 90       	pop	r0
    1314:	0f be       	out	0x3f, r0	; 63
    1316:	0e 94 13 13 	call	0x2626	; 0x2626 <vTaskSuspendAll>
    131a:	0f b6       	in	r0, 0x3f	; 63
    131c:	f8 94       	cli
    131e:	0f 92       	push	r0
    1320:	8b 81       	ldd	r24, Y+3	; 0x03
    1322:	9c 81       	ldd	r25, Y+4	; 0x04
    1324:	fc 01       	movw	r30, r24
    1326:	85 8d       	ldd	r24, Z+29	; 0x1d
    1328:	8f 3f       	cpi	r24, 0xFF	; 255
    132a:	21 f4       	brne	.+8      	; 0x1334 <xQueueSemaphoreTake+0xd2>
    132c:	8b 81       	ldd	r24, Y+3	; 0x03
    132e:	9c 81       	ldd	r25, Y+4	; 0x04
    1330:	fc 01       	movw	r30, r24
    1332:	15 8e       	std	Z+29, r1	; 0x1d
    1334:	8b 81       	ldd	r24, Y+3	; 0x03
    1336:	9c 81       	ldd	r25, Y+4	; 0x04
    1338:	fc 01       	movw	r30, r24
    133a:	86 8d       	ldd	r24, Z+30	; 0x1e
    133c:	8f 3f       	cpi	r24, 0xFF	; 255
    133e:	21 f4       	brne	.+8      	; 0x1348 <xQueueSemaphoreTake+0xe6>
    1340:	8b 81       	ldd	r24, Y+3	; 0x03
    1342:	9c 81       	ldd	r25, Y+4	; 0x04
    1344:	fc 01       	movw	r30, r24
    1346:	16 8e       	std	Z+30, r1	; 0x1e
    1348:	0f 90       	pop	r0
    134a:	0f be       	out	0x3f, r0	; 63
    134c:	9e 01       	movw	r18, r28
    134e:	24 5f       	subi	r18, 0xF4	; 244
    1350:	3f 4f       	sbci	r19, 0xFF	; 255
    1352:	ce 01       	movw	r24, r28
    1354:	07 96       	adiw	r24, 0x07	; 7
    1356:	b9 01       	movw	r22, r18
    1358:	0e 94 35 16 	call	0x2c6a	; 0x2c6a <xTaskCheckForTimeOut>
    135c:	88 23       	and	r24, r24
    135e:	09 f0       	breq	.+2      	; 0x1362 <xQueueSemaphoreTake+0x100>
    1360:	31 c0       	rjmp	.+98     	; 0x13c4 <xQueueSemaphoreTake+0x162>
    1362:	8b 81       	ldd	r24, Y+3	; 0x03
    1364:	9c 81       	ldd	r25, Y+4	; 0x04
    1366:	f8 d1       	rcall	.+1008   	; 0x1758 <prvIsQueueEmpty>
    1368:	88 23       	and	r24, r24
    136a:	31 f1       	breq	.+76     	; 0x13b8 <xQueueSemaphoreTake+0x156>
    136c:	8b 81       	ldd	r24, Y+3	; 0x03
    136e:	9c 81       	ldd	r25, Y+4	; 0x04
    1370:	fc 01       	movw	r30, r24
    1372:	80 81       	ld	r24, Z
    1374:	91 81       	ldd	r25, Z+1	; 0x01
    1376:	89 2b       	or	r24, r25
    1378:	69 f4       	brne	.+26     	; 0x1394 <xQueueSemaphoreTake+0x132>
    137a:	0f b6       	in	r0, 0x3f	; 63
    137c:	f8 94       	cli
    137e:	0f 92       	push	r0
    1380:	8b 81       	ldd	r24, Y+3	; 0x03
    1382:	9c 81       	ldd	r25, Y+4	; 0x04
    1384:	fc 01       	movw	r30, r24
    1386:	84 81       	ldd	r24, Z+4	; 0x04
    1388:	95 81       	ldd	r25, Z+5	; 0x05
    138a:	0e 94 9a 17 	call	0x2f34	; 0x2f34 <xTaskPriorityInherit>
    138e:	8a 83       	std	Y+2, r24	; 0x02
    1390:	0f 90       	pop	r0
    1392:	0f be       	out	0x3f, r0	; 63
    1394:	2c 85       	ldd	r18, Y+12	; 0x0c
    1396:	3d 85       	ldd	r19, Y+13	; 0x0d
    1398:	8b 81       	ldd	r24, Y+3	; 0x03
    139a:	9c 81       	ldd	r25, Y+4	; 0x04
    139c:	41 96       	adiw	r24, 0x11	; 17
    139e:	b9 01       	movw	r22, r18
    13a0:	0e 94 5d 15 	call	0x2aba	; 0x2aba <vTaskPlaceOnEventList>
    13a4:	8b 81       	ldd	r24, Y+3	; 0x03
    13a6:	9c 81       	ldd	r25, Y+4	; 0x04
    13a8:	79 d1       	rcall	.+754    	; 0x169c <prvUnlockQueue>
    13aa:	0e 94 20 13 	call	0x2640	; 0x2640 <xTaskResumeAll>
    13ae:	88 23       	and	r24, r24
    13b0:	09 f0       	breq	.+2      	; 0x13b4 <xQueueSemaphoreTake+0x152>
    13b2:	6b cf       	rjmp	.-298    	; 0x128a <xQueueSemaphoreTake+0x28>
    13b4:	50 db       	rcall	.-2400   	; 0xa56 <vPortYield>
    13b6:	69 cf       	rjmp	.-302    	; 0x128a <xQueueSemaphoreTake+0x28>
    13b8:	8b 81       	ldd	r24, Y+3	; 0x03
    13ba:	9c 81       	ldd	r25, Y+4	; 0x04
    13bc:	6f d1       	rcall	.+734    	; 0x169c <prvUnlockQueue>
    13be:	0e 94 20 13 	call	0x2640	; 0x2640 <xTaskResumeAll>
    13c2:	63 cf       	rjmp	.-314    	; 0x128a <xQueueSemaphoreTake+0x28>
    13c4:	8b 81       	ldd	r24, Y+3	; 0x03
    13c6:	9c 81       	ldd	r25, Y+4	; 0x04
    13c8:	69 d1       	rcall	.+722    	; 0x169c <prvUnlockQueue>
    13ca:	0e 94 20 13 	call	0x2640	; 0x2640 <xTaskResumeAll>
    13ce:	8b 81       	ldd	r24, Y+3	; 0x03
    13d0:	9c 81       	ldd	r25, Y+4	; 0x04
    13d2:	c2 d1       	rcall	.+900    	; 0x1758 <prvIsQueueEmpty>
    13d4:	88 23       	and	r24, r24
    13d6:	09 f4       	brne	.+2      	; 0x13da <xQueueSemaphoreTake+0x178>
    13d8:	58 cf       	rjmp	.-336    	; 0x128a <xQueueSemaphoreTake+0x28>
    13da:	8a 81       	ldd	r24, Y+2	; 0x02
    13dc:	88 23       	and	r24, r24
    13de:	89 f0       	breq	.+34     	; 0x1402 <xQueueSemaphoreTake+0x1a0>
    13e0:	0f b6       	in	r0, 0x3f	; 63
    13e2:	f8 94       	cli
    13e4:	0f 92       	push	r0
    13e6:	8b 81       	ldd	r24, Y+3	; 0x03
    13e8:	9c 81       	ldd	r25, Y+4	; 0x04
    13ea:	15 d0       	rcall	.+42     	; 0x1416 <prvGetDisinheritPriorityAfterTimeout>
    13ec:	8e 83       	std	Y+6, r24	; 0x06
    13ee:	8b 81       	ldd	r24, Y+3	; 0x03
    13f0:	9c 81       	ldd	r25, Y+4	; 0x04
    13f2:	fc 01       	movw	r30, r24
    13f4:	84 81       	ldd	r24, Z+4	; 0x04
    13f6:	95 81       	ldd	r25, Z+5	; 0x05
    13f8:	6e 81       	ldd	r22, Y+6	; 0x06
    13fa:	0e 94 c3 18 	call	0x3186	; 0x3186 <vTaskPriorityDisinheritAfterTimeout>
    13fe:	0f 90       	pop	r0
    1400:	0f be       	out	0x3f, r0	; 63
    1402:	80 e0       	ldi	r24, 0x00	; 0
    1404:	2d 96       	adiw	r28, 0x0d	; 13
    1406:	0f b6       	in	r0, 0x3f	; 63
    1408:	f8 94       	cli
    140a:	de bf       	out	0x3e, r29	; 62
    140c:	0f be       	out	0x3f, r0	; 63
    140e:	cd bf       	out	0x3d, r28	; 61
    1410:	df 91       	pop	r29
    1412:	cf 91       	pop	r28
    1414:	08 95       	ret

00001416 <prvGetDisinheritPriorityAfterTimeout>:
    1416:	cf 93       	push	r28
    1418:	df 93       	push	r29
    141a:	00 d0       	rcall	.+0      	; 0x141c <prvGetDisinheritPriorityAfterTimeout+0x6>
    141c:	cd b7       	in	r28, 0x3d	; 61
    141e:	de b7       	in	r29, 0x3e	; 62
    1420:	9b 83       	std	Y+3, r25	; 0x03
    1422:	8a 83       	std	Y+2, r24	; 0x02
    1424:	8a 81       	ldd	r24, Y+2	; 0x02
    1426:	9b 81       	ldd	r25, Y+3	; 0x03
    1428:	fc 01       	movw	r30, r24
    142a:	81 89       	ldd	r24, Z+17	; 0x11
    142c:	88 23       	and	r24, r24
    142e:	69 f0       	breq	.+26     	; 0x144a <prvGetDisinheritPriorityAfterTimeout+0x34>
    1430:	8a 81       	ldd	r24, Y+2	; 0x02
    1432:	9b 81       	ldd	r25, Y+3	; 0x03
    1434:	fc 01       	movw	r30, r24
    1436:	86 89       	ldd	r24, Z+22	; 0x16
    1438:	97 89       	ldd	r25, Z+23	; 0x17
    143a:	fc 01       	movw	r30, r24
    143c:	80 81       	ld	r24, Z
    143e:	91 81       	ldd	r25, Z+1	; 0x01
    1440:	98 2f       	mov	r25, r24
    1442:	84 e0       	ldi	r24, 0x04	; 4
    1444:	89 1b       	sub	r24, r25
    1446:	89 83       	std	Y+1, r24	; 0x01
    1448:	01 c0       	rjmp	.+2      	; 0x144c <prvGetDisinheritPriorityAfterTimeout+0x36>
    144a:	19 82       	std	Y+1, r1	; 0x01
    144c:	89 81       	ldd	r24, Y+1	; 0x01
    144e:	0f 90       	pop	r0
    1450:	0f 90       	pop	r0
    1452:	0f 90       	pop	r0
    1454:	df 91       	pop	r29
    1456:	cf 91       	pop	r28
    1458:	08 95       	ret

0000145a <prvCopyDataToQueue>:
    145a:	cf 93       	push	r28
    145c:	df 93       	push	r29
    145e:	cd b7       	in	r28, 0x3d	; 61
    1460:	de b7       	in	r29, 0x3e	; 62
    1462:	27 97       	sbiw	r28, 0x07	; 7
    1464:	0f b6       	in	r0, 0x3f	; 63
    1466:	f8 94       	cli
    1468:	de bf       	out	0x3e, r29	; 62
    146a:	0f be       	out	0x3f, r0	; 63
    146c:	cd bf       	out	0x3d, r28	; 61
    146e:	9c 83       	std	Y+4, r25	; 0x04
    1470:	8b 83       	std	Y+3, r24	; 0x03
    1472:	7e 83       	std	Y+6, r23	; 0x06
    1474:	6d 83       	std	Y+5, r22	; 0x05
    1476:	4f 83       	std	Y+7, r20	; 0x07
    1478:	19 82       	std	Y+1, r1	; 0x01
    147a:	8b 81       	ldd	r24, Y+3	; 0x03
    147c:	9c 81       	ldd	r25, Y+4	; 0x04
    147e:	fc 01       	movw	r30, r24
    1480:	82 8d       	ldd	r24, Z+26	; 0x1a
    1482:	8a 83       	std	Y+2, r24	; 0x02
    1484:	8b 81       	ldd	r24, Y+3	; 0x03
    1486:	9c 81       	ldd	r25, Y+4	; 0x04
    1488:	fc 01       	movw	r30, r24
    148a:	84 8d       	ldd	r24, Z+28	; 0x1c
    148c:	88 23       	and	r24, r24
    148e:	b1 f4       	brne	.+44     	; 0x14bc <prvCopyDataToQueue+0x62>
    1490:	8b 81       	ldd	r24, Y+3	; 0x03
    1492:	9c 81       	ldd	r25, Y+4	; 0x04
    1494:	fc 01       	movw	r30, r24
    1496:	80 81       	ld	r24, Z
    1498:	91 81       	ldd	r25, Z+1	; 0x01
    149a:	89 2b       	or	r24, r25
    149c:	09 f0       	breq	.+2      	; 0x14a0 <prvCopyDataToQueue+0x46>
    149e:	9c c0       	rjmp	.+312    	; 0x15d8 <prvCopyDataToQueue+0x17e>
    14a0:	8b 81       	ldd	r24, Y+3	; 0x03
    14a2:	9c 81       	ldd	r25, Y+4	; 0x04
    14a4:	fc 01       	movw	r30, r24
    14a6:	84 81       	ldd	r24, Z+4	; 0x04
    14a8:	95 81       	ldd	r25, Z+5	; 0x05
    14aa:	0e 94 46 18 	call	0x308c	; 0x308c <xTaskPriorityDisinherit>
    14ae:	89 83       	std	Y+1, r24	; 0x01
    14b0:	8b 81       	ldd	r24, Y+3	; 0x03
    14b2:	9c 81       	ldd	r25, Y+4	; 0x04
    14b4:	fc 01       	movw	r30, r24
    14b6:	15 82       	std	Z+5, r1	; 0x05
    14b8:	14 82       	std	Z+4, r1	; 0x04
    14ba:	8e c0       	rjmp	.+284    	; 0x15d8 <prvCopyDataToQueue+0x17e>
    14bc:	8f 81       	ldd	r24, Y+7	; 0x07
    14be:	88 23       	and	r24, r24
    14c0:	d9 f5       	brne	.+118    	; 0x1538 <prvCopyDataToQueue+0xde>
    14c2:	8b 81       	ldd	r24, Y+3	; 0x03
    14c4:	9c 81       	ldd	r25, Y+4	; 0x04
    14c6:	fc 01       	movw	r30, r24
    14c8:	84 8d       	ldd	r24, Z+28	; 0x1c
    14ca:	48 2f       	mov	r20, r24
    14cc:	50 e0       	ldi	r21, 0x00	; 0
    14ce:	8b 81       	ldd	r24, Y+3	; 0x03
    14d0:	9c 81       	ldd	r25, Y+4	; 0x04
    14d2:	fc 01       	movw	r30, r24
    14d4:	82 81       	ldd	r24, Z+2	; 0x02
    14d6:	93 81       	ldd	r25, Z+3	; 0x03
    14d8:	2d 81       	ldd	r18, Y+5	; 0x05
    14da:	3e 81       	ldd	r19, Y+6	; 0x06
    14dc:	b9 01       	movw	r22, r18
    14de:	0e 94 bd 36 	call	0x6d7a	; 0x6d7a <memcpy>
    14e2:	8b 81       	ldd	r24, Y+3	; 0x03
    14e4:	9c 81       	ldd	r25, Y+4	; 0x04
    14e6:	fc 01       	movw	r30, r24
    14e8:	22 81       	ldd	r18, Z+2	; 0x02
    14ea:	33 81       	ldd	r19, Z+3	; 0x03
    14ec:	8b 81       	ldd	r24, Y+3	; 0x03
    14ee:	9c 81       	ldd	r25, Y+4	; 0x04
    14f0:	fc 01       	movw	r30, r24
    14f2:	84 8d       	ldd	r24, Z+28	; 0x1c
    14f4:	88 2f       	mov	r24, r24
    14f6:	90 e0       	ldi	r25, 0x00	; 0
    14f8:	28 0f       	add	r18, r24
    14fa:	39 1f       	adc	r19, r25
    14fc:	8b 81       	ldd	r24, Y+3	; 0x03
    14fe:	9c 81       	ldd	r25, Y+4	; 0x04
    1500:	fc 01       	movw	r30, r24
    1502:	33 83       	std	Z+3, r19	; 0x03
    1504:	22 83       	std	Z+2, r18	; 0x02
    1506:	8b 81       	ldd	r24, Y+3	; 0x03
    1508:	9c 81       	ldd	r25, Y+4	; 0x04
    150a:	fc 01       	movw	r30, r24
    150c:	22 81       	ldd	r18, Z+2	; 0x02
    150e:	33 81       	ldd	r19, Z+3	; 0x03
    1510:	8b 81       	ldd	r24, Y+3	; 0x03
    1512:	9c 81       	ldd	r25, Y+4	; 0x04
    1514:	fc 01       	movw	r30, r24
    1516:	84 81       	ldd	r24, Z+4	; 0x04
    1518:	95 81       	ldd	r25, Z+5	; 0x05
    151a:	28 17       	cp	r18, r24
    151c:	39 07       	cpc	r19, r25
    151e:	08 f4       	brcc	.+2      	; 0x1522 <prvCopyDataToQueue+0xc8>
    1520:	5b c0       	rjmp	.+182    	; 0x15d8 <prvCopyDataToQueue+0x17e>
    1522:	8b 81       	ldd	r24, Y+3	; 0x03
    1524:	9c 81       	ldd	r25, Y+4	; 0x04
    1526:	fc 01       	movw	r30, r24
    1528:	20 81       	ld	r18, Z
    152a:	31 81       	ldd	r19, Z+1	; 0x01
    152c:	8b 81       	ldd	r24, Y+3	; 0x03
    152e:	9c 81       	ldd	r25, Y+4	; 0x04
    1530:	fc 01       	movw	r30, r24
    1532:	33 83       	std	Z+3, r19	; 0x03
    1534:	22 83       	std	Z+2, r18	; 0x02
    1536:	50 c0       	rjmp	.+160    	; 0x15d8 <prvCopyDataToQueue+0x17e>
    1538:	8b 81       	ldd	r24, Y+3	; 0x03
    153a:	9c 81       	ldd	r25, Y+4	; 0x04
    153c:	fc 01       	movw	r30, r24
    153e:	84 8d       	ldd	r24, Z+28	; 0x1c
    1540:	48 2f       	mov	r20, r24
    1542:	50 e0       	ldi	r21, 0x00	; 0
    1544:	8b 81       	ldd	r24, Y+3	; 0x03
    1546:	9c 81       	ldd	r25, Y+4	; 0x04
    1548:	fc 01       	movw	r30, r24
    154a:	86 81       	ldd	r24, Z+6	; 0x06
    154c:	97 81       	ldd	r25, Z+7	; 0x07
    154e:	2d 81       	ldd	r18, Y+5	; 0x05
    1550:	3e 81       	ldd	r19, Y+6	; 0x06
    1552:	b9 01       	movw	r22, r18
    1554:	0e 94 bd 36 	call	0x6d7a	; 0x6d7a <memcpy>
    1558:	8b 81       	ldd	r24, Y+3	; 0x03
    155a:	9c 81       	ldd	r25, Y+4	; 0x04
    155c:	fc 01       	movw	r30, r24
    155e:	26 81       	ldd	r18, Z+6	; 0x06
    1560:	37 81       	ldd	r19, Z+7	; 0x07
    1562:	8b 81       	ldd	r24, Y+3	; 0x03
    1564:	9c 81       	ldd	r25, Y+4	; 0x04
    1566:	fc 01       	movw	r30, r24
    1568:	84 8d       	ldd	r24, Z+28	; 0x1c
    156a:	88 2f       	mov	r24, r24
    156c:	90 e0       	ldi	r25, 0x00	; 0
    156e:	91 95       	neg	r25
    1570:	81 95       	neg	r24
    1572:	91 09       	sbc	r25, r1
    1574:	28 0f       	add	r18, r24
    1576:	39 1f       	adc	r19, r25
    1578:	8b 81       	ldd	r24, Y+3	; 0x03
    157a:	9c 81       	ldd	r25, Y+4	; 0x04
    157c:	fc 01       	movw	r30, r24
    157e:	37 83       	std	Z+7, r19	; 0x07
    1580:	26 83       	std	Z+6, r18	; 0x06
    1582:	8b 81       	ldd	r24, Y+3	; 0x03
    1584:	9c 81       	ldd	r25, Y+4	; 0x04
    1586:	fc 01       	movw	r30, r24
    1588:	26 81       	ldd	r18, Z+6	; 0x06
    158a:	37 81       	ldd	r19, Z+7	; 0x07
    158c:	8b 81       	ldd	r24, Y+3	; 0x03
    158e:	9c 81       	ldd	r25, Y+4	; 0x04
    1590:	fc 01       	movw	r30, r24
    1592:	80 81       	ld	r24, Z
    1594:	91 81       	ldd	r25, Z+1	; 0x01
    1596:	28 17       	cp	r18, r24
    1598:	39 07       	cpc	r19, r25
    159a:	a8 f4       	brcc	.+42     	; 0x15c6 <prvCopyDataToQueue+0x16c>
    159c:	8b 81       	ldd	r24, Y+3	; 0x03
    159e:	9c 81       	ldd	r25, Y+4	; 0x04
    15a0:	fc 01       	movw	r30, r24
    15a2:	24 81       	ldd	r18, Z+4	; 0x04
    15a4:	35 81       	ldd	r19, Z+5	; 0x05
    15a6:	8b 81       	ldd	r24, Y+3	; 0x03
    15a8:	9c 81       	ldd	r25, Y+4	; 0x04
    15aa:	fc 01       	movw	r30, r24
    15ac:	84 8d       	ldd	r24, Z+28	; 0x1c
    15ae:	88 2f       	mov	r24, r24
    15b0:	90 e0       	ldi	r25, 0x00	; 0
    15b2:	91 95       	neg	r25
    15b4:	81 95       	neg	r24
    15b6:	91 09       	sbc	r25, r1
    15b8:	28 0f       	add	r18, r24
    15ba:	39 1f       	adc	r19, r25
    15bc:	8b 81       	ldd	r24, Y+3	; 0x03
    15be:	9c 81       	ldd	r25, Y+4	; 0x04
    15c0:	fc 01       	movw	r30, r24
    15c2:	37 83       	std	Z+7, r19	; 0x07
    15c4:	26 83       	std	Z+6, r18	; 0x06
    15c6:	8f 81       	ldd	r24, Y+7	; 0x07
    15c8:	82 30       	cpi	r24, 0x02	; 2
    15ca:	31 f4       	brne	.+12     	; 0x15d8 <prvCopyDataToQueue+0x17e>
    15cc:	8a 81       	ldd	r24, Y+2	; 0x02
    15ce:	88 23       	and	r24, r24
    15d0:	19 f0       	breq	.+6      	; 0x15d8 <prvCopyDataToQueue+0x17e>
    15d2:	8a 81       	ldd	r24, Y+2	; 0x02
    15d4:	81 50       	subi	r24, 0x01	; 1
    15d6:	8a 83       	std	Y+2, r24	; 0x02
    15d8:	8a 81       	ldd	r24, Y+2	; 0x02
    15da:	21 e0       	ldi	r18, 0x01	; 1
    15dc:	28 0f       	add	r18, r24
    15de:	8b 81       	ldd	r24, Y+3	; 0x03
    15e0:	9c 81       	ldd	r25, Y+4	; 0x04
    15e2:	fc 01       	movw	r30, r24
    15e4:	22 8f       	std	Z+26, r18	; 0x1a
    15e6:	89 81       	ldd	r24, Y+1	; 0x01
    15e8:	27 96       	adiw	r28, 0x07	; 7
    15ea:	0f b6       	in	r0, 0x3f	; 63
    15ec:	f8 94       	cli
    15ee:	de bf       	out	0x3e, r29	; 62
    15f0:	0f be       	out	0x3f, r0	; 63
    15f2:	cd bf       	out	0x3d, r28	; 61
    15f4:	df 91       	pop	r29
    15f6:	cf 91       	pop	r28
    15f8:	08 95       	ret

000015fa <prvCopyDataFromQueue>:
    15fa:	cf 93       	push	r28
    15fc:	df 93       	push	r29
    15fe:	00 d0       	rcall	.+0      	; 0x1600 <prvCopyDataFromQueue+0x6>
    1600:	1f 92       	push	r1
    1602:	cd b7       	in	r28, 0x3d	; 61
    1604:	de b7       	in	r29, 0x3e	; 62
    1606:	9a 83       	std	Y+2, r25	; 0x02
    1608:	89 83       	std	Y+1, r24	; 0x01
    160a:	7c 83       	std	Y+4, r23	; 0x04
    160c:	6b 83       	std	Y+3, r22	; 0x03
    160e:	89 81       	ldd	r24, Y+1	; 0x01
    1610:	9a 81       	ldd	r25, Y+2	; 0x02
    1612:	fc 01       	movw	r30, r24
    1614:	84 8d       	ldd	r24, Z+28	; 0x1c
    1616:	88 23       	and	r24, r24
    1618:	c9 f1       	breq	.+114    	; 0x168c <prvCopyDataFromQueue+0x92>
    161a:	89 81       	ldd	r24, Y+1	; 0x01
    161c:	9a 81       	ldd	r25, Y+2	; 0x02
    161e:	fc 01       	movw	r30, r24
    1620:	26 81       	ldd	r18, Z+6	; 0x06
    1622:	37 81       	ldd	r19, Z+7	; 0x07
    1624:	89 81       	ldd	r24, Y+1	; 0x01
    1626:	9a 81       	ldd	r25, Y+2	; 0x02
    1628:	fc 01       	movw	r30, r24
    162a:	84 8d       	ldd	r24, Z+28	; 0x1c
    162c:	88 2f       	mov	r24, r24
    162e:	90 e0       	ldi	r25, 0x00	; 0
    1630:	28 0f       	add	r18, r24
    1632:	39 1f       	adc	r19, r25
    1634:	89 81       	ldd	r24, Y+1	; 0x01
    1636:	9a 81       	ldd	r25, Y+2	; 0x02
    1638:	fc 01       	movw	r30, r24
    163a:	37 83       	std	Z+7, r19	; 0x07
    163c:	26 83       	std	Z+6, r18	; 0x06
    163e:	89 81       	ldd	r24, Y+1	; 0x01
    1640:	9a 81       	ldd	r25, Y+2	; 0x02
    1642:	fc 01       	movw	r30, r24
    1644:	26 81       	ldd	r18, Z+6	; 0x06
    1646:	37 81       	ldd	r19, Z+7	; 0x07
    1648:	89 81       	ldd	r24, Y+1	; 0x01
    164a:	9a 81       	ldd	r25, Y+2	; 0x02
    164c:	fc 01       	movw	r30, r24
    164e:	84 81       	ldd	r24, Z+4	; 0x04
    1650:	95 81       	ldd	r25, Z+5	; 0x05
    1652:	28 17       	cp	r18, r24
    1654:	39 07       	cpc	r19, r25
    1656:	50 f0       	brcs	.+20     	; 0x166c <prvCopyDataFromQueue+0x72>
    1658:	89 81       	ldd	r24, Y+1	; 0x01
    165a:	9a 81       	ldd	r25, Y+2	; 0x02
    165c:	fc 01       	movw	r30, r24
    165e:	20 81       	ld	r18, Z
    1660:	31 81       	ldd	r19, Z+1	; 0x01
    1662:	89 81       	ldd	r24, Y+1	; 0x01
    1664:	9a 81       	ldd	r25, Y+2	; 0x02
    1666:	fc 01       	movw	r30, r24
    1668:	37 83       	std	Z+7, r19	; 0x07
    166a:	26 83       	std	Z+6, r18	; 0x06
    166c:	89 81       	ldd	r24, Y+1	; 0x01
    166e:	9a 81       	ldd	r25, Y+2	; 0x02
    1670:	fc 01       	movw	r30, r24
    1672:	84 8d       	ldd	r24, Z+28	; 0x1c
    1674:	48 2f       	mov	r20, r24
    1676:	50 e0       	ldi	r21, 0x00	; 0
    1678:	89 81       	ldd	r24, Y+1	; 0x01
    167a:	9a 81       	ldd	r25, Y+2	; 0x02
    167c:	fc 01       	movw	r30, r24
    167e:	26 81       	ldd	r18, Z+6	; 0x06
    1680:	37 81       	ldd	r19, Z+7	; 0x07
    1682:	8b 81       	ldd	r24, Y+3	; 0x03
    1684:	9c 81       	ldd	r25, Y+4	; 0x04
    1686:	b9 01       	movw	r22, r18
    1688:	0e 94 bd 36 	call	0x6d7a	; 0x6d7a <memcpy>
    168c:	00 00       	nop
    168e:	0f 90       	pop	r0
    1690:	0f 90       	pop	r0
    1692:	0f 90       	pop	r0
    1694:	0f 90       	pop	r0
    1696:	df 91       	pop	r29
    1698:	cf 91       	pop	r28
    169a:	08 95       	ret

0000169c <prvUnlockQueue>:
    169c:	cf 93       	push	r28
    169e:	df 93       	push	r29
    16a0:	00 d0       	rcall	.+0      	; 0x16a2 <prvUnlockQueue+0x6>
    16a2:	1f 92       	push	r1
    16a4:	cd b7       	in	r28, 0x3d	; 61
    16a6:	de b7       	in	r29, 0x3e	; 62
    16a8:	9c 83       	std	Y+4, r25	; 0x04
    16aa:	8b 83       	std	Y+3, r24	; 0x03
    16ac:	0f b6       	in	r0, 0x3f	; 63
    16ae:	f8 94       	cli
    16b0:	0f 92       	push	r0
    16b2:	8b 81       	ldd	r24, Y+3	; 0x03
    16b4:	9c 81       	ldd	r25, Y+4	; 0x04
    16b6:	fc 01       	movw	r30, r24
    16b8:	86 8d       	ldd	r24, Z+30	; 0x1e
    16ba:	89 83       	std	Y+1, r24	; 0x01
    16bc:	12 c0       	rjmp	.+36     	; 0x16e2 <prvUnlockQueue+0x46>
    16be:	8b 81       	ldd	r24, Y+3	; 0x03
    16c0:	9c 81       	ldd	r25, Y+4	; 0x04
    16c2:	fc 01       	movw	r30, r24
    16c4:	81 89       	ldd	r24, Z+17	; 0x11
    16c6:	88 23       	and	r24, r24
    16c8:	81 f0       	breq	.+32     	; 0x16ea <prvUnlockQueue+0x4e>
    16ca:	8b 81       	ldd	r24, Y+3	; 0x03
    16cc:	9c 81       	ldd	r25, Y+4	; 0x04
    16ce:	41 96       	adiw	r24, 0x11	; 17
    16d0:	0e 94 ab 15 	call	0x2b56	; 0x2b56 <xTaskRemoveFromEventList>
    16d4:	88 23       	and	r24, r24
    16d6:	11 f0       	breq	.+4      	; 0x16dc <prvUnlockQueue+0x40>
    16d8:	0e 94 a7 16 	call	0x2d4e	; 0x2d4e <vTaskMissedYield>
    16dc:	89 81       	ldd	r24, Y+1	; 0x01
    16de:	81 50       	subi	r24, 0x01	; 1
    16e0:	89 83       	std	Y+1, r24	; 0x01
    16e2:	89 81       	ldd	r24, Y+1	; 0x01
    16e4:	18 16       	cp	r1, r24
    16e6:	5c f3       	brlt	.-42     	; 0x16be <prvUnlockQueue+0x22>
    16e8:	01 c0       	rjmp	.+2      	; 0x16ec <prvUnlockQueue+0x50>
    16ea:	00 00       	nop
    16ec:	8b 81       	ldd	r24, Y+3	; 0x03
    16ee:	9c 81       	ldd	r25, Y+4	; 0x04
    16f0:	2f ef       	ldi	r18, 0xFF	; 255
    16f2:	fc 01       	movw	r30, r24
    16f4:	26 8f       	std	Z+30, r18	; 0x1e
    16f6:	0f 90       	pop	r0
    16f8:	0f be       	out	0x3f, r0	; 63
    16fa:	0f b6       	in	r0, 0x3f	; 63
    16fc:	f8 94       	cli
    16fe:	0f 92       	push	r0
    1700:	8b 81       	ldd	r24, Y+3	; 0x03
    1702:	9c 81       	ldd	r25, Y+4	; 0x04
    1704:	fc 01       	movw	r30, r24
    1706:	85 8d       	ldd	r24, Z+29	; 0x1d
    1708:	8a 83       	std	Y+2, r24	; 0x02
    170a:	12 c0       	rjmp	.+36     	; 0x1730 <prvUnlockQueue+0x94>
    170c:	8b 81       	ldd	r24, Y+3	; 0x03
    170e:	9c 81       	ldd	r25, Y+4	; 0x04
    1710:	fc 01       	movw	r30, r24
    1712:	80 85       	ldd	r24, Z+8	; 0x08
    1714:	88 23       	and	r24, r24
    1716:	81 f0       	breq	.+32     	; 0x1738 <prvUnlockQueue+0x9c>
    1718:	8b 81       	ldd	r24, Y+3	; 0x03
    171a:	9c 81       	ldd	r25, Y+4	; 0x04
    171c:	08 96       	adiw	r24, 0x08	; 8
    171e:	0e 94 ab 15 	call	0x2b56	; 0x2b56 <xTaskRemoveFromEventList>
    1722:	88 23       	and	r24, r24
    1724:	11 f0       	breq	.+4      	; 0x172a <prvUnlockQueue+0x8e>
    1726:	0e 94 a7 16 	call	0x2d4e	; 0x2d4e <vTaskMissedYield>
    172a:	8a 81       	ldd	r24, Y+2	; 0x02
    172c:	81 50       	subi	r24, 0x01	; 1
    172e:	8a 83       	std	Y+2, r24	; 0x02
    1730:	8a 81       	ldd	r24, Y+2	; 0x02
    1732:	18 16       	cp	r1, r24
    1734:	5c f3       	brlt	.-42     	; 0x170c <prvUnlockQueue+0x70>
    1736:	01 c0       	rjmp	.+2      	; 0x173a <prvUnlockQueue+0x9e>
    1738:	00 00       	nop
    173a:	8b 81       	ldd	r24, Y+3	; 0x03
    173c:	9c 81       	ldd	r25, Y+4	; 0x04
    173e:	2f ef       	ldi	r18, 0xFF	; 255
    1740:	fc 01       	movw	r30, r24
    1742:	25 8f       	std	Z+29, r18	; 0x1d
    1744:	0f 90       	pop	r0
    1746:	0f be       	out	0x3f, r0	; 63
    1748:	00 00       	nop
    174a:	0f 90       	pop	r0
    174c:	0f 90       	pop	r0
    174e:	0f 90       	pop	r0
    1750:	0f 90       	pop	r0
    1752:	df 91       	pop	r29
    1754:	cf 91       	pop	r28
    1756:	08 95       	ret

00001758 <prvIsQueueEmpty>:
    1758:	cf 93       	push	r28
    175a:	df 93       	push	r29
    175c:	00 d0       	rcall	.+0      	; 0x175e <prvIsQueueEmpty+0x6>
    175e:	cd b7       	in	r28, 0x3d	; 61
    1760:	de b7       	in	r29, 0x3e	; 62
    1762:	9b 83       	std	Y+3, r25	; 0x03
    1764:	8a 83       	std	Y+2, r24	; 0x02
    1766:	0f b6       	in	r0, 0x3f	; 63
    1768:	f8 94       	cli
    176a:	0f 92       	push	r0
    176c:	8a 81       	ldd	r24, Y+2	; 0x02
    176e:	9b 81       	ldd	r25, Y+3	; 0x03
    1770:	fc 01       	movw	r30, r24
    1772:	82 8d       	ldd	r24, Z+26	; 0x1a
    1774:	88 23       	and	r24, r24
    1776:	19 f4       	brne	.+6      	; 0x177e <prvIsQueueEmpty+0x26>
    1778:	81 e0       	ldi	r24, 0x01	; 1
    177a:	89 83       	std	Y+1, r24	; 0x01
    177c:	01 c0       	rjmp	.+2      	; 0x1780 <prvIsQueueEmpty+0x28>
    177e:	19 82       	std	Y+1, r1	; 0x01
    1780:	0f 90       	pop	r0
    1782:	0f be       	out	0x3f, r0	; 63
    1784:	89 81       	ldd	r24, Y+1	; 0x01
    1786:	0f 90       	pop	r0
    1788:	0f 90       	pop	r0
    178a:	0f 90       	pop	r0
    178c:	df 91       	pop	r29
    178e:	cf 91       	pop	r28
    1790:	08 95       	ret

00001792 <prvIsQueueFull>:
    1792:	cf 93       	push	r28
    1794:	df 93       	push	r29
    1796:	00 d0       	rcall	.+0      	; 0x1798 <prvIsQueueFull+0x6>
    1798:	cd b7       	in	r28, 0x3d	; 61
    179a:	de b7       	in	r29, 0x3e	; 62
    179c:	9b 83       	std	Y+3, r25	; 0x03
    179e:	8a 83       	std	Y+2, r24	; 0x02
    17a0:	0f b6       	in	r0, 0x3f	; 63
    17a2:	f8 94       	cli
    17a4:	0f 92       	push	r0
    17a6:	8a 81       	ldd	r24, Y+2	; 0x02
    17a8:	9b 81       	ldd	r25, Y+3	; 0x03
    17aa:	fc 01       	movw	r30, r24
    17ac:	22 8d       	ldd	r18, Z+26	; 0x1a
    17ae:	8a 81       	ldd	r24, Y+2	; 0x02
    17b0:	9b 81       	ldd	r25, Y+3	; 0x03
    17b2:	fc 01       	movw	r30, r24
    17b4:	83 8d       	ldd	r24, Z+27	; 0x1b
    17b6:	28 17       	cp	r18, r24
    17b8:	19 f4       	brne	.+6      	; 0x17c0 <prvIsQueueFull+0x2e>
    17ba:	81 e0       	ldi	r24, 0x01	; 1
    17bc:	89 83       	std	Y+1, r24	; 0x01
    17be:	01 c0       	rjmp	.+2      	; 0x17c2 <prvIsQueueFull+0x30>
    17c0:	19 82       	std	Y+1, r1	; 0x01
    17c2:	0f 90       	pop	r0
    17c4:	0f be       	out	0x3f, r0	; 63
    17c6:	89 81       	ldd	r24, Y+1	; 0x01
    17c8:	0f 90       	pop	r0
    17ca:	0f 90       	pop	r0
    17cc:	0f 90       	pop	r0
    17ce:	df 91       	pop	r29
    17d0:	cf 91       	pop	r28
    17d2:	08 95       	ret

000017d4 <vQueueWaitForMessageRestricted>:
/*-----------------------------------------------------------*/

#if ( configUSE_TIMERS == 1 )

    void vQueueWaitForMessageRestricted( QueueHandle_t xQueue, TickType_t xTicksToWait, const BaseType_t xWaitIndefinitely )
    {
    17d4:	cf 93       	push	r28
    17d6:	df 93       	push	r29
    17d8:	cd b7       	in	r28, 0x3d	; 61
    17da:	de b7       	in	r29, 0x3e	; 62
    17dc:	27 97       	sbiw	r28, 0x07	; 7
    17de:	0f b6       	in	r0, 0x3f	; 63
    17e0:	f8 94       	cli
    17e2:	de bf       	out	0x3e, r29	; 62
    17e4:	0f be       	out	0x3f, r0	; 63
    17e6:	cd bf       	out	0x3d, r28	; 61
    17e8:	9c 83       	std	Y+4, r25	; 0x04
    17ea:	8b 83       	std	Y+3, r24	; 0x03
    17ec:	7e 83       	std	Y+6, r23	; 0x06
    17ee:	6d 83       	std	Y+5, r22	; 0x05
    17f0:	4f 83       	std	Y+7, r20	; 0x07
    Queue_t * const pxQueue = xQueue;
    17f2:	8b 81       	ldd	r24, Y+3	; 0x03
    17f4:	9c 81       	ldd	r25, Y+4	; 0x04
    17f6:	9a 83       	std	Y+2, r25	; 0x02
    17f8:	89 83       	std	Y+1, r24	; 0x01
        will not actually cause the task to block, just place it on a blocked
        list.  It will not block until the scheduler is unlocked - at which
        time a yield will be performed.  If an item is added to the queue while
        the queue is locked, and the calling task blocks on the queue, then the
        calling task will be immediately unblocked when the queue is unlocked. */
        prvLockQueue( pxQueue );
    17fa:	0f b6       	in	r0, 0x3f	; 63
    17fc:	f8 94       	cli
    17fe:	0f 92       	push	r0
    1800:	89 81       	ldd	r24, Y+1	; 0x01
    1802:	9a 81       	ldd	r25, Y+2	; 0x02
    1804:	fc 01       	movw	r30, r24
    1806:	85 8d       	ldd	r24, Z+29	; 0x1d
    1808:	8f 3f       	cpi	r24, 0xFF	; 255
    180a:	21 f4       	brne	.+8      	; 0x1814 <vQueueWaitForMessageRestricted+0x40>
    180c:	89 81       	ldd	r24, Y+1	; 0x01
    180e:	9a 81       	ldd	r25, Y+2	; 0x02
    1810:	fc 01       	movw	r30, r24
    1812:	15 8e       	std	Z+29, r1	; 0x1d
    1814:	89 81       	ldd	r24, Y+1	; 0x01
    1816:	9a 81       	ldd	r25, Y+2	; 0x02
    1818:	fc 01       	movw	r30, r24
    181a:	86 8d       	ldd	r24, Z+30	; 0x1e
    181c:	8f 3f       	cpi	r24, 0xFF	; 255
    181e:	21 f4       	brne	.+8      	; 0x1828 <vQueueWaitForMessageRestricted+0x54>
    1820:	89 81       	ldd	r24, Y+1	; 0x01
    1822:	9a 81       	ldd	r25, Y+2	; 0x02
    1824:	fc 01       	movw	r30, r24
    1826:	16 8e       	std	Z+30, r1	; 0x1e
    1828:	0f 90       	pop	r0
    182a:	0f be       	out	0x3f, r0	; 63
        if( pxQueue->uxMessagesWaiting == ( UBaseType_t ) 0U )
    182c:	89 81       	ldd	r24, Y+1	; 0x01
    182e:	9a 81       	ldd	r25, Y+2	; 0x02
    1830:	fc 01       	movw	r30, r24
    1832:	82 8d       	ldd	r24, Z+26	; 0x1a
    1834:	88 23       	and	r24, r24
    1836:	49 f4       	brne	.+18     	; 0x184a <vQueueWaitForMessageRestricted+0x76>
        {
            /* There is nothing in the queue, block for the specified period. */
            vTaskPlaceOnEventListRestricted( &( pxQueue->xTasksWaitingToReceive ), xTicksToWait, xWaitIndefinitely );
    1838:	89 81       	ldd	r24, Y+1	; 0x01
    183a:	9a 81       	ldd	r25, Y+2	; 0x02
    183c:	41 96       	adiw	r24, 0x11	; 17
    183e:	2d 81       	ldd	r18, Y+5	; 0x05
    1840:	3e 81       	ldd	r19, Y+6	; 0x06
    1842:	4f 81       	ldd	r20, Y+7	; 0x07
    1844:	b9 01       	movw	r22, r18
    1846:	0e 94 7f 15 	call	0x2afe	; 0x2afe <vTaskPlaceOnEventListRestricted>
        }
        else
        {
            mtCOVERAGE_TEST_MARKER();
        }
        prvUnlockQueue( pxQueue );
    184a:	89 81       	ldd	r24, Y+1	; 0x01
    184c:	9a 81       	ldd	r25, Y+2	; 0x02
    184e:	26 df       	rcall	.-436    	; 0x169c <prvUnlockQueue>
    }
    1850:	00 00       	nop
    1852:	27 96       	adiw	r28, 0x07	; 7
    1854:	0f b6       	in	r0, 0x3f	; 63
    1856:	f8 94       	cli
    1858:	de bf       	out	0x3e, r29	; 62
    185a:	0f be       	out	0x3f, r0	; 63
    185c:	cd bf       	out	0x3d, r28	; 61
    185e:	df 91       	pop	r29
    1860:	cf 91       	pop	r28
    1862:	08 95       	ret

00001864 <xStreamBufferGenericCreate>:
        }
    }
    portCLEAR_INTERRUPT_MASK_FROM_ISR( uxSavedInterruptStatus );

    return xReturn;
}
    1864:	0f 93       	push	r16
    1866:	cf 93       	push	r28
    1868:	df 93       	push	r29
    186a:	cd b7       	in	r28, 0x3d	; 61
    186c:	de b7       	in	r29, 0x3e	; 62
    186e:	28 97       	sbiw	r28, 0x08	; 8
    1870:	0f b6       	in	r0, 0x3f	; 63
    1872:	f8 94       	cli
    1874:	de bf       	out	0x3e, r29	; 62
    1876:	0f be       	out	0x3f, r0	; 63
    1878:	cd bf       	out	0x3d, r28	; 61
    187a:	9d 83       	std	Y+5, r25	; 0x05
    187c:	8c 83       	std	Y+4, r24	; 0x04
    187e:	7f 83       	std	Y+7, r23	; 0x07
    1880:	6e 83       	std	Y+6, r22	; 0x06
    1882:	48 87       	std	Y+8, r20	; 0x08
    1884:	88 85       	ldd	r24, Y+8	; 0x08
    1886:	81 30       	cpi	r24, 0x01	; 1
    1888:	19 f4       	brne	.+6      	; 0x1890 <xStreamBufferGenericCreate+0x2c>
    188a:	81 e0       	ldi	r24, 0x01	; 1
    188c:	89 83       	std	Y+1, r24	; 0x01
    188e:	01 c0       	rjmp	.+2      	; 0x1892 <xStreamBufferGenericCreate+0x2e>
    1890:	19 82       	std	Y+1, r1	; 0x01
    1892:	8e 81       	ldd	r24, Y+6	; 0x06
    1894:	9f 81       	ldd	r25, Y+7	; 0x07
    1896:	89 2b       	or	r24, r25
    1898:	21 f4       	brne	.+8      	; 0x18a2 <xStreamBufferGenericCreate+0x3e>
    189a:	81 e0       	ldi	r24, 0x01	; 1
    189c:	90 e0       	ldi	r25, 0x00	; 0
    189e:	9f 83       	std	Y+7, r25	; 0x07
    18a0:	8e 83       	std	Y+6, r24	; 0x06
    18a2:	8c 81       	ldd	r24, Y+4	; 0x04
    18a4:	9d 81       	ldd	r25, Y+5	; 0x05
    18a6:	01 96       	adiw	r24, 0x01	; 1
    18a8:	9d 83       	std	Y+5, r25	; 0x05
    18aa:	8c 83       	std	Y+4, r24	; 0x04
    18ac:	8c 81       	ldd	r24, Y+4	; 0x04
    18ae:	9d 81       	ldd	r25, Y+5	; 0x05
    18b0:	40 96       	adiw	r24, 0x10	; 16
    18b2:	0e 94 8d 01 	call	0x31a	; 0x31a <pvPortMalloc>
    18b6:	9b 83       	std	Y+3, r25	; 0x03
    18b8:	8a 83       	std	Y+2, r24	; 0x02
    18ba:	8a 81       	ldd	r24, Y+2	; 0x02
    18bc:	9b 81       	ldd	r25, Y+3	; 0x03
    18be:	89 2b       	or	r24, r25
    18c0:	69 f0       	breq	.+26     	; 0x18dc <xStreamBufferGenericCreate+0x78>
    18c2:	8a 81       	ldd	r24, Y+2	; 0x02
    18c4:	9b 81       	ldd	r25, Y+3	; 0x03
    18c6:	bc 01       	movw	r22, r24
    18c8:	60 5f       	subi	r22, 0xF0	; 240
    18ca:	7f 4f       	sbci	r23, 0xFF	; 255
    18cc:	2e 81       	ldd	r18, Y+6	; 0x06
    18ce:	3f 81       	ldd	r19, Y+7	; 0x07
    18d0:	4c 81       	ldd	r20, Y+4	; 0x04
    18d2:	5d 81       	ldd	r21, Y+5	; 0x05
    18d4:	8a 81       	ldd	r24, Y+2	; 0x02
    18d6:	9b 81       	ldd	r25, Y+3	; 0x03
    18d8:	09 81       	ldd	r16, Y+1	; 0x01
    18da:	30 d4       	rcall	.+2144   	; 0x213c <prvInitialiseNewStreamBuffer>
    18dc:	8a 81       	ldd	r24, Y+2	; 0x02
    18de:	9b 81       	ldd	r25, Y+3	; 0x03
    18e0:	28 96       	adiw	r28, 0x08	; 8
    18e2:	0f b6       	in	r0, 0x3f	; 63
    18e4:	f8 94       	cli
    18e6:	de bf       	out	0x3e, r29	; 62
    18e8:	0f be       	out	0x3f, r0	; 63
    18ea:	cd bf       	out	0x3d, r28	; 61
    18ec:	df 91       	pop	r29
    18ee:	cf 91       	pop	r28
    18f0:	0f 91       	pop	r16
    18f2:	08 95       	ret

000018f4 <xStreamBufferReset>:
    18f4:	0f 93       	push	r16
    18f6:	cf 93       	push	r28
    18f8:	df 93       	push	r29
    18fa:	00 d0       	rcall	.+0      	; 0x18fc <xStreamBufferReset+0x8>
    18fc:	00 d0       	rcall	.+0      	; 0x18fe <xStreamBufferReset+0xa>
    18fe:	cd b7       	in	r28, 0x3d	; 61
    1900:	de b7       	in	r29, 0x3e	; 62
    1902:	9e 83       	std	Y+6, r25	; 0x06
    1904:	8d 83       	std	Y+5, r24	; 0x05
    1906:	8d 81       	ldd	r24, Y+5	; 0x05
    1908:	9e 81       	ldd	r25, Y+6	; 0x06
    190a:	9b 83       	std	Y+3, r25	; 0x03
    190c:	8a 83       	std	Y+2, r24	; 0x02
    190e:	19 82       	std	Y+1, r1	; 0x01
    1910:	8a 81       	ldd	r24, Y+2	; 0x02
    1912:	9b 81       	ldd	r25, Y+3	; 0x03
    1914:	dc 01       	movw	r26, r24
    1916:	1f 96       	adiw	r26, 0x0f	; 15
    1918:	8c 91       	ld	r24, X
    191a:	8c 83       	std	Y+4, r24	; 0x04
    191c:	0f b6       	in	r0, 0x3f	; 63
    191e:	f8 94       	cli
    1920:	0f 92       	push	r0
    1922:	8a 81       	ldd	r24, Y+2	; 0x02
    1924:	9b 81       	ldd	r25, Y+3	; 0x03
    1926:	fc 01       	movw	r30, r24
    1928:	80 85       	ldd	r24, Z+8	; 0x08
    192a:	91 85       	ldd	r25, Z+9	; 0x09
    192c:	89 2b       	or	r24, r25
    192e:	71 f5       	brne	.+92     	; 0x198c <xStreamBufferReset+0x98>
    1930:	8a 81       	ldd	r24, Y+2	; 0x02
    1932:	9b 81       	ldd	r25, Y+3	; 0x03
    1934:	dc 01       	movw	r26, r24
    1936:	1a 96       	adiw	r26, 0x0a	; 10
    1938:	8d 91       	ld	r24, X+
    193a:	9c 91       	ld	r25, X
    193c:	1b 97       	sbiw	r26, 0x0b	; 11
    193e:	89 2b       	or	r24, r25
    1940:	29 f5       	brne	.+74     	; 0x198c <xStreamBufferReset+0x98>
    1942:	8a 81       	ldd	r24, Y+2	; 0x02
    1944:	9b 81       	ldd	r25, Y+3	; 0x03
    1946:	dc 01       	movw	r26, r24
    1948:	1e 96       	adiw	r26, 0x0e	; 14
    194a:	ec 91       	ld	r30, X
    194c:	8a 81       	ldd	r24, Y+2	; 0x02
    194e:	9b 81       	ldd	r25, Y+3	; 0x03
    1950:	dc 01       	movw	r26, r24
    1952:	16 96       	adiw	r26, 0x06	; 6
    1954:	2d 91       	ld	r18, X+
    1956:	3c 91       	ld	r19, X
    1958:	17 97       	sbiw	r26, 0x07	; 7
    195a:	8a 81       	ldd	r24, Y+2	; 0x02
    195c:	9b 81       	ldd	r25, Y+3	; 0x03
    195e:	dc 01       	movw	r26, r24
    1960:	14 96       	adiw	r26, 0x04	; 4
    1962:	4d 91       	ld	r20, X+
    1964:	5c 91       	ld	r21, X
    1966:	15 97       	sbiw	r26, 0x05	; 5
    1968:	8a 81       	ldd	r24, Y+2	; 0x02
    196a:	9b 81       	ldd	r25, Y+3	; 0x03
    196c:	dc 01       	movw	r26, r24
    196e:	1c 96       	adiw	r26, 0x0c	; 12
    1970:	6d 91       	ld	r22, X+
    1972:	7c 91       	ld	r23, X
    1974:	1d 97       	sbiw	r26, 0x0d	; 13
    1976:	8a 81       	ldd	r24, Y+2	; 0x02
    1978:	9b 81       	ldd	r25, Y+3	; 0x03
    197a:	0e 2f       	mov	r16, r30
    197c:	df d3       	rcall	.+1982   	; 0x213c <prvInitialiseNewStreamBuffer>
    197e:	81 e0       	ldi	r24, 0x01	; 1
    1980:	89 83       	std	Y+1, r24	; 0x01
    1982:	8a 81       	ldd	r24, Y+2	; 0x02
    1984:	9b 81       	ldd	r25, Y+3	; 0x03
    1986:	2c 81       	ldd	r18, Y+4	; 0x04
    1988:	fc 01       	movw	r30, r24
    198a:	27 87       	std	Z+15, r18	; 0x0f
    198c:	0f 90       	pop	r0
    198e:	0f be       	out	0x3f, r0	; 63
    1990:	89 81       	ldd	r24, Y+1	; 0x01
    1992:	26 96       	adiw	r28, 0x06	; 6
    1994:	0f b6       	in	r0, 0x3f	; 63
    1996:	f8 94       	cli
    1998:	de bf       	out	0x3e, r29	; 62
    199a:	0f be       	out	0x3f, r0	; 63
    199c:	cd bf       	out	0x3d, r28	; 61
    199e:	df 91       	pop	r29
    19a0:	cf 91       	pop	r28
    19a2:	0f 91       	pop	r16
    19a4:	08 95       	ret

000019a6 <xStreamBufferSpacesAvailable>:
    19a6:	cf 93       	push	r28
    19a8:	df 93       	push	r29
    19aa:	00 d0       	rcall	.+0      	; 0x19ac <xStreamBufferSpacesAvailable+0x6>
    19ac:	00 d0       	rcall	.+0      	; 0x19ae <xStreamBufferSpacesAvailable+0x8>
    19ae:	cd b7       	in	r28, 0x3d	; 61
    19b0:	de b7       	in	r29, 0x3e	; 62
    19b2:	9e 83       	std	Y+6, r25	; 0x06
    19b4:	8d 83       	std	Y+5, r24	; 0x05
    19b6:	8d 81       	ldd	r24, Y+5	; 0x05
    19b8:	9e 81       	ldd	r25, Y+6	; 0x06
    19ba:	9c 83       	std	Y+4, r25	; 0x04
    19bc:	8b 83       	std	Y+3, r24	; 0x03
    19be:	8b 81       	ldd	r24, Y+3	; 0x03
    19c0:	9c 81       	ldd	r25, Y+4	; 0x04
    19c2:	fc 01       	movw	r30, r24
    19c4:	24 81       	ldd	r18, Z+4	; 0x04
    19c6:	35 81       	ldd	r19, Z+5	; 0x05
    19c8:	8b 81       	ldd	r24, Y+3	; 0x03
    19ca:	9c 81       	ldd	r25, Y+4	; 0x04
    19cc:	fc 01       	movw	r30, r24
    19ce:	80 81       	ld	r24, Z
    19d0:	91 81       	ldd	r25, Z+1	; 0x01
    19d2:	82 0f       	add	r24, r18
    19d4:	93 1f       	adc	r25, r19
    19d6:	9a 83       	std	Y+2, r25	; 0x02
    19d8:	89 83       	std	Y+1, r24	; 0x01
    19da:	8b 81       	ldd	r24, Y+3	; 0x03
    19dc:	9c 81       	ldd	r25, Y+4	; 0x04
    19de:	fc 01       	movw	r30, r24
    19e0:	82 81       	ldd	r24, Z+2	; 0x02
    19e2:	93 81       	ldd	r25, Z+3	; 0x03
    19e4:	29 81       	ldd	r18, Y+1	; 0x01
    19e6:	3a 81       	ldd	r19, Y+2	; 0x02
    19e8:	a9 01       	movw	r20, r18
    19ea:	48 1b       	sub	r20, r24
    19ec:	59 0b       	sbc	r21, r25
    19ee:	ca 01       	movw	r24, r20
    19f0:	9a 83       	std	Y+2, r25	; 0x02
    19f2:	89 83       	std	Y+1, r24	; 0x01
    19f4:	89 81       	ldd	r24, Y+1	; 0x01
    19f6:	9a 81       	ldd	r25, Y+2	; 0x02
    19f8:	01 97       	sbiw	r24, 0x01	; 1
    19fa:	9a 83       	std	Y+2, r25	; 0x02
    19fc:	89 83       	std	Y+1, r24	; 0x01
    19fe:	8b 81       	ldd	r24, Y+3	; 0x03
    1a00:	9c 81       	ldd	r25, Y+4	; 0x04
    1a02:	fc 01       	movw	r30, r24
    1a04:	24 81       	ldd	r18, Z+4	; 0x04
    1a06:	35 81       	ldd	r19, Z+5	; 0x05
    1a08:	89 81       	ldd	r24, Y+1	; 0x01
    1a0a:	9a 81       	ldd	r25, Y+2	; 0x02
    1a0c:	82 17       	cp	r24, r18
    1a0e:	93 07       	cpc	r25, r19
    1a10:	68 f0       	brcs	.+26     	; 0x1a2c <xStreamBufferSpacesAvailable+0x86>
    1a12:	8b 81       	ldd	r24, Y+3	; 0x03
    1a14:	9c 81       	ldd	r25, Y+4	; 0x04
    1a16:	fc 01       	movw	r30, r24
    1a18:	84 81       	ldd	r24, Z+4	; 0x04
    1a1a:	95 81       	ldd	r25, Z+5	; 0x05
    1a1c:	29 81       	ldd	r18, Y+1	; 0x01
    1a1e:	3a 81       	ldd	r19, Y+2	; 0x02
    1a20:	a9 01       	movw	r20, r18
    1a22:	48 1b       	sub	r20, r24
    1a24:	59 0b       	sbc	r21, r25
    1a26:	ca 01       	movw	r24, r20
    1a28:	9a 83       	std	Y+2, r25	; 0x02
    1a2a:	89 83       	std	Y+1, r24	; 0x01
    1a2c:	89 81       	ldd	r24, Y+1	; 0x01
    1a2e:	9a 81       	ldd	r25, Y+2	; 0x02
    1a30:	26 96       	adiw	r28, 0x06	; 6
    1a32:	0f b6       	in	r0, 0x3f	; 63
    1a34:	f8 94       	cli
    1a36:	de bf       	out	0x3e, r29	; 62
    1a38:	0f be       	out	0x3f, r0	; 63
    1a3a:	cd bf       	out	0x3d, r28	; 61
    1a3c:	df 91       	pop	r29
    1a3e:	cf 91       	pop	r28
    1a40:	08 95       	ret

00001a42 <xStreamBufferSendFromISR>:
    1a42:	ef 92       	push	r14
    1a44:	ff 92       	push	r15
    1a46:	0f 93       	push	r16
    1a48:	1f 93       	push	r17
    1a4a:	cf 93       	push	r28
    1a4c:	df 93       	push	r29
    1a4e:	cd b7       	in	r28, 0x3d	; 61
    1a50:	de b7       	in	r29, 0x3e	; 62
    1a52:	61 97       	sbiw	r28, 0x11	; 17
    1a54:	0f b6       	in	r0, 0x3f	; 63
    1a56:	f8 94       	cli
    1a58:	de bf       	out	0x3e, r29	; 62
    1a5a:	0f be       	out	0x3f, r0	; 63
    1a5c:	cd bf       	out	0x3d, r28	; 61
    1a5e:	9b 87       	std	Y+11, r25	; 0x0b
    1a60:	8a 87       	std	Y+10, r24	; 0x0a
    1a62:	7d 87       	std	Y+13, r23	; 0x0d
    1a64:	6c 87       	std	Y+12, r22	; 0x0c
    1a66:	5f 87       	std	Y+15, r21	; 0x0f
    1a68:	4e 87       	std	Y+14, r20	; 0x0e
    1a6a:	39 8b       	std	Y+17, r19	; 0x11
    1a6c:	28 8b       	std	Y+16, r18	; 0x10
    1a6e:	8a 85       	ldd	r24, Y+10	; 0x0a
    1a70:	9b 85       	ldd	r25, Y+11	; 0x0b
    1a72:	9c 83       	std	Y+4, r25	; 0x04
    1a74:	8b 83       	std	Y+3, r24	; 0x03
    1a76:	8e 85       	ldd	r24, Y+14	; 0x0e
    1a78:	9f 85       	ldd	r25, Y+15	; 0x0f
    1a7a:	9a 83       	std	Y+2, r25	; 0x02
    1a7c:	89 83       	std	Y+1, r24	; 0x01
    1a7e:	8b 81       	ldd	r24, Y+3	; 0x03
    1a80:	9c 81       	ldd	r25, Y+4	; 0x04
    1a82:	fc 01       	movw	r30, r24
    1a84:	86 85       	ldd	r24, Z+14	; 0x0e
    1a86:	88 2f       	mov	r24, r24
    1a88:	90 e0       	ldi	r25, 0x00	; 0
    1a8a:	81 70       	andi	r24, 0x01	; 1
    1a8c:	99 27       	eor	r25, r25
    1a8e:	89 2b       	or	r24, r25
    1a90:	29 f0       	breq	.+10     	; 0x1a9c <xStreamBufferSendFromISR+0x5a>
    1a92:	89 81       	ldd	r24, Y+1	; 0x01
    1a94:	9a 81       	ldd	r25, Y+2	; 0x02
    1a96:	02 96       	adiw	r24, 0x02	; 2
    1a98:	9a 83       	std	Y+2, r25	; 0x02
    1a9a:	89 83       	std	Y+1, r24	; 0x01
    1a9c:	8b 81       	ldd	r24, Y+3	; 0x03
    1a9e:	9c 81       	ldd	r25, Y+4	; 0x04
    1aa0:	82 df       	rcall	.-252    	; 0x19a6 <xStreamBufferSpacesAvailable>
    1aa2:	9e 83       	std	Y+6, r25	; 0x06
    1aa4:	8d 83       	std	Y+5, r24	; 0x05
    1aa6:	e9 81       	ldd	r30, Y+1	; 0x01
    1aa8:	fa 81       	ldd	r31, Y+2	; 0x02
    1aaa:	2d 81       	ldd	r18, Y+5	; 0x05
    1aac:	3e 81       	ldd	r19, Y+6	; 0x06
    1aae:	4e 85       	ldd	r20, Y+14	; 0x0e
    1ab0:	5f 85       	ldd	r21, Y+15	; 0x0f
    1ab2:	6c 85       	ldd	r22, Y+12	; 0x0c
    1ab4:	7d 85       	ldd	r23, Y+13	; 0x0d
    1ab6:	8b 81       	ldd	r24, Y+3	; 0x03
    1ab8:	9c 81       	ldd	r25, Y+4	; 0x04
    1aba:	8f 01       	movw	r16, r30
    1abc:	3e d0       	rcall	.+124    	; 0x1b3a <prvWriteMessageToBuffer>
    1abe:	98 87       	std	Y+8, r25	; 0x08
    1ac0:	8f 83       	std	Y+7, r24	; 0x07
    1ac2:	8f 81       	ldd	r24, Y+7	; 0x07
    1ac4:	98 85       	ldd	r25, Y+8	; 0x08
    1ac6:	89 2b       	or	r24, r25
    1ac8:	49 f1       	breq	.+82     	; 0x1b1c <xStreamBufferSendFromISR+0xda>
    1aca:	8b 81       	ldd	r24, Y+3	; 0x03
    1acc:	9c 81       	ldd	r25, Y+4	; 0x04
    1ace:	f3 d2       	rcall	.+1510   	; 0x20b6 <prvBytesInBuffer>
    1ad0:	9c 01       	movw	r18, r24
    1ad2:	8b 81       	ldd	r24, Y+3	; 0x03
    1ad4:	9c 81       	ldd	r25, Y+4	; 0x04
    1ad6:	fc 01       	movw	r30, r24
    1ad8:	86 81       	ldd	r24, Z+6	; 0x06
    1ada:	97 81       	ldd	r25, Z+7	; 0x07
    1adc:	28 17       	cp	r18, r24
    1ade:	39 07       	cpc	r19, r25
    1ae0:	e8 f0       	brcs	.+58     	; 0x1b1c <xStreamBufferSendFromISR+0xda>
    1ae2:	19 86       	std	Y+9, r1	; 0x09
    1ae4:	8b 81       	ldd	r24, Y+3	; 0x03
    1ae6:	9c 81       	ldd	r25, Y+4	; 0x04
    1ae8:	fc 01       	movw	r30, r24
    1aea:	80 85       	ldd	r24, Z+8	; 0x08
    1aec:	91 85       	ldd	r25, Z+9	; 0x09
    1aee:	89 2b       	or	r24, r25
    1af0:	a9 f0       	breq	.+42     	; 0x1b1c <xStreamBufferSendFromISR+0xda>
    1af2:	8b 81       	ldd	r24, Y+3	; 0x03
    1af4:	9c 81       	ldd	r25, Y+4	; 0x04
    1af6:	fc 01       	movw	r30, r24
    1af8:	80 85       	ldd	r24, Z+8	; 0x08
    1afa:	91 85       	ldd	r25, Z+9	; 0x09
    1afc:	28 89       	ldd	r18, Y+16	; 0x10
    1afe:	39 89       	ldd	r19, Y+17	; 0x11
    1b00:	79 01       	movw	r14, r18
    1b02:	00 e0       	ldi	r16, 0x00	; 0
    1b04:	10 e0       	ldi	r17, 0x00	; 0
    1b06:	20 e0       	ldi	r18, 0x00	; 0
    1b08:	40 e0       	ldi	r20, 0x00	; 0
    1b0a:	50 e0       	ldi	r21, 0x00	; 0
    1b0c:	ba 01       	movw	r22, r20
    1b0e:	0e 94 03 1b 	call	0x3606	; 0x3606 <xTaskGenericNotifyFromISR>
    1b12:	8b 81       	ldd	r24, Y+3	; 0x03
    1b14:	9c 81       	ldd	r25, Y+4	; 0x04
    1b16:	fc 01       	movw	r30, r24
    1b18:	11 86       	std	Z+9, r1	; 0x09
    1b1a:	10 86       	std	Z+8, r1	; 0x08
    1b1c:	8f 81       	ldd	r24, Y+7	; 0x07
    1b1e:	98 85       	ldd	r25, Y+8	; 0x08
    1b20:	61 96       	adiw	r28, 0x11	; 17
    1b22:	0f b6       	in	r0, 0x3f	; 63
    1b24:	f8 94       	cli
    1b26:	de bf       	out	0x3e, r29	; 62
    1b28:	0f be       	out	0x3f, r0	; 63
    1b2a:	cd bf       	out	0x3d, r28	; 61
    1b2c:	df 91       	pop	r29
    1b2e:	cf 91       	pop	r28
    1b30:	1f 91       	pop	r17
    1b32:	0f 91       	pop	r16
    1b34:	ff 90       	pop	r15
    1b36:	ef 90       	pop	r14
    1b38:	08 95       	ret

00001b3a <prvWriteMessageToBuffer>:
    1b3a:	0f 93       	push	r16
    1b3c:	1f 93       	push	r17
    1b3e:	cf 93       	push	r28
    1b40:	df 93       	push	r29
    1b42:	cd b7       	in	r28, 0x3d	; 61
    1b44:	de b7       	in	r29, 0x3e	; 62
    1b46:	61 97       	sbiw	r28, 0x11	; 17
    1b48:	0f b6       	in	r0, 0x3f	; 63
    1b4a:	f8 94       	cli
    1b4c:	de bf       	out	0x3e, r29	; 62
    1b4e:	0f be       	out	0x3f, r0	; 63
    1b50:	cd bf       	out	0x3d, r28	; 61
    1b52:	99 87       	std	Y+9, r25	; 0x09
    1b54:	88 87       	std	Y+8, r24	; 0x08
    1b56:	7b 87       	std	Y+11, r23	; 0x0b
    1b58:	6a 87       	std	Y+10, r22	; 0x0a
    1b5a:	5d 87       	std	Y+13, r21	; 0x0d
    1b5c:	4c 87       	std	Y+12, r20	; 0x0c
    1b5e:	3f 87       	std	Y+15, r19	; 0x0f
    1b60:	2e 87       	std	Y+14, r18	; 0x0e
    1b62:	19 8b       	std	Y+17, r17	; 0x11
    1b64:	08 8b       	std	Y+16, r16	; 0x10
    1b66:	8e 85       	ldd	r24, Y+14	; 0x0e
    1b68:	9f 85       	ldd	r25, Y+15	; 0x0f
    1b6a:	89 2b       	or	r24, r25
    1b6c:	11 f4       	brne	.+4      	; 0x1b72 <prvWriteMessageToBuffer+0x38>
    1b6e:	19 82       	std	Y+1, r1	; 0x01
    1b70:	33 c0       	rjmp	.+102    	; 0x1bd8 <prvWriteMessageToBuffer+0x9e>
    1b72:	88 85       	ldd	r24, Y+8	; 0x08
    1b74:	99 85       	ldd	r25, Y+9	; 0x09
    1b76:	fc 01       	movw	r30, r24
    1b78:	86 85       	ldd	r24, Z+14	; 0x0e
    1b7a:	88 2f       	mov	r24, r24
    1b7c:	90 e0       	ldi	r25, 0x00	; 0
    1b7e:	81 70       	andi	r24, 0x01	; 1
    1b80:	99 27       	eor	r25, r25
    1b82:	89 2b       	or	r24, r25
    1b84:	a9 f4       	brne	.+42     	; 0x1bb0 <prvWriteMessageToBuffer+0x76>
    1b86:	81 e0       	ldi	r24, 0x01	; 1
    1b88:	89 83       	std	Y+1, r24	; 0x01
    1b8a:	8c 85       	ldd	r24, Y+12	; 0x0c
    1b8c:	9d 85       	ldd	r25, Y+13	; 0x0d
    1b8e:	9d 83       	std	Y+5, r25	; 0x05
    1b90:	8c 83       	std	Y+4, r24	; 0x04
    1b92:	8e 85       	ldd	r24, Y+14	; 0x0e
    1b94:	9f 85       	ldd	r25, Y+15	; 0x0f
    1b96:	9f 83       	std	Y+7, r25	; 0x07
    1b98:	8e 83       	std	Y+6, r24	; 0x06
    1b9a:	2c 81       	ldd	r18, Y+4	; 0x04
    1b9c:	3d 81       	ldd	r19, Y+5	; 0x05
    1b9e:	8e 81       	ldd	r24, Y+6	; 0x06
    1ba0:	9f 81       	ldd	r25, Y+7	; 0x07
    1ba2:	28 17       	cp	r18, r24
    1ba4:	39 07       	cpc	r19, r25
    1ba6:	08 f4       	brcc	.+2      	; 0x1baa <prvWriteMessageToBuffer+0x70>
    1ba8:	c9 01       	movw	r24, r18
    1baa:	9d 87       	std	Y+13, r25	; 0x0d
    1bac:	8c 87       	std	Y+12, r24	; 0x0c
    1bae:	14 c0       	rjmp	.+40     	; 0x1bd8 <prvWriteMessageToBuffer+0x9e>
    1bb0:	2e 85       	ldd	r18, Y+14	; 0x0e
    1bb2:	3f 85       	ldd	r19, Y+15	; 0x0f
    1bb4:	88 89       	ldd	r24, Y+16	; 0x10
    1bb6:	99 89       	ldd	r25, Y+17	; 0x11
    1bb8:	28 17       	cp	r18, r24
    1bba:	39 07       	cpc	r19, r25
    1bbc:	60 f0       	brcs	.+24     	; 0x1bd6 <prvWriteMessageToBuffer+0x9c>
    1bbe:	81 e0       	ldi	r24, 0x01	; 1
    1bc0:	89 83       	std	Y+1, r24	; 0x01
    1bc2:	9e 01       	movw	r18, r28
    1bc4:	24 5f       	subi	r18, 0xF4	; 244
    1bc6:	3f 4f       	sbci	r19, 0xFF	; 255
    1bc8:	88 85       	ldd	r24, Y+8	; 0x08
    1bca:	99 85       	ldd	r25, Y+9	; 0x09
    1bcc:	42 e0       	ldi	r20, 0x02	; 2
    1bce:	50 e0       	ldi	r21, 0x00	; 0
    1bd0:	b9 01       	movw	r22, r18
    1bd2:	3b d1       	rcall	.+630    	; 0x1e4a <prvWriteBytesToBuffer>
    1bd4:	01 c0       	rjmp	.+2      	; 0x1bd8 <prvWriteMessageToBuffer+0x9e>
    1bd6:	19 82       	std	Y+1, r1	; 0x01
    1bd8:	89 81       	ldd	r24, Y+1	; 0x01
    1bda:	88 23       	and	r24, r24
    1bdc:	59 f0       	breq	.+22     	; 0x1bf4 <prvWriteMessageToBuffer+0xba>
    1bde:	4c 85       	ldd	r20, Y+12	; 0x0c
    1be0:	5d 85       	ldd	r21, Y+13	; 0x0d
    1be2:	2a 85       	ldd	r18, Y+10	; 0x0a
    1be4:	3b 85       	ldd	r19, Y+11	; 0x0b
    1be6:	88 85       	ldd	r24, Y+8	; 0x08
    1be8:	99 85       	ldd	r25, Y+9	; 0x09
    1bea:	b9 01       	movw	r22, r18
    1bec:	2e d1       	rcall	.+604    	; 0x1e4a <prvWriteBytesToBuffer>
    1bee:	9b 83       	std	Y+3, r25	; 0x03
    1bf0:	8a 83       	std	Y+2, r24	; 0x02
    1bf2:	02 c0       	rjmp	.+4      	; 0x1bf8 <prvWriteMessageToBuffer+0xbe>
    1bf4:	1b 82       	std	Y+3, r1	; 0x03
    1bf6:	1a 82       	std	Y+2, r1	; 0x02
    1bf8:	8a 81       	ldd	r24, Y+2	; 0x02
    1bfa:	9b 81       	ldd	r25, Y+3	; 0x03
    1bfc:	61 96       	adiw	r28, 0x11	; 17
    1bfe:	0f b6       	in	r0, 0x3f	; 63
    1c00:	f8 94       	cli
    1c02:	de bf       	out	0x3e, r29	; 62
    1c04:	0f be       	out	0x3f, r0	; 63
    1c06:	cd bf       	out	0x3d, r28	; 61
    1c08:	df 91       	pop	r29
    1c0a:	cf 91       	pop	r28
    1c0c:	1f 91       	pop	r17
    1c0e:	0f 91       	pop	r16
    1c10:	08 95       	ret

00001c12 <xStreamBufferReceive>:
    1c12:	ef 92       	push	r14
    1c14:	ff 92       	push	r15
    1c16:	0f 93       	push	r16
    1c18:	1f 93       	push	r17
    1c1a:	cf 93       	push	r28
    1c1c:	df 93       	push	r29
    1c1e:	cd b7       	in	r28, 0x3d	; 61
    1c20:	de b7       	in	r29, 0x3e	; 62
    1c22:	60 97       	sbiw	r28, 0x10	; 16
    1c24:	0f b6       	in	r0, 0x3f	; 63
    1c26:	f8 94       	cli
    1c28:	de bf       	out	0x3e, r29	; 62
    1c2a:	0f be       	out	0x3f, r0	; 63
    1c2c:	cd bf       	out	0x3d, r28	; 61
    1c2e:	9a 87       	std	Y+10, r25	; 0x0a
    1c30:	89 87       	std	Y+9, r24	; 0x09
    1c32:	7c 87       	std	Y+12, r23	; 0x0c
    1c34:	6b 87       	std	Y+11, r22	; 0x0b
    1c36:	5e 87       	std	Y+14, r21	; 0x0e
    1c38:	4d 87       	std	Y+13, r20	; 0x0d
    1c3a:	38 8b       	std	Y+16, r19	; 0x10
    1c3c:	2f 87       	std	Y+15, r18	; 0x0f
    1c3e:	89 85       	ldd	r24, Y+9	; 0x09
    1c40:	9a 85       	ldd	r25, Y+10	; 0x0a
    1c42:	98 87       	std	Y+8, r25	; 0x08
    1c44:	8f 83       	std	Y+7, r24	; 0x07
    1c46:	1a 82       	std	Y+2, r1	; 0x02
    1c48:	19 82       	std	Y+1, r1	; 0x01
    1c4a:	8f 81       	ldd	r24, Y+7	; 0x07
    1c4c:	98 85       	ldd	r25, Y+8	; 0x08
    1c4e:	fc 01       	movw	r30, r24
    1c50:	86 85       	ldd	r24, Z+14	; 0x0e
    1c52:	88 2f       	mov	r24, r24
    1c54:	90 e0       	ldi	r25, 0x00	; 0
    1c56:	81 70       	andi	r24, 0x01	; 1
    1c58:	99 27       	eor	r25, r25
    1c5a:	89 2b       	or	r24, r25
    1c5c:	29 f0       	breq	.+10     	; 0x1c68 <xStreamBufferReceive+0x56>
    1c5e:	82 e0       	ldi	r24, 0x02	; 2
    1c60:	90 e0       	ldi	r25, 0x00	; 0
    1c62:	9e 83       	std	Y+6, r25	; 0x06
    1c64:	8d 83       	std	Y+5, r24	; 0x05
    1c66:	02 c0       	rjmp	.+4      	; 0x1c6c <xStreamBufferReceive+0x5a>
    1c68:	1e 82       	std	Y+6, r1	; 0x06
    1c6a:	1d 82       	std	Y+5, r1	; 0x05
    1c6c:	8f 85       	ldd	r24, Y+15	; 0x0f
    1c6e:	98 89       	ldd	r25, Y+16	; 0x10
    1c70:	89 2b       	or	r24, r25
    1c72:	09 f4       	brne	.+2      	; 0x1c76 <xStreamBufferReceive+0x64>
    1c74:	3c c0       	rjmp	.+120    	; 0x1cee <xStreamBufferReceive+0xdc>
    1c76:	0f b6       	in	r0, 0x3f	; 63
    1c78:	f8 94       	cli
    1c7a:	0f 92       	push	r0
    1c7c:	8f 81       	ldd	r24, Y+7	; 0x07
    1c7e:	98 85       	ldd	r25, Y+8	; 0x08
    1c80:	1a d2       	rcall	.+1076   	; 0x20b6 <prvBytesInBuffer>
    1c82:	9c 83       	std	Y+4, r25	; 0x04
    1c84:	8b 83       	std	Y+3, r24	; 0x03
    1c86:	2b 81       	ldd	r18, Y+3	; 0x03
    1c88:	3c 81       	ldd	r19, Y+4	; 0x04
    1c8a:	8d 81       	ldd	r24, Y+5	; 0x05
    1c8c:	9e 81       	ldd	r25, Y+6	; 0x06
    1c8e:	82 17       	cp	r24, r18
    1c90:	93 07       	cpc	r25, r19
    1c92:	60 f0       	brcs	.+24     	; 0x1cac <xStreamBufferReceive+0x9a>
    1c94:	80 e0       	ldi	r24, 0x00	; 0
    1c96:	90 e0       	ldi	r25, 0x00	; 0
    1c98:	0e 94 fe 1b 	call	0x37fc	; 0x37fc <xTaskNotifyStateClear>
    1c9c:	0e 94 6e 17 	call	0x2edc	; 0x2edc <xTaskGetCurrentTaskHandle>
    1ca0:	9c 01       	movw	r18, r24
    1ca2:	8f 81       	ldd	r24, Y+7	; 0x07
    1ca4:	98 85       	ldd	r25, Y+8	; 0x08
    1ca6:	fc 01       	movw	r30, r24
    1ca8:	31 87       	std	Z+9, r19	; 0x09
    1caa:	20 87       	std	Z+8, r18	; 0x08
    1cac:	0f 90       	pop	r0
    1cae:	0f be       	out	0x3f, r0	; 63
    1cb0:	2b 81       	ldd	r18, Y+3	; 0x03
    1cb2:	3c 81       	ldd	r19, Y+4	; 0x04
    1cb4:	8d 81       	ldd	r24, Y+5	; 0x05
    1cb6:	9e 81       	ldd	r25, Y+6	; 0x06
    1cb8:	82 17       	cp	r24, r18
    1cba:	93 07       	cpc	r25, r19
    1cbc:	e8 f0       	brcs	.+58     	; 0x1cf8 <xStreamBufferReceive+0xe6>
    1cbe:	8f 85       	ldd	r24, Y+15	; 0x0f
    1cc0:	98 89       	ldd	r25, Y+16	; 0x10
    1cc2:	7c 01       	movw	r14, r24
    1cc4:	00 e0       	ldi	r16, 0x00	; 0
    1cc6:	10 e0       	ldi	r17, 0x00	; 0
    1cc8:	20 e0       	ldi	r18, 0x00	; 0
    1cca:	30 e0       	ldi	r19, 0x00	; 0
    1ccc:	a9 01       	movw	r20, r18
    1cce:	60 e0       	ldi	r22, 0x00	; 0
    1cd0:	70 e0       	ldi	r23, 0x00	; 0
    1cd2:	cb 01       	movw	r24, r22
    1cd4:	0e 94 7d 19 	call	0x32fa	; 0x32fa <xTaskNotifyWait>
    1cd8:	8f 81       	ldd	r24, Y+7	; 0x07
    1cda:	98 85       	ldd	r25, Y+8	; 0x08
    1cdc:	fc 01       	movw	r30, r24
    1cde:	11 86       	std	Z+9, r1	; 0x09
    1ce0:	10 86       	std	Z+8, r1	; 0x08
    1ce2:	8f 81       	ldd	r24, Y+7	; 0x07
    1ce4:	98 85       	ldd	r25, Y+8	; 0x08
    1ce6:	e7 d1       	rcall	.+974    	; 0x20b6 <prvBytesInBuffer>
    1ce8:	9c 83       	std	Y+4, r25	; 0x04
    1cea:	8b 83       	std	Y+3, r24	; 0x03
    1cec:	05 c0       	rjmp	.+10     	; 0x1cf8 <xStreamBufferReceive+0xe6>
    1cee:	8f 81       	ldd	r24, Y+7	; 0x07
    1cf0:	98 85       	ldd	r25, Y+8	; 0x08
    1cf2:	e1 d1       	rcall	.+962    	; 0x20b6 <prvBytesInBuffer>
    1cf4:	9c 83       	std	Y+4, r25	; 0x04
    1cf6:	8b 83       	std	Y+3, r24	; 0x03
    1cf8:	2b 81       	ldd	r18, Y+3	; 0x03
    1cfa:	3c 81       	ldd	r19, Y+4	; 0x04
    1cfc:	8d 81       	ldd	r24, Y+5	; 0x05
    1cfe:	9e 81       	ldd	r25, Y+6	; 0x06
    1d00:	82 17       	cp	r24, r18
    1d02:	93 07       	cpc	r25, r19
    1d04:	68 f5       	brcc	.+90     	; 0x1d60 <xStreamBufferReceive+0x14e>
    1d06:	ed 81       	ldd	r30, Y+5	; 0x05
    1d08:	fe 81       	ldd	r31, Y+6	; 0x06
    1d0a:	2b 81       	ldd	r18, Y+3	; 0x03
    1d0c:	3c 81       	ldd	r19, Y+4	; 0x04
    1d0e:	4d 85       	ldd	r20, Y+13	; 0x0d
    1d10:	5e 85       	ldd	r21, Y+14	; 0x0e
    1d12:	6b 85       	ldd	r22, Y+11	; 0x0b
    1d14:	7c 85       	ldd	r23, Y+12	; 0x0c
    1d16:	8f 81       	ldd	r24, Y+7	; 0x07
    1d18:	98 85       	ldd	r25, Y+8	; 0x08
    1d1a:	8f 01       	movw	r16, r30
    1d1c:	30 d0       	rcall	.+96     	; 0x1d7e <prvReadMessageFromBuffer>
    1d1e:	9a 83       	std	Y+2, r25	; 0x02
    1d20:	89 83       	std	Y+1, r24	; 0x01
    1d22:	89 81       	ldd	r24, Y+1	; 0x01
    1d24:	9a 81       	ldd	r25, Y+2	; 0x02
    1d26:	89 2b       	or	r24, r25
    1d28:	d9 f0       	breq	.+54     	; 0x1d60 <xStreamBufferReceive+0x14e>
    1d2a:	7d d4       	rcall	.+2298   	; 0x2626 <vTaskSuspendAll>
    1d2c:	8f 81       	ldd	r24, Y+7	; 0x07
    1d2e:	98 85       	ldd	r25, Y+8	; 0x08
    1d30:	fc 01       	movw	r30, r24
    1d32:	82 85       	ldd	r24, Z+10	; 0x0a
    1d34:	93 85       	ldd	r25, Z+11	; 0x0b
    1d36:	89 2b       	or	r24, r25
    1d38:	91 f0       	breq	.+36     	; 0x1d5e <xStreamBufferReceive+0x14c>
    1d3a:	8f 81       	ldd	r24, Y+7	; 0x07
    1d3c:	98 85       	ldd	r25, Y+8	; 0x08
    1d3e:	fc 01       	movw	r30, r24
    1d40:	82 85       	ldd	r24, Z+10	; 0x0a
    1d42:	93 85       	ldd	r25, Z+11	; 0x0b
    1d44:	00 e0       	ldi	r16, 0x00	; 0
    1d46:	10 e0       	ldi	r17, 0x00	; 0
    1d48:	20 e0       	ldi	r18, 0x00	; 0
    1d4a:	40 e0       	ldi	r20, 0x00	; 0
    1d4c:	50 e0       	ldi	r21, 0x00	; 0
    1d4e:	ba 01       	movw	r22, r20
    1d50:	0e 94 22 1a 	call	0x3444	; 0x3444 <xTaskGenericNotify>
    1d54:	8f 81       	ldd	r24, Y+7	; 0x07
    1d56:	98 85       	ldd	r25, Y+8	; 0x08
    1d58:	fc 01       	movw	r30, r24
    1d5a:	13 86       	std	Z+11, r1	; 0x0b
    1d5c:	12 86       	std	Z+10, r1	; 0x0a
    1d5e:	70 d4       	rcall	.+2272   	; 0x2640 <xTaskResumeAll>
    1d60:	89 81       	ldd	r24, Y+1	; 0x01
    1d62:	9a 81       	ldd	r25, Y+2	; 0x02
    1d64:	60 96       	adiw	r28, 0x10	; 16
    1d66:	0f b6       	in	r0, 0x3f	; 63
    1d68:	f8 94       	cli
    1d6a:	de bf       	out	0x3e, r29	; 62
    1d6c:	0f be       	out	0x3f, r0	; 63
    1d6e:	cd bf       	out	0x3d, r28	; 61
    1d70:	df 91       	pop	r29
    1d72:	cf 91       	pop	r28
    1d74:	1f 91       	pop	r17
    1d76:	0f 91       	pop	r16
    1d78:	ff 90       	pop	r15
    1d7a:	ef 90       	pop	r14
    1d7c:	08 95       	ret

00001d7e <prvReadMessageFromBuffer>:
    1d7e:	0f 93       	push	r16
    1d80:	1f 93       	push	r17
    1d82:	cf 93       	push	r28
    1d84:	df 93       	push	r29
    1d86:	cd b7       	in	r28, 0x3d	; 61
    1d88:	de b7       	in	r29, 0x3e	; 62
    1d8a:	62 97       	sbiw	r28, 0x12	; 18
    1d8c:	0f b6       	in	r0, 0x3f	; 63
    1d8e:	f8 94       	cli
    1d90:	de bf       	out	0x3e, r29	; 62
    1d92:	0f be       	out	0x3f, r0	; 63
    1d94:	cd bf       	out	0x3d, r28	; 61
    1d96:	9a 87       	std	Y+10, r25	; 0x0a
    1d98:	89 87       	std	Y+9, r24	; 0x09
    1d9a:	7c 87       	std	Y+12, r23	; 0x0c
    1d9c:	6b 87       	std	Y+11, r22	; 0x0b
    1d9e:	5e 87       	std	Y+14, r21	; 0x0e
    1da0:	4d 87       	std	Y+13, r20	; 0x0d
    1da2:	38 8b       	std	Y+16, r19	; 0x10
    1da4:	2f 87       	std	Y+15, r18	; 0x0f
    1da6:	1a 8b       	std	Y+18, r17	; 0x12
    1da8:	09 8b       	std	Y+17, r16	; 0x11
    1daa:	89 89       	ldd	r24, Y+17	; 0x11
    1dac:	9a 89       	ldd	r25, Y+18	; 0x12
    1dae:	89 2b       	or	r24, r25
    1db0:	81 f1       	breq	.+96     	; 0x1e12 <prvReadMessageFromBuffer+0x94>
    1db2:	89 85       	ldd	r24, Y+9	; 0x09
    1db4:	9a 85       	ldd	r25, Y+10	; 0x0a
    1db6:	fc 01       	movw	r30, r24
    1db8:	80 81       	ld	r24, Z
    1dba:	91 81       	ldd	r25, Z+1	; 0x01
    1dbc:	9c 83       	std	Y+4, r25	; 0x04
    1dbe:	8b 83       	std	Y+3, r24	; 0x03
    1dc0:	2f 85       	ldd	r18, Y+15	; 0x0f
    1dc2:	38 89       	ldd	r19, Y+16	; 0x10
    1dc4:	49 89       	ldd	r20, Y+17	; 0x11
    1dc6:	5a 89       	ldd	r21, Y+18	; 0x12
    1dc8:	be 01       	movw	r22, r28
    1dca:	69 5f       	subi	r22, 0xF9	; 249
    1dcc:	7f 4f       	sbci	r23, 0xFF	; 255
    1dce:	89 85       	ldd	r24, Y+9	; 0x09
    1dd0:	9a 85       	ldd	r25, Y+10	; 0x0a
    1dd2:	ca d0       	rcall	.+404    	; 0x1f68 <prvReadBytesFromBuffer>
    1dd4:	8f 81       	ldd	r24, Y+7	; 0x07
    1dd6:	98 85       	ldd	r25, Y+8	; 0x08
    1dd8:	9a 83       	std	Y+2, r25	; 0x02
    1dda:	89 83       	std	Y+1, r24	; 0x01
    1ddc:	2f 85       	ldd	r18, Y+15	; 0x0f
    1dde:	38 89       	ldd	r19, Y+16	; 0x10
    1de0:	89 89       	ldd	r24, Y+17	; 0x11
    1de2:	9a 89       	ldd	r25, Y+18	; 0x12
    1de4:	a9 01       	movw	r20, r18
    1de6:	48 1b       	sub	r20, r24
    1de8:	59 0b       	sbc	r21, r25
    1dea:	ca 01       	movw	r24, r20
    1dec:	98 8b       	std	Y+16, r25	; 0x10
    1dee:	8f 87       	std	Y+15, r24	; 0x0f
    1df0:	29 81       	ldd	r18, Y+1	; 0x01
    1df2:	3a 81       	ldd	r19, Y+2	; 0x02
    1df4:	8d 85       	ldd	r24, Y+13	; 0x0d
    1df6:	9e 85       	ldd	r25, Y+14	; 0x0e
    1df8:	82 17       	cp	r24, r18
    1dfa:	93 07       	cpc	r25, r19
    1dfc:	70 f4       	brcc	.+28     	; 0x1e1a <prvReadMessageFromBuffer+0x9c>
    1dfe:	89 85       	ldd	r24, Y+9	; 0x09
    1e00:	9a 85       	ldd	r25, Y+10	; 0x0a
    1e02:	2b 81       	ldd	r18, Y+3	; 0x03
    1e04:	3c 81       	ldd	r19, Y+4	; 0x04
    1e06:	fc 01       	movw	r30, r24
    1e08:	31 83       	std	Z+1, r19	; 0x01
    1e0a:	20 83       	st	Z, r18
    1e0c:	1a 82       	std	Y+2, r1	; 0x02
    1e0e:	19 82       	std	Y+1, r1	; 0x01
    1e10:	04 c0       	rjmp	.+8      	; 0x1e1a <prvReadMessageFromBuffer+0x9c>
    1e12:	8d 85       	ldd	r24, Y+13	; 0x0d
    1e14:	9e 85       	ldd	r25, Y+14	; 0x0e
    1e16:	9a 83       	std	Y+2, r25	; 0x02
    1e18:	89 83       	std	Y+1, r24	; 0x01
    1e1a:	2f 85       	ldd	r18, Y+15	; 0x0f
    1e1c:	38 89       	ldd	r19, Y+16	; 0x10
    1e1e:	49 81       	ldd	r20, Y+1	; 0x01
    1e20:	5a 81       	ldd	r21, Y+2	; 0x02
    1e22:	6b 85       	ldd	r22, Y+11	; 0x0b
    1e24:	7c 85       	ldd	r23, Y+12	; 0x0c
    1e26:	89 85       	ldd	r24, Y+9	; 0x09
    1e28:	9a 85       	ldd	r25, Y+10	; 0x0a
    1e2a:	9e d0       	rcall	.+316    	; 0x1f68 <prvReadBytesFromBuffer>
    1e2c:	9e 83       	std	Y+6, r25	; 0x06
    1e2e:	8d 83       	std	Y+5, r24	; 0x05
    1e30:	8d 81       	ldd	r24, Y+5	; 0x05
    1e32:	9e 81       	ldd	r25, Y+6	; 0x06
    1e34:	62 96       	adiw	r28, 0x12	; 18
    1e36:	0f b6       	in	r0, 0x3f	; 63
    1e38:	f8 94       	cli
    1e3a:	de bf       	out	0x3e, r29	; 62
    1e3c:	0f be       	out	0x3f, r0	; 63
    1e3e:	cd bf       	out	0x3d, r28	; 61
    1e40:	df 91       	pop	r29
    1e42:	cf 91       	pop	r28
    1e44:	1f 91       	pop	r17
    1e46:	0f 91       	pop	r16
    1e48:	08 95       	ret

00001e4a <prvWriteBytesToBuffer>:
/*-----------------------------------------------------------*/

static size_t prvWriteBytesToBuffer( StreamBuffer_t * const pxStreamBuffer, const uint8_t *pucData, size_t xCount )
{
    1e4a:	cf 93       	push	r28
    1e4c:	df 93       	push	r29
    1e4e:	cd b7       	in	r28, 0x3d	; 61
    1e50:	de b7       	in	r29, 0x3e	; 62
    1e52:	2e 97       	sbiw	r28, 0x0e	; 14
    1e54:	0f b6       	in	r0, 0x3f	; 63
    1e56:	f8 94       	cli
    1e58:	de bf       	out	0x3e, r29	; 62
    1e5a:	0f be       	out	0x3f, r0	; 63
    1e5c:	cd bf       	out	0x3d, r28	; 61
    1e5e:	9a 87       	std	Y+10, r25	; 0x0a
    1e60:	89 87       	std	Y+9, r24	; 0x09
    1e62:	7c 87       	std	Y+12, r23	; 0x0c
    1e64:	6b 87       	std	Y+11, r22	; 0x0b
    1e66:	5e 87       	std	Y+14, r21	; 0x0e
    1e68:	4d 87       	std	Y+13, r20	; 0x0d
size_t xNextHead, xFirstLength;

    configASSERT( xCount > ( size_t ) 0 );

    xNextHead = pxStreamBuffer->xHead;
    1e6a:	89 85       	ldd	r24, Y+9	; 0x09
    1e6c:	9a 85       	ldd	r25, Y+10	; 0x0a
    1e6e:	fc 01       	movw	r30, r24
    1e70:	82 81       	ldd	r24, Z+2	; 0x02
    1e72:	93 81       	ldd	r25, Z+3	; 0x03
    1e74:	9a 83       	std	Y+2, r25	; 0x02
    1e76:	89 83       	std	Y+1, r24	; 0x01

    /* Calculate the number of bytes that can be added in the first write -
    which may be less than the total number of bytes that need to be added if
    the buffer will wrap back to the beginning. */
    xFirstLength = configMIN( pxStreamBuffer->xLength - xNextHead, xCount );
    1e78:	89 85       	ldd	r24, Y+9	; 0x09
    1e7a:	9a 85       	ldd	r25, Y+10	; 0x0a
    1e7c:	fc 01       	movw	r30, r24
    1e7e:	24 81       	ldd	r18, Z+4	; 0x04
    1e80:	35 81       	ldd	r19, Z+5	; 0x05
    1e82:	89 81       	ldd	r24, Y+1	; 0x01
    1e84:	9a 81       	ldd	r25, Y+2	; 0x02
    1e86:	a9 01       	movw	r20, r18
    1e88:	48 1b       	sub	r20, r24
    1e8a:	59 0b       	sbc	r21, r25
    1e8c:	ca 01       	movw	r24, r20
    1e8e:	9c 83       	std	Y+4, r25	; 0x04
    1e90:	8b 83       	std	Y+3, r24	; 0x03
    1e92:	8d 85       	ldd	r24, Y+13	; 0x0d
    1e94:	9e 85       	ldd	r25, Y+14	; 0x0e
    1e96:	9e 83       	std	Y+6, r25	; 0x06
    1e98:	8d 83       	std	Y+5, r24	; 0x05
    1e9a:	2b 81       	ldd	r18, Y+3	; 0x03
    1e9c:	3c 81       	ldd	r19, Y+4	; 0x04
    1e9e:	8d 81       	ldd	r24, Y+5	; 0x05
    1ea0:	9e 81       	ldd	r25, Y+6	; 0x06
    1ea2:	28 17       	cp	r18, r24
    1ea4:	39 07       	cpc	r19, r25
    1ea6:	08 f4       	brcc	.+2      	; 0x1eaa <prvWriteBytesToBuffer+0x60>
    1ea8:	c9 01       	movw	r24, r18
    1eaa:	98 87       	std	Y+8, r25	; 0x08
    1eac:	8f 83       	std	Y+7, r24	; 0x07

    /* Write as many bytes as can be written in the first write. */
    configASSERT( ( xNextHead + xFirstLength ) <= pxStreamBuffer->xLength );
    ( void ) memcpy( ( void* ) ( &( pxStreamBuffer->pucBuffer[ xNextHead ] ) ), ( const void * ) pucData, xFirstLength ); /*lint !e9087 memcpy() requires void *. */
    1eae:	89 85       	ldd	r24, Y+9	; 0x09
    1eb0:	9a 85       	ldd	r25, Y+10	; 0x0a
    1eb2:	fc 01       	movw	r30, r24
    1eb4:	24 85       	ldd	r18, Z+12	; 0x0c
    1eb6:	35 85       	ldd	r19, Z+13	; 0x0d
    1eb8:	89 81       	ldd	r24, Y+1	; 0x01
    1eba:	9a 81       	ldd	r25, Y+2	; 0x02
    1ebc:	82 0f       	add	r24, r18
    1ebe:	93 1f       	adc	r25, r19
    1ec0:	4f 81       	ldd	r20, Y+7	; 0x07
    1ec2:	58 85       	ldd	r21, Y+8	; 0x08
    1ec4:	2b 85       	ldd	r18, Y+11	; 0x0b
    1ec6:	3c 85       	ldd	r19, Y+12	; 0x0c
    1ec8:	b9 01       	movw	r22, r18
    1eca:	0e 94 bd 36 	call	0x6d7a	; 0x6d7a <memcpy>

    /* If the number of bytes written was less than the number that could be
    written in the first write... */
    if( xCount > xFirstLength )
    1ece:	2d 85       	ldd	r18, Y+13	; 0x0d
    1ed0:	3e 85       	ldd	r19, Y+14	; 0x0e
    1ed2:	8f 81       	ldd	r24, Y+7	; 0x07
    1ed4:	98 85       	ldd	r25, Y+8	; 0x08
    1ed6:	82 17       	cp	r24, r18
    1ed8:	93 07       	cpc	r25, r19
    1eda:	a8 f4       	brcc	.+42     	; 0x1f06 <prvWriteBytesToBuffer+0xbc>
    {
        /* ...then write the remaining bytes to the start of the buffer. */
        configASSERT( ( xCount - xFirstLength ) <= pxStreamBuffer->xLength );
        ( void ) memcpy( ( void * ) pxStreamBuffer->pucBuffer, ( const void * ) &( pucData[ xFirstLength ] ), xCount - xFirstLength ); /*lint !e9087 memcpy() requires void *. */
    1edc:	2d 85       	ldd	r18, Y+13	; 0x0d
    1ede:	3e 85       	ldd	r19, Y+14	; 0x0e
    1ee0:	8f 81       	ldd	r24, Y+7	; 0x07
    1ee2:	98 85       	ldd	r25, Y+8	; 0x08
    1ee4:	a9 01       	movw	r20, r18
    1ee6:	48 1b       	sub	r20, r24
    1ee8:	59 0b       	sbc	r21, r25
    1eea:	2b 85       	ldd	r18, Y+11	; 0x0b
    1eec:	3c 85       	ldd	r19, Y+12	; 0x0c
    1eee:	8f 81       	ldd	r24, Y+7	; 0x07
    1ef0:	98 85       	ldd	r25, Y+8	; 0x08
    1ef2:	28 0f       	add	r18, r24
    1ef4:	39 1f       	adc	r19, r25
    1ef6:	89 85       	ldd	r24, Y+9	; 0x09
    1ef8:	9a 85       	ldd	r25, Y+10	; 0x0a
    1efa:	fc 01       	movw	r30, r24
    1efc:	84 85       	ldd	r24, Z+12	; 0x0c
    1efe:	95 85       	ldd	r25, Z+13	; 0x0d
    1f00:	b9 01       	movw	r22, r18
    1f02:	0e 94 bd 36 	call	0x6d7a	; 0x6d7a <memcpy>
    else
    {
        mtCOVERAGE_TEST_MARKER();
    }

    xNextHead += xCount;
    1f06:	29 81       	ldd	r18, Y+1	; 0x01
    1f08:	3a 81       	ldd	r19, Y+2	; 0x02
    1f0a:	8d 85       	ldd	r24, Y+13	; 0x0d
    1f0c:	9e 85       	ldd	r25, Y+14	; 0x0e
    1f0e:	82 0f       	add	r24, r18
    1f10:	93 1f       	adc	r25, r19
    1f12:	9a 83       	std	Y+2, r25	; 0x02
    1f14:	89 83       	std	Y+1, r24	; 0x01
    if( xNextHead >= pxStreamBuffer->xLength )
    1f16:	89 85       	ldd	r24, Y+9	; 0x09
    1f18:	9a 85       	ldd	r25, Y+10	; 0x0a
    1f1a:	fc 01       	movw	r30, r24
    1f1c:	24 81       	ldd	r18, Z+4	; 0x04
    1f1e:	35 81       	ldd	r19, Z+5	; 0x05
    1f20:	89 81       	ldd	r24, Y+1	; 0x01
    1f22:	9a 81       	ldd	r25, Y+2	; 0x02
    1f24:	82 17       	cp	r24, r18
    1f26:	93 07       	cpc	r25, r19
    1f28:	68 f0       	brcs	.+26     	; 0x1f44 <prvWriteBytesToBuffer+0xfa>
    {
        xNextHead -= pxStreamBuffer->xLength;
    1f2a:	89 85       	ldd	r24, Y+9	; 0x09
    1f2c:	9a 85       	ldd	r25, Y+10	; 0x0a
    1f2e:	fc 01       	movw	r30, r24
    1f30:	84 81       	ldd	r24, Z+4	; 0x04
    1f32:	95 81       	ldd	r25, Z+5	; 0x05
    1f34:	29 81       	ldd	r18, Y+1	; 0x01
    1f36:	3a 81       	ldd	r19, Y+2	; 0x02
    1f38:	a9 01       	movw	r20, r18
    1f3a:	48 1b       	sub	r20, r24
    1f3c:	59 0b       	sbc	r21, r25
    1f3e:	ca 01       	movw	r24, r20
    1f40:	9a 83       	std	Y+2, r25	; 0x02
    1f42:	89 83       	std	Y+1, r24	; 0x01
    else
    {
        mtCOVERAGE_TEST_MARKER();
    }

    pxStreamBuffer->xHead = xNextHead;
    1f44:	89 85       	ldd	r24, Y+9	; 0x09
    1f46:	9a 85       	ldd	r25, Y+10	; 0x0a
    1f48:	29 81       	ldd	r18, Y+1	; 0x01
    1f4a:	3a 81       	ldd	r19, Y+2	; 0x02
    1f4c:	fc 01       	movw	r30, r24
    1f4e:	33 83       	std	Z+3, r19	; 0x03
    1f50:	22 83       	std	Z+2, r18	; 0x02

    return xCount;
    1f52:	8d 85       	ldd	r24, Y+13	; 0x0d
    1f54:	9e 85       	ldd	r25, Y+14	; 0x0e
}
    1f56:	2e 96       	adiw	r28, 0x0e	; 14
    1f58:	0f b6       	in	r0, 0x3f	; 63
    1f5a:	f8 94       	cli
    1f5c:	de bf       	out	0x3e, r29	; 62
    1f5e:	0f be       	out	0x3f, r0	; 63
    1f60:	cd bf       	out	0x3d, r28	; 61
    1f62:	df 91       	pop	r29
    1f64:	cf 91       	pop	r28
    1f66:	08 95       	ret

00001f68 <prvReadBytesFromBuffer>:
/*-----------------------------------------------------------*/

static size_t prvReadBytesFromBuffer( StreamBuffer_t *pxStreamBuffer, uint8_t *pucData, size_t xMaxCount, size_t xBytesAvailable )
{
    1f68:	cf 93       	push	r28
    1f6a:	df 93       	push	r29
    1f6c:	cd b7       	in	r28, 0x3d	; 61
    1f6e:	de b7       	in	r29, 0x3e	; 62
    1f70:	66 97       	sbiw	r28, 0x16	; 22
    1f72:	0f b6       	in	r0, 0x3f	; 63
    1f74:	f8 94       	cli
    1f76:	de bf       	out	0x3e, r29	; 62
    1f78:	0f be       	out	0x3f, r0	; 63
    1f7a:	cd bf       	out	0x3d, r28	; 61
    1f7c:	98 8b       	std	Y+16, r25	; 0x10
    1f7e:	8f 87       	std	Y+15, r24	; 0x0f
    1f80:	7a 8b       	std	Y+18, r23	; 0x12
    1f82:	69 8b       	std	Y+17, r22	; 0x11
    1f84:	5c 8b       	std	Y+20, r21	; 0x14
    1f86:	4b 8b       	std	Y+19, r20	; 0x13
    1f88:	3e 8b       	std	Y+22, r19	; 0x16
    1f8a:	2d 8b       	std	Y+21, r18	; 0x15
size_t xCount, xFirstLength, xNextTail;

    /* Use the minimum of the wanted bytes and the available bytes. */
    xCount = configMIN( xBytesAvailable, xMaxCount );
    1f8c:	8d 89       	ldd	r24, Y+21	; 0x15
    1f8e:	9e 89       	ldd	r25, Y+22	; 0x16
    1f90:	9c 83       	std	Y+4, r25	; 0x04
    1f92:	8b 83       	std	Y+3, r24	; 0x03
    1f94:	8b 89       	ldd	r24, Y+19	; 0x13
    1f96:	9c 89       	ldd	r25, Y+20	; 0x14
    1f98:	9e 83       	std	Y+6, r25	; 0x06
    1f9a:	8d 83       	std	Y+5, r24	; 0x05
    1f9c:	2b 81       	ldd	r18, Y+3	; 0x03
    1f9e:	3c 81       	ldd	r19, Y+4	; 0x04
    1fa0:	8d 81       	ldd	r24, Y+5	; 0x05
    1fa2:	9e 81       	ldd	r25, Y+6	; 0x06
    1fa4:	28 17       	cp	r18, r24
    1fa6:	39 07       	cpc	r19, r25
    1fa8:	08 f4       	brcc	.+2      	; 0x1fac <prvReadBytesFromBuffer+0x44>
    1faa:	c9 01       	movw	r24, r18
    1fac:	98 87       	std	Y+8, r25	; 0x08
    1fae:	8f 83       	std	Y+7, r24	; 0x07

    if( xCount > ( size_t ) 0 )
    1fb0:	8f 81       	ldd	r24, Y+7	; 0x07
    1fb2:	98 85       	ldd	r25, Y+8	; 0x08
    1fb4:	89 2b       	or	r24, r25
    1fb6:	09 f4       	brne	.+2      	; 0x1fba <prvReadBytesFromBuffer+0x52>
    1fb8:	73 c0       	rjmp	.+230    	; 0x20a0 <prvReadBytesFromBuffer+0x138>
    {
        xNextTail = pxStreamBuffer->xTail;
    1fba:	8f 85       	ldd	r24, Y+15	; 0x0f
    1fbc:	98 89       	ldd	r25, Y+16	; 0x10
    1fbe:	fc 01       	movw	r30, r24
    1fc0:	80 81       	ld	r24, Z
    1fc2:	91 81       	ldd	r25, Z+1	; 0x01
    1fc4:	9a 83       	std	Y+2, r25	; 0x02
    1fc6:	89 83       	std	Y+1, r24	; 0x01

        /* Calculate the number of bytes that can be read - which may be
        less than the number wanted if the data wraps around to the start of
        the buffer. */
        xFirstLength = configMIN( pxStreamBuffer->xLength - xNextTail, xCount );
    1fc8:	8f 85       	ldd	r24, Y+15	; 0x0f
    1fca:	98 89       	ldd	r25, Y+16	; 0x10
    1fcc:	fc 01       	movw	r30, r24
    1fce:	24 81       	ldd	r18, Z+4	; 0x04
    1fd0:	35 81       	ldd	r19, Z+5	; 0x05
    1fd2:	89 81       	ldd	r24, Y+1	; 0x01
    1fd4:	9a 81       	ldd	r25, Y+2	; 0x02
    1fd6:	a9 01       	movw	r20, r18
    1fd8:	48 1b       	sub	r20, r24
    1fda:	59 0b       	sbc	r21, r25
    1fdc:	ca 01       	movw	r24, r20
    1fde:	9a 87       	std	Y+10, r25	; 0x0a
    1fe0:	89 87       	std	Y+9, r24	; 0x09
    1fe2:	8f 81       	ldd	r24, Y+7	; 0x07
    1fe4:	98 85       	ldd	r25, Y+8	; 0x08
    1fe6:	9c 87       	std	Y+12, r25	; 0x0c
    1fe8:	8b 87       	std	Y+11, r24	; 0x0b
    1fea:	29 85       	ldd	r18, Y+9	; 0x09
    1fec:	3a 85       	ldd	r19, Y+10	; 0x0a
    1fee:	8b 85       	ldd	r24, Y+11	; 0x0b
    1ff0:	9c 85       	ldd	r25, Y+12	; 0x0c
    1ff2:	28 17       	cp	r18, r24
    1ff4:	39 07       	cpc	r19, r25
    1ff6:	08 f4       	brcc	.+2      	; 0x1ffa <prvReadBytesFromBuffer+0x92>
    1ff8:	c9 01       	movw	r24, r18
    1ffa:	9e 87       	std	Y+14, r25	; 0x0e
    1ffc:	8d 87       	std	Y+13, r24	; 0x0d

        /* Obtain the number of bytes it is possible to obtain in the first
        read.  Asserts check bounds of read and write. */
        configASSERT( xFirstLength <= xMaxCount );
        configASSERT( ( xNextTail + xFirstLength ) <= pxStreamBuffer->xLength );
        ( void ) memcpy( ( void * ) pucData, ( const void * ) &( pxStreamBuffer->pucBuffer[ xNextTail ] ), xFirstLength ); /*lint !e9087 memcpy() requires void *. */
    1ffe:	8f 85       	ldd	r24, Y+15	; 0x0f
    2000:	98 89       	ldd	r25, Y+16	; 0x10
    2002:	fc 01       	movw	r30, r24
    2004:	24 85       	ldd	r18, Z+12	; 0x0c
    2006:	35 85       	ldd	r19, Z+13	; 0x0d
    2008:	89 81       	ldd	r24, Y+1	; 0x01
    200a:	9a 81       	ldd	r25, Y+2	; 0x02
    200c:	28 0f       	add	r18, r24
    200e:	39 1f       	adc	r19, r25
    2010:	4d 85       	ldd	r20, Y+13	; 0x0d
    2012:	5e 85       	ldd	r21, Y+14	; 0x0e
    2014:	89 89       	ldd	r24, Y+17	; 0x11
    2016:	9a 89       	ldd	r25, Y+18	; 0x12
    2018:	b9 01       	movw	r22, r18
    201a:	0e 94 bd 36 	call	0x6d7a	; 0x6d7a <memcpy>

        /* If the total number of wanted bytes is greater than the number
        that could be read in the first read... */
        if( xCount > xFirstLength )
    201e:	2f 81       	ldd	r18, Y+7	; 0x07
    2020:	38 85       	ldd	r19, Y+8	; 0x08
    2022:	8d 85       	ldd	r24, Y+13	; 0x0d
    2024:	9e 85       	ldd	r25, Y+14	; 0x0e
    2026:	82 17       	cp	r24, r18
    2028:	93 07       	cpc	r25, r19
    202a:	a0 f4       	brcc	.+40     	; 0x2054 <prvReadBytesFromBuffer+0xec>
        {
            /*...then read the remaining bytes from the start of the buffer. */
            configASSERT( xCount <= xMaxCount );
            ( void ) memcpy( ( void * ) &( pucData[ xFirstLength ] ), ( void * ) ( pxStreamBuffer->pucBuffer ), xCount - xFirstLength ); /*lint !e9087 memcpy() requires void *. */
    202c:	2f 81       	ldd	r18, Y+7	; 0x07
    202e:	38 85       	ldd	r19, Y+8	; 0x08
    2030:	8d 85       	ldd	r24, Y+13	; 0x0d
    2032:	9e 85       	ldd	r25, Y+14	; 0x0e
    2034:	a9 01       	movw	r20, r18
    2036:	48 1b       	sub	r20, r24
    2038:	59 0b       	sbc	r21, r25
    203a:	8f 85       	ldd	r24, Y+15	; 0x0f
    203c:	98 89       	ldd	r25, Y+16	; 0x10
    203e:	fc 01       	movw	r30, r24
    2040:	64 85       	ldd	r22, Z+12	; 0x0c
    2042:	75 85       	ldd	r23, Z+13	; 0x0d
    2044:	29 89       	ldd	r18, Y+17	; 0x11
    2046:	3a 89       	ldd	r19, Y+18	; 0x12
    2048:	8d 85       	ldd	r24, Y+13	; 0x0d
    204a:	9e 85       	ldd	r25, Y+14	; 0x0e
    204c:	82 0f       	add	r24, r18
    204e:	93 1f       	adc	r25, r19
    2050:	0e 94 bd 36 	call	0x6d7a	; 0x6d7a <memcpy>
            mtCOVERAGE_TEST_MARKER();
        }

        /* Move the tail pointer to effectively remove the data read from
        the buffer. */
        xNextTail += xCount;
    2054:	29 81       	ldd	r18, Y+1	; 0x01
    2056:	3a 81       	ldd	r19, Y+2	; 0x02
    2058:	8f 81       	ldd	r24, Y+7	; 0x07
    205a:	98 85       	ldd	r25, Y+8	; 0x08
    205c:	82 0f       	add	r24, r18
    205e:	93 1f       	adc	r25, r19
    2060:	9a 83       	std	Y+2, r25	; 0x02
    2062:	89 83       	std	Y+1, r24	; 0x01

        if( xNextTail >= pxStreamBuffer->xLength )
    2064:	8f 85       	ldd	r24, Y+15	; 0x0f
    2066:	98 89       	ldd	r25, Y+16	; 0x10
    2068:	fc 01       	movw	r30, r24
    206a:	24 81       	ldd	r18, Z+4	; 0x04
    206c:	35 81       	ldd	r19, Z+5	; 0x05
    206e:	89 81       	ldd	r24, Y+1	; 0x01
    2070:	9a 81       	ldd	r25, Y+2	; 0x02
    2072:	82 17       	cp	r24, r18
    2074:	93 07       	cpc	r25, r19
    2076:	68 f0       	brcs	.+26     	; 0x2092 <prvReadBytesFromBuffer+0x12a>
        {
            xNextTail -= pxStreamBuffer->xLength;
    2078:	8f 85       	ldd	r24, Y+15	; 0x0f
    207a:	98 89       	ldd	r25, Y+16	; 0x10
    207c:	fc 01       	movw	r30, r24
    207e:	84 81       	ldd	r24, Z+4	; 0x04
    2080:	95 81       	ldd	r25, Z+5	; 0x05
    2082:	29 81       	ldd	r18, Y+1	; 0x01
    2084:	3a 81       	ldd	r19, Y+2	; 0x02
    2086:	a9 01       	movw	r20, r18
    2088:	48 1b       	sub	r20, r24
    208a:	59 0b       	sbc	r21, r25
    208c:	ca 01       	movw	r24, r20
    208e:	9a 83       	std	Y+2, r25	; 0x02
    2090:	89 83       	std	Y+1, r24	; 0x01
        }

        pxStreamBuffer->xTail = xNextTail;
    2092:	8f 85       	ldd	r24, Y+15	; 0x0f
    2094:	98 89       	ldd	r25, Y+16	; 0x10
    2096:	29 81       	ldd	r18, Y+1	; 0x01
    2098:	3a 81       	ldd	r19, Y+2	; 0x02
    209a:	fc 01       	movw	r30, r24
    209c:	31 83       	std	Z+1, r19	; 0x01
    209e:	20 83       	st	Z, r18
    else
    {
        mtCOVERAGE_TEST_MARKER();
    }

    return xCount;
    20a0:	8f 81       	ldd	r24, Y+7	; 0x07
    20a2:	98 85       	ldd	r25, Y+8	; 0x08
}
    20a4:	66 96       	adiw	r28, 0x16	; 22
    20a6:	0f b6       	in	r0, 0x3f	; 63
    20a8:	f8 94       	cli
    20aa:	de bf       	out	0x3e, r29	; 62
    20ac:	0f be       	out	0x3f, r0	; 63
    20ae:	cd bf       	out	0x3d, r28	; 61
    20b0:	df 91       	pop	r29
    20b2:	cf 91       	pop	r28
    20b4:	08 95       	ret

000020b6 <prvBytesInBuffer>:
/*-----------------------------------------------------------*/

static size_t prvBytesInBuffer( const StreamBuffer_t * const pxStreamBuffer )
{
    20b6:	cf 93       	push	r28
    20b8:	df 93       	push	r29
    20ba:	00 d0       	rcall	.+0      	; 0x20bc <prvBytesInBuffer+0x6>
    20bc:	1f 92       	push	r1
    20be:	cd b7       	in	r28, 0x3d	; 61
    20c0:	de b7       	in	r29, 0x3e	; 62
    20c2:	9c 83       	std	Y+4, r25	; 0x04
    20c4:	8b 83       	std	Y+3, r24	; 0x03
/* Returns the distance between xTail and xHead. */
size_t xCount;

    xCount = pxStreamBuffer->xLength + pxStreamBuffer->xHead;
    20c6:	8b 81       	ldd	r24, Y+3	; 0x03
    20c8:	9c 81       	ldd	r25, Y+4	; 0x04
    20ca:	fc 01       	movw	r30, r24
    20cc:	24 81       	ldd	r18, Z+4	; 0x04
    20ce:	35 81       	ldd	r19, Z+5	; 0x05
    20d0:	8b 81       	ldd	r24, Y+3	; 0x03
    20d2:	9c 81       	ldd	r25, Y+4	; 0x04
    20d4:	fc 01       	movw	r30, r24
    20d6:	82 81       	ldd	r24, Z+2	; 0x02
    20d8:	93 81       	ldd	r25, Z+3	; 0x03
    20da:	82 0f       	add	r24, r18
    20dc:	93 1f       	adc	r25, r19
    20de:	9a 83       	std	Y+2, r25	; 0x02
    20e0:	89 83       	std	Y+1, r24	; 0x01
    xCount -= pxStreamBuffer->xTail;
    20e2:	8b 81       	ldd	r24, Y+3	; 0x03
    20e4:	9c 81       	ldd	r25, Y+4	; 0x04
    20e6:	fc 01       	movw	r30, r24
    20e8:	80 81       	ld	r24, Z
    20ea:	91 81       	ldd	r25, Z+1	; 0x01
    20ec:	29 81       	ldd	r18, Y+1	; 0x01
    20ee:	3a 81       	ldd	r19, Y+2	; 0x02
    20f0:	a9 01       	movw	r20, r18
    20f2:	48 1b       	sub	r20, r24
    20f4:	59 0b       	sbc	r21, r25
    20f6:	ca 01       	movw	r24, r20
    20f8:	9a 83       	std	Y+2, r25	; 0x02
    20fa:	89 83       	std	Y+1, r24	; 0x01
    if ( xCount >= pxStreamBuffer->xLength )
    20fc:	8b 81       	ldd	r24, Y+3	; 0x03
    20fe:	9c 81       	ldd	r25, Y+4	; 0x04
    2100:	fc 01       	movw	r30, r24
    2102:	24 81       	ldd	r18, Z+4	; 0x04
    2104:	35 81       	ldd	r19, Z+5	; 0x05
    2106:	89 81       	ldd	r24, Y+1	; 0x01
    2108:	9a 81       	ldd	r25, Y+2	; 0x02
    210a:	82 17       	cp	r24, r18
    210c:	93 07       	cpc	r25, r19
    210e:	68 f0       	brcs	.+26     	; 0x212a <prvBytesInBuffer+0x74>
    {
        xCount -= pxStreamBuffer->xLength;
    2110:	8b 81       	ldd	r24, Y+3	; 0x03
    2112:	9c 81       	ldd	r25, Y+4	; 0x04
    2114:	fc 01       	movw	r30, r24
    2116:	84 81       	ldd	r24, Z+4	; 0x04
    2118:	95 81       	ldd	r25, Z+5	; 0x05
    211a:	29 81       	ldd	r18, Y+1	; 0x01
    211c:	3a 81       	ldd	r19, Y+2	; 0x02
    211e:	a9 01       	movw	r20, r18
    2120:	48 1b       	sub	r20, r24
    2122:	59 0b       	sbc	r21, r25
    2124:	ca 01       	movw	r24, r20
    2126:	9a 83       	std	Y+2, r25	; 0x02
    2128:	89 83       	std	Y+1, r24	; 0x01
    else
    {
        mtCOVERAGE_TEST_MARKER();
    }

    return xCount;
    212a:	89 81       	ldd	r24, Y+1	; 0x01
    212c:	9a 81       	ldd	r25, Y+2	; 0x02
}
    212e:	0f 90       	pop	r0
    2130:	0f 90       	pop	r0
    2132:	0f 90       	pop	r0
    2134:	0f 90       	pop	r0
    2136:	df 91       	pop	r29
    2138:	cf 91       	pop	r28
    213a:	08 95       	ret

0000213c <prvInitialiseNewStreamBuffer>:
static void prvInitialiseNewStreamBuffer( StreamBuffer_t * const pxStreamBuffer,
                                          uint8_t * const pucBuffer,
                                          size_t xBufferSizeBytes,
                                          size_t xTriggerLevelBytes,
                                          uint8_t ucFlags )
{
    213c:	0f 93       	push	r16
    213e:	cf 93       	push	r28
    2140:	df 93       	push	r29
    2142:	cd b7       	in	r28, 0x3d	; 61
    2144:	de b7       	in	r29, 0x3e	; 62
    2146:	29 97       	sbiw	r28, 0x09	; 9
    2148:	0f b6       	in	r0, 0x3f	; 63
    214a:	f8 94       	cli
    214c:	de bf       	out	0x3e, r29	; 62
    214e:	0f be       	out	0x3f, r0	; 63
    2150:	cd bf       	out	0x3d, r28	; 61
    2152:	9a 83       	std	Y+2, r25	; 0x02
    2154:	89 83       	std	Y+1, r24	; 0x01
    2156:	7c 83       	std	Y+4, r23	; 0x04
    2158:	6b 83       	std	Y+3, r22	; 0x03
    215a:	5e 83       	std	Y+6, r21	; 0x06
    215c:	4d 83       	std	Y+5, r20	; 0x05
    215e:	38 87       	std	Y+8, r19	; 0x08
    2160:	2f 83       	std	Y+7, r18	; 0x07
    2162:	09 87       	std	Y+9, r16	; 0x09
        const BaseType_t xWriteValue = 0x55;
        configASSERT( memset( pucBuffer, ( int ) xWriteValue, xBufferSizeBytes ) == pucBuffer );
    } /*lint !e529 !e438 xWriteValue is only used if configASSERT() is defined. */
    #endif

    ( void ) memset( ( void * ) pxStreamBuffer, 0x00, sizeof( StreamBuffer_t ) ); /*lint !e9087 memset() requires void *. */
    2164:	89 81       	ldd	r24, Y+1	; 0x01
    2166:	9a 81       	ldd	r25, Y+2	; 0x02
    2168:	40 e1       	ldi	r20, 0x10	; 16
    216a:	50 e0       	ldi	r21, 0x00	; 0
    216c:	60 e0       	ldi	r22, 0x00	; 0
    216e:	70 e0       	ldi	r23, 0x00	; 0
    2170:	0e 94 c6 36 	call	0x6d8c	; 0x6d8c <memset>
    pxStreamBuffer->pucBuffer = pucBuffer;
    2174:	89 81       	ldd	r24, Y+1	; 0x01
    2176:	9a 81       	ldd	r25, Y+2	; 0x02
    2178:	2b 81       	ldd	r18, Y+3	; 0x03
    217a:	3c 81       	ldd	r19, Y+4	; 0x04
    217c:	fc 01       	movw	r30, r24
    217e:	35 87       	std	Z+13, r19	; 0x0d
    2180:	24 87       	std	Z+12, r18	; 0x0c
    pxStreamBuffer->xLength = xBufferSizeBytes;
    2182:	89 81       	ldd	r24, Y+1	; 0x01
    2184:	9a 81       	ldd	r25, Y+2	; 0x02
    2186:	2d 81       	ldd	r18, Y+5	; 0x05
    2188:	3e 81       	ldd	r19, Y+6	; 0x06
    218a:	fc 01       	movw	r30, r24
    218c:	35 83       	std	Z+5, r19	; 0x05
    218e:	24 83       	std	Z+4, r18	; 0x04
    pxStreamBuffer->xTriggerLevelBytes = xTriggerLevelBytes;
    2190:	89 81       	ldd	r24, Y+1	; 0x01
    2192:	9a 81       	ldd	r25, Y+2	; 0x02
    2194:	2f 81       	ldd	r18, Y+7	; 0x07
    2196:	38 85       	ldd	r19, Y+8	; 0x08
    2198:	fc 01       	movw	r30, r24
    219a:	37 83       	std	Z+7, r19	; 0x07
    219c:	26 83       	std	Z+6, r18	; 0x06
    pxStreamBuffer->ucFlags = ucFlags;
    219e:	89 81       	ldd	r24, Y+1	; 0x01
    21a0:	9a 81       	ldd	r25, Y+2	; 0x02
    21a2:	29 85       	ldd	r18, Y+9	; 0x09
    21a4:	fc 01       	movw	r30, r24
    21a6:	26 87       	std	Z+14, r18	; 0x0e
}
    21a8:	00 00       	nop
    21aa:	29 96       	adiw	r28, 0x09	; 9
    21ac:	0f b6       	in	r0, 0x3f	; 63
    21ae:	f8 94       	cli
    21b0:	de bf       	out	0x3e, r29	; 62
    21b2:	0f be       	out	0x3f, r0	; 63
    21b4:	cd bf       	out	0x3d, r28	; 61
    21b6:	df 91       	pop	r29
    21b8:	cf 91       	pop	r28
    21ba:	0f 91       	pop	r16
    21bc:	08 95       	ret

000021be <xTaskCreate>:
    21be:	af 92       	push	r10
    21c0:	bf 92       	push	r11
    21c2:	cf 92       	push	r12
    21c4:	df 92       	push	r13
    21c6:	ef 92       	push	r14
    21c8:	ff 92       	push	r15
    21ca:	0f 93       	push	r16
    21cc:	cf 93       	push	r28
    21ce:	df 93       	push	r29
    21d0:	cd b7       	in	r28, 0x3d	; 61
    21d2:	de b7       	in	r29, 0x3e	; 62
    21d4:	60 97       	sbiw	r28, 0x10	; 16
    21d6:	0f b6       	in	r0, 0x3f	; 63
    21d8:	f8 94       	cli
    21da:	de bf       	out	0x3e, r29	; 62
    21dc:	0f be       	out	0x3f, r0	; 63
    21de:	cd bf       	out	0x3d, r28	; 61
    21e0:	9f 83       	std	Y+7, r25	; 0x07
    21e2:	8e 83       	std	Y+6, r24	; 0x06
    21e4:	79 87       	std	Y+9, r23	; 0x09
    21e6:	68 87       	std	Y+8, r22	; 0x08
    21e8:	5b 87       	std	Y+11, r21	; 0x0b
    21ea:	4a 87       	std	Y+10, r20	; 0x0a
    21ec:	3d 87       	std	Y+13, r19	; 0x0d
    21ee:	2c 87       	std	Y+12, r18	; 0x0c
    21f0:	0e 87       	std	Y+14, r16	; 0x0e
    21f2:	f8 8a       	std	Y+16, r15	; 0x10
    21f4:	ef 86       	std	Y+15, r14	; 0x0f
    21f6:	8a 85       	ldd	r24, Y+10	; 0x0a
    21f8:	9b 85       	ldd	r25, Y+11	; 0x0b
    21fa:	0e 94 8d 01 	call	0x31a	; 0x31a <pvPortMalloc>
    21fe:	9d 83       	std	Y+5, r25	; 0x05
    2200:	8c 83       	std	Y+4, r24	; 0x04
    2202:	8c 81       	ldd	r24, Y+4	; 0x04
    2204:	9d 81       	ldd	r25, Y+5	; 0x05
    2206:	89 2b       	or	r24, r25
    2208:	b9 f0       	breq	.+46     	; 0x2238 <__stack+0x39>
    220a:	8c e2       	ldi	r24, 0x2C	; 44
    220c:	90 e0       	ldi	r25, 0x00	; 0
    220e:	0e 94 8d 01 	call	0x31a	; 0x31a <pvPortMalloc>
    2212:	9a 83       	std	Y+2, r25	; 0x02
    2214:	89 83       	std	Y+1, r24	; 0x01
    2216:	89 81       	ldd	r24, Y+1	; 0x01
    2218:	9a 81       	ldd	r25, Y+2	; 0x02
    221a:	89 2b       	or	r24, r25
    221c:	41 f0       	breq	.+16     	; 0x222e <__stack+0x2f>
    221e:	89 81       	ldd	r24, Y+1	; 0x01
    2220:	9a 81       	ldd	r25, Y+2	; 0x02
    2222:	2c 81       	ldd	r18, Y+4	; 0x04
    2224:	3d 81       	ldd	r19, Y+5	; 0x05
    2226:	fc 01       	movw	r30, r24
    2228:	30 8f       	std	Z+24, r19	; 0x18
    222a:	27 8b       	std	Z+23, r18	; 0x17
    222c:	07 c0       	rjmp	.+14     	; 0x223c <__stack+0x3d>
    222e:	8c 81       	ldd	r24, Y+4	; 0x04
    2230:	9d 81       	ldd	r25, Y+5	; 0x05
    2232:	0e 94 ae 01 	call	0x35c	; 0x35c <vPortFree>
    2236:	02 c0       	rjmp	.+4      	; 0x223c <__stack+0x3d>
    2238:	1a 82       	std	Y+2, r1	; 0x02
    223a:	19 82       	std	Y+1, r1	; 0x01
    223c:	89 81       	ldd	r24, Y+1	; 0x01
    223e:	9a 81       	ldd	r25, Y+2	; 0x02
    2240:	89 2b       	or	r24, r25
    2242:	c1 f0       	breq	.+48     	; 0x2274 <__stack+0x75>
    2244:	a9 81       	ldd	r26, Y+1	; 0x01
    2246:	ba 81       	ldd	r27, Y+2	; 0x02
    2248:	ef 85       	ldd	r30, Y+15	; 0x0f
    224a:	f8 89       	ldd	r31, Y+16	; 0x10
    224c:	2c 85       	ldd	r18, Y+12	; 0x0c
    224e:	3d 85       	ldd	r19, Y+13	; 0x0d
    2250:	4a 85       	ldd	r20, Y+10	; 0x0a
    2252:	5b 85       	ldd	r21, Y+11	; 0x0b
    2254:	68 85       	ldd	r22, Y+8	; 0x08
    2256:	79 85       	ldd	r23, Y+9	; 0x09
    2258:	8e 81       	ldd	r24, Y+6	; 0x06
    225a:	9f 81       	ldd	r25, Y+7	; 0x07
    225c:	a1 2c       	mov	r10, r1
    225e:	b1 2c       	mov	r11, r1
    2260:	6d 01       	movw	r12, r26
    2262:	7f 01       	movw	r14, r30
    2264:	0e 85       	ldd	r16, Y+14	; 0x0e
    2266:	19 d0       	rcall	.+50     	; 0x229a <prvInitialiseNewTask>
    2268:	89 81       	ldd	r24, Y+1	; 0x01
    226a:	9a 81       	ldd	r25, Y+2	; 0x02
    226c:	f5 d0       	rcall	.+490    	; 0x2458 <prvAddNewTaskToReadyList>
    226e:	81 e0       	ldi	r24, 0x01	; 1
    2270:	8b 83       	std	Y+3, r24	; 0x03
    2272:	02 c0       	rjmp	.+4      	; 0x2278 <__stack+0x79>
    2274:	8f ef       	ldi	r24, 0xFF	; 255
    2276:	8b 83       	std	Y+3, r24	; 0x03
    2278:	8b 81       	ldd	r24, Y+3	; 0x03
    227a:	60 96       	adiw	r28, 0x10	; 16
    227c:	0f b6       	in	r0, 0x3f	; 63
    227e:	f8 94       	cli
    2280:	de bf       	out	0x3e, r29	; 62
    2282:	0f be       	out	0x3f, r0	; 63
    2284:	cd bf       	out	0x3d, r28	; 61
    2286:	df 91       	pop	r29
    2288:	cf 91       	pop	r28
    228a:	0f 91       	pop	r16
    228c:	ff 90       	pop	r15
    228e:	ef 90       	pop	r14
    2290:	df 90       	pop	r13
    2292:	cf 90       	pop	r12
    2294:	bf 90       	pop	r11
    2296:	af 90       	pop	r10
    2298:	08 95       	ret

0000229a <prvInitialiseNewTask>:
    229a:	af 92       	push	r10
    229c:	bf 92       	push	r11
    229e:	cf 92       	push	r12
    22a0:	df 92       	push	r13
    22a2:	ef 92       	push	r14
    22a4:	ff 92       	push	r15
    22a6:	0f 93       	push	r16
    22a8:	cf 93       	push	r28
    22aa:	df 93       	push	r29
    22ac:	cd b7       	in	r28, 0x3d	; 61
    22ae:	de b7       	in	r29, 0x3e	; 62
    22b0:	62 97       	sbiw	r28, 0x12	; 18
    22b2:	0f b6       	in	r0, 0x3f	; 63
    22b4:	f8 94       	cli
    22b6:	de bf       	out	0x3e, r29	; 62
    22b8:	0f be       	out	0x3f, r0	; 63
    22ba:	cd bf       	out	0x3d, r28	; 61
    22bc:	9d 83       	std	Y+5, r25	; 0x05
    22be:	8c 83       	std	Y+4, r24	; 0x04
    22c0:	7f 83       	std	Y+7, r23	; 0x07
    22c2:	6e 83       	std	Y+6, r22	; 0x06
    22c4:	59 87       	std	Y+9, r21	; 0x09
    22c6:	48 87       	std	Y+8, r20	; 0x08
    22c8:	3b 87       	std	Y+11, r19	; 0x0b
    22ca:	2a 87       	std	Y+10, r18	; 0x0a
    22cc:	0c 87       	std	Y+12, r16	; 0x0c
    22ce:	fe 86       	std	Y+14, r15	; 0x0e
    22d0:	ed 86       	std	Y+13, r14	; 0x0d
    22d2:	d8 8a       	std	Y+16, r13	; 0x10
    22d4:	cf 86       	std	Y+15, r12	; 0x0f
    22d6:	ba 8a       	std	Y+18, r11	; 0x12
    22d8:	a9 8a       	std	Y+17, r10	; 0x11
    22da:	8f 85       	ldd	r24, Y+15	; 0x0f
    22dc:	98 89       	ldd	r25, Y+16	; 0x10
    22de:	fc 01       	movw	r30, r24
    22e0:	87 89       	ldd	r24, Z+23	; 0x17
    22e2:	90 8d       	ldd	r25, Z+24	; 0x18
    22e4:	28 85       	ldd	r18, Y+8	; 0x08
    22e6:	39 85       	ldd	r19, Y+9	; 0x09
    22e8:	a9 01       	movw	r20, r18
    22ea:	65 ea       	ldi	r22, 0xA5	; 165
    22ec:	70 e0       	ldi	r23, 0x00	; 0
    22ee:	0e 94 c6 36 	call	0x6d8c	; 0x6d8c <memset>
    22f2:	8f 85       	ldd	r24, Y+15	; 0x0f
    22f4:	98 89       	ldd	r25, Y+16	; 0x10
    22f6:	fc 01       	movw	r30, r24
    22f8:	27 89       	ldd	r18, Z+23	; 0x17
    22fa:	30 8d       	ldd	r19, Z+24	; 0x18
    22fc:	88 85       	ldd	r24, Y+8	; 0x08
    22fe:	99 85       	ldd	r25, Y+9	; 0x09
    2300:	01 97       	sbiw	r24, 0x01	; 1
    2302:	82 0f       	add	r24, r18
    2304:	93 1f       	adc	r25, r19
    2306:	9b 83       	std	Y+3, r25	; 0x03
    2308:	8a 83       	std	Y+2, r24	; 0x02
    230a:	8e 81       	ldd	r24, Y+6	; 0x06
    230c:	9f 81       	ldd	r25, Y+7	; 0x07
    230e:	89 2b       	or	r24, r25
    2310:	69 f1       	breq	.+90     	; 0x236c <prvInitialiseNewTask+0xd2>
    2312:	19 82       	std	Y+1, r1	; 0x01
    2314:	21 c0       	rjmp	.+66     	; 0x2358 <prvInitialiseNewTask+0xbe>
    2316:	89 81       	ldd	r24, Y+1	; 0x01
    2318:	88 2f       	mov	r24, r24
    231a:	90 e0       	ldi	r25, 0x00	; 0
    231c:	29 81       	ldd	r18, Y+1	; 0x01
    231e:	22 2f       	mov	r18, r18
    2320:	30 e0       	ldi	r19, 0x00	; 0
    2322:	4e 81       	ldd	r20, Y+6	; 0x06
    2324:	5f 81       	ldd	r21, Y+7	; 0x07
    2326:	24 0f       	add	r18, r20
    2328:	35 1f       	adc	r19, r21
    232a:	f9 01       	movw	r30, r18
    232c:	40 81       	ld	r20, Z
    232e:	2f 85       	ldd	r18, Y+15	; 0x0f
    2330:	38 89       	ldd	r19, Y+16	; 0x10
    2332:	82 0f       	add	r24, r18
    2334:	93 1f       	adc	r25, r19
    2336:	49 96       	adiw	r24, 0x19	; 25
    2338:	fc 01       	movw	r30, r24
    233a:	40 83       	st	Z, r20
    233c:	89 81       	ldd	r24, Y+1	; 0x01
    233e:	88 2f       	mov	r24, r24
    2340:	90 e0       	ldi	r25, 0x00	; 0
    2342:	2e 81       	ldd	r18, Y+6	; 0x06
    2344:	3f 81       	ldd	r19, Y+7	; 0x07
    2346:	82 0f       	add	r24, r18
    2348:	93 1f       	adc	r25, r19
    234a:	fc 01       	movw	r30, r24
    234c:	80 81       	ld	r24, Z
    234e:	88 23       	and	r24, r24
    2350:	39 f0       	breq	.+14     	; 0x2360 <prvInitialiseNewTask+0xc6>
    2352:	89 81       	ldd	r24, Y+1	; 0x01
    2354:	8f 5f       	subi	r24, 0xFF	; 255
    2356:	89 83       	std	Y+1, r24	; 0x01
    2358:	89 81       	ldd	r24, Y+1	; 0x01
    235a:	88 30       	cpi	r24, 0x08	; 8
    235c:	e0 f2       	brcs	.-72     	; 0x2316 <prvInitialiseNewTask+0x7c>
    235e:	01 c0       	rjmp	.+2      	; 0x2362 <prvInitialiseNewTask+0xc8>
    2360:	00 00       	nop
    2362:	8f 85       	ldd	r24, Y+15	; 0x0f
    2364:	98 89       	ldd	r25, Y+16	; 0x10
    2366:	fc 01       	movw	r30, r24
    2368:	10 a2       	std	Z+32, r1	; 0x20
    236a:	04 c0       	rjmp	.+8      	; 0x2374 <prvInitialiseNewTask+0xda>
    236c:	8f 85       	ldd	r24, Y+15	; 0x0f
    236e:	98 89       	ldd	r25, Y+16	; 0x10
    2370:	fc 01       	movw	r30, r24
    2372:	11 8e       	std	Z+25, r1	; 0x19
    2374:	8c 85       	ldd	r24, Y+12	; 0x0c
    2376:	84 30       	cpi	r24, 0x04	; 4
    2378:	10 f0       	brcs	.+4      	; 0x237e <prvInitialiseNewTask+0xe4>
    237a:	83 e0       	ldi	r24, 0x03	; 3
    237c:	8c 87       	std	Y+12, r24	; 0x0c
    237e:	8f 85       	ldd	r24, Y+15	; 0x0f
    2380:	98 89       	ldd	r25, Y+16	; 0x10
    2382:	2c 85       	ldd	r18, Y+12	; 0x0c
    2384:	fc 01       	movw	r30, r24
    2386:	26 8b       	std	Z+22, r18	; 0x16
    2388:	8f 85       	ldd	r24, Y+15	; 0x0f
    238a:	98 89       	ldd	r25, Y+16	; 0x10
    238c:	2c 85       	ldd	r18, Y+12	; 0x0c
    238e:	fc 01       	movw	r30, r24
    2390:	23 a3       	std	Z+35, r18	; 0x23
    2392:	8f 85       	ldd	r24, Y+15	; 0x0f
    2394:	98 89       	ldd	r25, Y+16	; 0x10
    2396:	fc 01       	movw	r30, r24
    2398:	14 a2       	std	Z+36, r1	; 0x24
    239a:	8f 85       	ldd	r24, Y+15	; 0x0f
    239c:	98 89       	ldd	r25, Y+16	; 0x10
    239e:	02 96       	adiw	r24, 0x02	; 2
    23a0:	0e 94 ff 01 	call	0x3fe	; 0x3fe <vListInitialiseItem>
    23a4:	8f 85       	ldd	r24, Y+15	; 0x0f
    23a6:	98 89       	ldd	r25, Y+16	; 0x10
    23a8:	0c 96       	adiw	r24, 0x0c	; 12
    23aa:	0e 94 ff 01 	call	0x3fe	; 0x3fe <vListInitialiseItem>
    23ae:	8f 85       	ldd	r24, Y+15	; 0x0f
    23b0:	98 89       	ldd	r25, Y+16	; 0x10
    23b2:	2f 85       	ldd	r18, Y+15	; 0x0f
    23b4:	38 89       	ldd	r19, Y+16	; 0x10
    23b6:	fc 01       	movw	r30, r24
    23b8:	31 87       	std	Z+9, r19	; 0x09
    23ba:	20 87       	std	Z+8, r18	; 0x08
    23bc:	8c 85       	ldd	r24, Y+12	; 0x0c
    23be:	88 2f       	mov	r24, r24
    23c0:	90 e0       	ldi	r25, 0x00	; 0
    23c2:	24 e0       	ldi	r18, 0x04	; 4
    23c4:	30 e0       	ldi	r19, 0x00	; 0
    23c6:	28 1b       	sub	r18, r24
    23c8:	39 0b       	sbc	r19, r25
    23ca:	8f 85       	ldd	r24, Y+15	; 0x0f
    23cc:	98 89       	ldd	r25, Y+16	; 0x10
    23ce:	fc 01       	movw	r30, r24
    23d0:	35 87       	std	Z+13, r19	; 0x0d
    23d2:	24 87       	std	Z+12, r18	; 0x0c
    23d4:	8f 85       	ldd	r24, Y+15	; 0x0f
    23d6:	98 89       	ldd	r25, Y+16	; 0x10
    23d8:	2f 85       	ldd	r18, Y+15	; 0x0f
    23da:	38 89       	ldd	r19, Y+16	; 0x10
    23dc:	fc 01       	movw	r30, r24
    23de:	33 8b       	std	Z+19, r19	; 0x13
    23e0:	22 8b       	std	Z+18, r18	; 0x12
    23e2:	8f 85       	ldd	r24, Y+15	; 0x0f
    23e4:	98 89       	ldd	r25, Y+16	; 0x10
    23e6:	fc 01       	movw	r30, r24
    23e8:	16 a2       	std	Z+38, r1	; 0x26
    23ea:	15 a2       	std	Z+37, r1	; 0x25
    23ec:	8f 85       	ldd	r24, Y+15	; 0x0f
    23ee:	98 89       	ldd	r25, Y+16	; 0x10
    23f0:	fc 01       	movw	r30, r24
    23f2:	17 a2       	std	Z+39, r1	; 0x27
    23f4:	10 a6       	std	Z+40, r1	; 0x28
    23f6:	11 a6       	std	Z+41, r1	; 0x29
    23f8:	12 a6       	std	Z+42, r1	; 0x2a
    23fa:	8f 85       	ldd	r24, Y+15	; 0x0f
    23fc:	98 89       	ldd	r25, Y+16	; 0x10
    23fe:	fc 01       	movw	r30, r24
    2400:	13 a6       	std	Z+43, r1	; 0x2b
    2402:	4a 85       	ldd	r20, Y+10	; 0x0a
    2404:	5b 85       	ldd	r21, Y+11	; 0x0b
    2406:	2c 81       	ldd	r18, Y+4	; 0x04
    2408:	3d 81       	ldd	r19, Y+5	; 0x05
    240a:	8a 81       	ldd	r24, Y+2	; 0x02
    240c:	9b 81       	ldd	r25, Y+3	; 0x03
    240e:	b9 01       	movw	r22, r18
    2410:	0e 94 2f 03 	call	0x65e	; 0x65e <pxPortInitialiseStack>
    2414:	9c 01       	movw	r18, r24
    2416:	8f 85       	ldd	r24, Y+15	; 0x0f
    2418:	98 89       	ldd	r25, Y+16	; 0x10
    241a:	fc 01       	movw	r30, r24
    241c:	31 83       	std	Z+1, r19	; 0x01
    241e:	20 83       	st	Z, r18
    2420:	8d 85       	ldd	r24, Y+13	; 0x0d
    2422:	9e 85       	ldd	r25, Y+14	; 0x0e
    2424:	89 2b       	or	r24, r25
    2426:	39 f0       	breq	.+14     	; 0x2436 <prvInitialiseNewTask+0x19c>
    2428:	8d 85       	ldd	r24, Y+13	; 0x0d
    242a:	9e 85       	ldd	r25, Y+14	; 0x0e
    242c:	2f 85       	ldd	r18, Y+15	; 0x0f
    242e:	38 89       	ldd	r19, Y+16	; 0x10
    2430:	fc 01       	movw	r30, r24
    2432:	31 83       	std	Z+1, r19	; 0x01
    2434:	20 83       	st	Z, r18
    2436:	00 00       	nop
    2438:	62 96       	adiw	r28, 0x12	; 18
    243a:	0f b6       	in	r0, 0x3f	; 63
    243c:	f8 94       	cli
    243e:	de bf       	out	0x3e, r29	; 62
    2440:	0f be       	out	0x3f, r0	; 63
    2442:	cd bf       	out	0x3d, r28	; 61
    2444:	df 91       	pop	r29
    2446:	cf 91       	pop	r28
    2448:	0f 91       	pop	r16
    244a:	ff 90       	pop	r15
    244c:	ef 90       	pop	r14
    244e:	df 90       	pop	r13
    2450:	cf 90       	pop	r12
    2452:	bf 90       	pop	r11
    2454:	af 90       	pop	r10
    2456:	08 95       	ret

00002458 <prvAddNewTaskToReadyList>:
    2458:	cf 93       	push	r28
    245a:	df 93       	push	r29
    245c:	1f 92       	push	r1
    245e:	1f 92       	push	r1
    2460:	cd b7       	in	r28, 0x3d	; 61
    2462:	de b7       	in	r29, 0x3e	; 62
    2464:	9a 83       	std	Y+2, r25	; 0x02
    2466:	89 83       	std	Y+1, r24	; 0x01
    2468:	0f b6       	in	r0, 0x3f	; 63
    246a:	f8 94       	cli
    246c:	0f 92       	push	r0
    246e:	80 91 6a 08 	lds	r24, 0x086A	; 0x80086a <uxCurrentNumberOfTasks>
    2472:	8f 5f       	subi	r24, 0xFF	; 255
    2474:	80 93 6a 08 	sts	0x086A, r24	; 0x80086a <uxCurrentNumberOfTasks>
    2478:	80 91 12 08 	lds	r24, 0x0812	; 0x800812 <__data_end>
    247c:	90 91 13 08 	lds	r25, 0x0813	; 0x800813 <__data_end+0x1>
    2480:	89 2b       	or	r24, r25
    2482:	61 f4       	brne	.+24     	; 0x249c <prvAddNewTaskToReadyList+0x44>
    2484:	89 81       	ldd	r24, Y+1	; 0x01
    2486:	9a 81       	ldd	r25, Y+2	; 0x02
    2488:	90 93 13 08 	sts	0x0813, r25	; 0x800813 <__data_end+0x1>
    248c:	80 93 12 08 	sts	0x0812, r24	; 0x800812 <__data_end>
    2490:	80 91 6a 08 	lds	r24, 0x086A	; 0x80086a <uxCurrentNumberOfTasks>
    2494:	81 30       	cpi	r24, 0x01	; 1
    2496:	c1 f4       	brne	.+48     	; 0x24c8 <prvAddNewTaskToReadyList+0x70>
    2498:	65 d4       	rcall	.+2250   	; 0x2d64 <prvInitialiseTaskLists>
    249a:	16 c0       	rjmp	.+44     	; 0x24c8 <prvAddNewTaskToReadyList+0x70>
    249c:	80 91 6e 08 	lds	r24, 0x086E	; 0x80086e <xSchedulerRunning>
    24a0:	88 23       	and	r24, r24
    24a2:	91 f4       	brne	.+36     	; 0x24c8 <prvAddNewTaskToReadyList+0x70>
    24a4:	80 91 12 08 	lds	r24, 0x0812	; 0x800812 <__data_end>
    24a8:	90 91 13 08 	lds	r25, 0x0813	; 0x800813 <__data_end+0x1>
    24ac:	fc 01       	movw	r30, r24
    24ae:	26 89       	ldd	r18, Z+22	; 0x16
    24b0:	89 81       	ldd	r24, Y+1	; 0x01
    24b2:	9a 81       	ldd	r25, Y+2	; 0x02
    24b4:	fc 01       	movw	r30, r24
    24b6:	86 89       	ldd	r24, Z+22	; 0x16
    24b8:	82 17       	cp	r24, r18
    24ba:	30 f0       	brcs	.+12     	; 0x24c8 <prvAddNewTaskToReadyList+0x70>
    24bc:	89 81       	ldd	r24, Y+1	; 0x01
    24be:	9a 81       	ldd	r25, Y+2	; 0x02
    24c0:	90 93 13 08 	sts	0x0813, r25	; 0x800813 <__data_end+0x1>
    24c4:	80 93 12 08 	sts	0x0812, r24	; 0x800812 <__data_end>
    24c8:	80 91 72 08 	lds	r24, 0x0872	; 0x800872 <uxTaskNumber>
    24cc:	8f 5f       	subi	r24, 0xFF	; 255
    24ce:	80 93 72 08 	sts	0x0872, r24	; 0x800872 <uxTaskNumber>
    24d2:	20 91 72 08 	lds	r18, 0x0872	; 0x800872 <uxTaskNumber>
    24d6:	89 81       	ldd	r24, Y+1	; 0x01
    24d8:	9a 81       	ldd	r25, Y+2	; 0x02
    24da:	fc 01       	movw	r30, r24
    24dc:	21 a3       	std	Z+33, r18	; 0x21
    24de:	89 81       	ldd	r24, Y+1	; 0x01
    24e0:	9a 81       	ldd	r25, Y+2	; 0x02
    24e2:	fc 01       	movw	r30, r24
    24e4:	96 89       	ldd	r25, Z+22	; 0x16
    24e6:	80 91 6d 08 	lds	r24, 0x086D	; 0x80086d <uxTopReadyPriority>
    24ea:	89 17       	cp	r24, r25
    24ec:	30 f4       	brcc	.+12     	; 0x24fa <prvAddNewTaskToReadyList+0xa2>
    24ee:	89 81       	ldd	r24, Y+1	; 0x01
    24f0:	9a 81       	ldd	r25, Y+2	; 0x02
    24f2:	fc 01       	movw	r30, r24
    24f4:	86 89       	ldd	r24, Z+22	; 0x16
    24f6:	80 93 6d 08 	sts	0x086D, r24	; 0x80086d <uxTopReadyPriority>
    24fa:	89 81       	ldd	r24, Y+1	; 0x01
    24fc:	9a 81       	ldd	r25, Y+2	; 0x02
    24fe:	ac 01       	movw	r20, r24
    2500:	4e 5f       	subi	r20, 0xFE	; 254
    2502:	5f 4f       	sbci	r21, 0xFF	; 255
    2504:	89 81       	ldd	r24, Y+1	; 0x01
    2506:	9a 81       	ldd	r25, Y+2	; 0x02
    2508:	fc 01       	movw	r30, r24
    250a:	86 89       	ldd	r24, Z+22	; 0x16
    250c:	28 2f       	mov	r18, r24
    250e:	30 e0       	ldi	r19, 0x00	; 0
    2510:	c9 01       	movw	r24, r18
    2512:	88 0f       	add	r24, r24
    2514:	99 1f       	adc	r25, r25
    2516:	88 0f       	add	r24, r24
    2518:	99 1f       	adc	r25, r25
    251a:	88 0f       	add	r24, r24
    251c:	99 1f       	adc	r25, r25
    251e:	82 0f       	add	r24, r18
    2520:	93 1f       	adc	r25, r19
    2522:	8c 5e       	subi	r24, 0xEC	; 236
    2524:	97 4f       	sbci	r25, 0xF7	; 247
    2526:	ba 01       	movw	r22, r20
    2528:	0e 94 12 02 	call	0x424	; 0x424 <vListInsertEnd>
    252c:	0f 90       	pop	r0
    252e:	0f be       	out	0x3f, r0	; 63
    2530:	80 91 6e 08 	lds	r24, 0x086E	; 0x80086e <xSchedulerRunning>
    2534:	88 23       	and	r24, r24
    2536:	71 f0       	breq	.+28     	; 0x2554 <prvAddNewTaskToReadyList+0xfc>
    2538:	80 91 12 08 	lds	r24, 0x0812	; 0x800812 <__data_end>
    253c:	90 91 13 08 	lds	r25, 0x0813	; 0x800813 <__data_end+0x1>
    2540:	fc 01       	movw	r30, r24
    2542:	26 89       	ldd	r18, Z+22	; 0x16
    2544:	89 81       	ldd	r24, Y+1	; 0x01
    2546:	9a 81       	ldd	r25, Y+2	; 0x02
    2548:	fc 01       	movw	r30, r24
    254a:	86 89       	ldd	r24, Z+22	; 0x16
    254c:	28 17       	cp	r18, r24
    254e:	10 f4       	brcc	.+4      	; 0x2554 <prvAddNewTaskToReadyList+0xfc>
    2550:	0e 94 2b 05 	call	0xa56	; 0xa56 <vPortYield>
    2554:	00 00       	nop
    2556:	0f 90       	pop	r0
    2558:	0f 90       	pop	r0
    255a:	df 91       	pop	r29
    255c:	cf 91       	pop	r28
    255e:	08 95       	ret

00002560 <vTaskDelay>:
    2560:	cf 93       	push	r28
    2562:	df 93       	push	r29
    2564:	00 d0       	rcall	.+0      	; 0x2566 <vTaskDelay+0x6>
    2566:	cd b7       	in	r28, 0x3d	; 61
    2568:	de b7       	in	r29, 0x3e	; 62
    256a:	9b 83       	std	Y+3, r25	; 0x03
    256c:	8a 83       	std	Y+2, r24	; 0x02
    256e:	19 82       	std	Y+1, r1	; 0x01
    2570:	8a 81       	ldd	r24, Y+2	; 0x02
    2572:	9b 81       	ldd	r25, Y+3	; 0x03
    2574:	89 2b       	or	r24, r25
    2576:	41 f0       	breq	.+16     	; 0x2588 <vTaskDelay+0x28>
    2578:	56 d0       	rcall	.+172    	; 0x2626 <vTaskSuspendAll>
    257a:	8a 81       	ldd	r24, Y+2	; 0x02
    257c:	9b 81       	ldd	r25, Y+3	; 0x03
    257e:	60 e0       	ldi	r22, 0x00	; 0
    2580:	0e 94 30 1c 	call	0x3860	; 0x3860 <prvAddCurrentTaskToDelayedList>
    2584:	5d d0       	rcall	.+186    	; 0x2640 <xTaskResumeAll>
    2586:	89 83       	std	Y+1, r24	; 0x01
    2588:	89 81       	ldd	r24, Y+1	; 0x01
    258a:	88 23       	and	r24, r24
    258c:	11 f4       	brne	.+4      	; 0x2592 <vTaskDelay+0x32>
    258e:	0e 94 2b 05 	call	0xa56	; 0xa56 <vPortYield>
    2592:	00 00       	nop
    2594:	0f 90       	pop	r0
    2596:	0f 90       	pop	r0
    2598:	0f 90       	pop	r0
    259a:	df 91       	pop	r29
    259c:	cf 91       	pop	r28
    259e:	08 95       	ret

000025a0 <vTaskStartScheduler>:
    25a0:	ef 92       	push	r14
    25a2:	ff 92       	push	r15
    25a4:	0f 93       	push	r16
    25a6:	cf 93       	push	r28
    25a8:	df 93       	push	r29
    25aa:	1f 92       	push	r1
    25ac:	cd b7       	in	r28, 0x3d	; 61
    25ae:	de b7       	in	r29, 0x3e	; 62
    25b0:	0f 2e       	mov	r0, r31
    25b2:	f5 e7       	ldi	r31, 0x75	; 117
    25b4:	ef 2e       	mov	r14, r31
    25b6:	f8 e0       	ldi	r31, 0x08	; 8
    25b8:	ff 2e       	mov	r15, r31
    25ba:	f0 2d       	mov	r31, r0
    25bc:	00 e0       	ldi	r16, 0x00	; 0
    25be:	20 e0       	ldi	r18, 0x00	; 0
    25c0:	30 e0       	ldi	r19, 0x00	; 0
    25c2:	40 ec       	ldi	r20, 0xC0	; 192
    25c4:	50 e0       	ldi	r21, 0x00	; 0
    25c6:	61 e2       	ldi	r22, 0x21	; 33
    25c8:	72 e0       	ldi	r23, 0x02	; 2
    25ca:	8d ec       	ldi	r24, 0xCD	; 205
    25cc:	90 e0       	ldi	r25, 0x00	; 0
    25ce:	f7 dd       	rcall	.-1042   	; 0x21be <xTaskCreate>
    25d0:	89 83       	std	Y+1, r24	; 0x01
    25d2:	89 81       	ldd	r24, Y+1	; 0x01
    25d4:	81 30       	cpi	r24, 0x01	; 1
    25d6:	19 f4       	brne	.+6      	; 0x25de <vTaskStartScheduler+0x3e>
    25d8:	0e 94 aa 1c 	call	0x3954	; 0x3954 <xTimerCreateTimerTask>
    25dc:	89 83       	std	Y+1, r24	; 0x01
    25de:	89 81       	ldd	r24, Y+1	; 0x01
    25e0:	81 30       	cpi	r24, 0x01	; 1
    25e2:	c9 f4       	brne	.+50     	; 0x2616 <vTaskStartScheduler+0x76>
    25e4:	f8 94       	cli
    25e6:	8f ef       	ldi	r24, 0xFF	; 255
    25e8:	9f ef       	ldi	r25, 0xFF	; 255
    25ea:	90 93 74 08 	sts	0x0874, r25	; 0x800874 <xNextTaskUnblockTime+0x1>
    25ee:	80 93 73 08 	sts	0x0873, r24	; 0x800873 <xNextTaskUnblockTime>
    25f2:	81 e0       	ldi	r24, 0x01	; 1
    25f4:	80 93 6e 08 	sts	0x086E, r24	; 0x80086e <xSchedulerRunning>
    25f8:	10 92 6c 08 	sts	0x086C, r1	; 0x80086c <xTickCount+0x1>
    25fc:	10 92 6b 08 	sts	0x086B, r1	; 0x80086b <xTickCount>
    2600:	80 91 12 08 	lds	r24, 0x0812	; 0x800812 <__data_end>
    2604:	90 91 13 08 	lds	r25, 0x0813	; 0x800813 <__data_end+0x1>
    2608:	fc 01       	movw	r30, r24
    260a:	85 a1       	ldd	r24, Z+37	; 0x25
    260c:	96 a1       	ldd	r25, Z+38	; 0x26
    260e:	0e 94 59 01 	call	0x2b2	; 0x2b2 <task_switch_in>
    2612:	0e 94 f3 04 	call	0x9e6	; 0x9e6 <xPortStartScheduler>
    2616:	00 00       	nop
    2618:	0f 90       	pop	r0
    261a:	df 91       	pop	r29
    261c:	cf 91       	pop	r28
    261e:	0f 91       	pop	r16
    2620:	ff 90       	pop	r15
    2622:	ef 90       	pop	r14
    2624:	08 95       	ret

00002626 <vTaskSuspendAll>:
    2626:	cf 93       	push	r28
    2628:	df 93       	push	r29
    262a:	cd b7       	in	r28, 0x3d	; 61
    262c:	de b7       	in	r29, 0x3e	; 62
    262e:	80 91 77 08 	lds	r24, 0x0877	; 0x800877 <uxSchedulerSuspended>
    2632:	8f 5f       	subi	r24, 0xFF	; 255
    2634:	80 93 77 08 	sts	0x0877, r24	; 0x800877 <uxSchedulerSuspended>
    2638:	00 00       	nop
    263a:	df 91       	pop	r29
    263c:	cf 91       	pop	r28
    263e:	08 95       	ret

00002640 <xTaskResumeAll>:
    2640:	cf 93       	push	r28
    2642:	df 93       	push	r29
    2644:	00 d0       	rcall	.+0      	; 0x2646 <xTaskResumeAll+0x6>
    2646:	1f 92       	push	r1
    2648:	cd b7       	in	r28, 0x3d	; 61
    264a:	de b7       	in	r29, 0x3e	; 62
    264c:	1a 82       	std	Y+2, r1	; 0x02
    264e:	19 82       	std	Y+1, r1	; 0x01
    2650:	1b 82       	std	Y+3, r1	; 0x03
    2652:	0f b6       	in	r0, 0x3f	; 63
    2654:	f8 94       	cli
    2656:	0f 92       	push	r0
    2658:	80 91 77 08 	lds	r24, 0x0877	; 0x800877 <uxSchedulerSuspended>
    265c:	81 50       	subi	r24, 0x01	; 1
    265e:	80 93 77 08 	sts	0x0877, r24	; 0x800877 <uxSchedulerSuspended>
    2662:	80 91 77 08 	lds	r24, 0x0877	; 0x800877 <uxSchedulerSuspended>
    2666:	88 23       	and	r24, r24
    2668:	09 f0       	breq	.+2      	; 0x266c <xTaskResumeAll+0x2c>
    266a:	75 c0       	rjmp	.+234    	; 0x2756 <xTaskResumeAll+0x116>
    266c:	80 91 6a 08 	lds	r24, 0x086A	; 0x80086a <uxCurrentNumberOfTasks>
    2670:	88 23       	and	r24, r24
    2672:	09 f4       	brne	.+2      	; 0x2676 <xTaskResumeAll+0x36>
    2674:	70 c0       	rjmp	.+224    	; 0x2756 <xTaskResumeAll+0x116>
    2676:	49 c0       	rjmp	.+146    	; 0x270a <xTaskResumeAll+0xca>
    2678:	80 91 53 08 	lds	r24, 0x0853	; 0x800853 <xPendingReadyList+0x5>
    267c:	90 91 54 08 	lds	r25, 0x0854	; 0x800854 <xPendingReadyList+0x6>
    2680:	fc 01       	movw	r30, r24
    2682:	86 81       	ldd	r24, Z+6	; 0x06
    2684:	97 81       	ldd	r25, Z+7	; 0x07
    2686:	9a 83       	std	Y+2, r25	; 0x02
    2688:	89 83       	std	Y+1, r24	; 0x01
    268a:	89 81       	ldd	r24, Y+1	; 0x01
    268c:	9a 81       	ldd	r25, Y+2	; 0x02
    268e:	0c 96       	adiw	r24, 0x0c	; 12
    2690:	0e 94 d8 02 	call	0x5b0	; 0x5b0 <uxListRemove>
    2694:	89 81       	ldd	r24, Y+1	; 0x01
    2696:	9a 81       	ldd	r25, Y+2	; 0x02
    2698:	02 96       	adiw	r24, 0x02	; 2
    269a:	0e 94 d8 02 	call	0x5b0	; 0x5b0 <uxListRemove>
    269e:	89 81       	ldd	r24, Y+1	; 0x01
    26a0:	9a 81       	ldd	r25, Y+2	; 0x02
    26a2:	fc 01       	movw	r30, r24
    26a4:	96 89       	ldd	r25, Z+22	; 0x16
    26a6:	80 91 6d 08 	lds	r24, 0x086D	; 0x80086d <uxTopReadyPriority>
    26aa:	89 17       	cp	r24, r25
    26ac:	30 f4       	brcc	.+12     	; 0x26ba <xTaskResumeAll+0x7a>
    26ae:	89 81       	ldd	r24, Y+1	; 0x01
    26b0:	9a 81       	ldd	r25, Y+2	; 0x02
    26b2:	fc 01       	movw	r30, r24
    26b4:	86 89       	ldd	r24, Z+22	; 0x16
    26b6:	80 93 6d 08 	sts	0x086D, r24	; 0x80086d <uxTopReadyPriority>
    26ba:	89 81       	ldd	r24, Y+1	; 0x01
    26bc:	9a 81       	ldd	r25, Y+2	; 0x02
    26be:	ac 01       	movw	r20, r24
    26c0:	4e 5f       	subi	r20, 0xFE	; 254
    26c2:	5f 4f       	sbci	r21, 0xFF	; 255
    26c4:	89 81       	ldd	r24, Y+1	; 0x01
    26c6:	9a 81       	ldd	r25, Y+2	; 0x02
    26c8:	fc 01       	movw	r30, r24
    26ca:	86 89       	ldd	r24, Z+22	; 0x16
    26cc:	28 2f       	mov	r18, r24
    26ce:	30 e0       	ldi	r19, 0x00	; 0
    26d0:	c9 01       	movw	r24, r18
    26d2:	88 0f       	add	r24, r24
    26d4:	99 1f       	adc	r25, r25
    26d6:	88 0f       	add	r24, r24
    26d8:	99 1f       	adc	r25, r25
    26da:	88 0f       	add	r24, r24
    26dc:	99 1f       	adc	r25, r25
    26de:	82 0f       	add	r24, r18
    26e0:	93 1f       	adc	r25, r19
    26e2:	8c 5e       	subi	r24, 0xEC	; 236
    26e4:	97 4f       	sbci	r25, 0xF7	; 247
    26e6:	ba 01       	movw	r22, r20
    26e8:	0e 94 12 02 	call	0x424	; 0x424 <vListInsertEnd>
    26ec:	89 81       	ldd	r24, Y+1	; 0x01
    26ee:	9a 81       	ldd	r25, Y+2	; 0x02
    26f0:	fc 01       	movw	r30, r24
    26f2:	26 89       	ldd	r18, Z+22	; 0x16
    26f4:	80 91 12 08 	lds	r24, 0x0812	; 0x800812 <__data_end>
    26f8:	90 91 13 08 	lds	r25, 0x0813	; 0x800813 <__data_end+0x1>
    26fc:	fc 01       	movw	r30, r24
    26fe:	86 89       	ldd	r24, Z+22	; 0x16
    2700:	28 17       	cp	r18, r24
    2702:	18 f0       	brcs	.+6      	; 0x270a <xTaskResumeAll+0xca>
    2704:	81 e0       	ldi	r24, 0x01	; 1
    2706:	80 93 70 08 	sts	0x0870, r24	; 0x800870 <xYieldPending>
    270a:	80 91 4e 08 	lds	r24, 0x084E	; 0x80084e <xPendingReadyList>
    270e:	88 23       	and	r24, r24
    2710:	09 f0       	breq	.+2      	; 0x2714 <xTaskResumeAll+0xd4>
    2712:	b2 cf       	rjmp	.-156    	; 0x2678 <xTaskResumeAll+0x38>
    2714:	89 81       	ldd	r24, Y+1	; 0x01
    2716:	9a 81       	ldd	r25, Y+2	; 0x02
    2718:	89 2b       	or	r24, r25
    271a:	09 f0       	breq	.+2      	; 0x271e <xTaskResumeAll+0xde>
    271c:	af d3       	rcall	.+1886   	; 0x2e7c <prvResetNextTaskUnblockTime>
    271e:	80 91 6f 08 	lds	r24, 0x086F	; 0x80086f <uxPendedTicks>
    2722:	8c 83       	std	Y+4, r24	; 0x04
    2724:	8c 81       	ldd	r24, Y+4	; 0x04
    2726:	88 23       	and	r24, r24
    2728:	71 f0       	breq	.+28     	; 0x2746 <xTaskResumeAll+0x106>
    272a:	37 d0       	rcall	.+110    	; 0x279a <xTaskIncrementTick>
    272c:	88 23       	and	r24, r24
    272e:	19 f0       	breq	.+6      	; 0x2736 <xTaskResumeAll+0xf6>
    2730:	81 e0       	ldi	r24, 0x01	; 1
    2732:	80 93 70 08 	sts	0x0870, r24	; 0x800870 <xYieldPending>
    2736:	8c 81       	ldd	r24, Y+4	; 0x04
    2738:	81 50       	subi	r24, 0x01	; 1
    273a:	8c 83       	std	Y+4, r24	; 0x04
    273c:	8c 81       	ldd	r24, Y+4	; 0x04
    273e:	88 23       	and	r24, r24
    2740:	a1 f7       	brne	.-24     	; 0x272a <xTaskResumeAll+0xea>
    2742:	10 92 6f 08 	sts	0x086F, r1	; 0x80086f <uxPendedTicks>
    2746:	80 91 70 08 	lds	r24, 0x0870	; 0x800870 <xYieldPending>
    274a:	88 23       	and	r24, r24
    274c:	21 f0       	breq	.+8      	; 0x2756 <xTaskResumeAll+0x116>
    274e:	81 e0       	ldi	r24, 0x01	; 1
    2750:	8b 83       	std	Y+3, r24	; 0x03
    2752:	0e 94 2b 05 	call	0xa56	; 0xa56 <vPortYield>
    2756:	0f 90       	pop	r0
    2758:	0f be       	out	0x3f, r0	; 63
    275a:	8b 81       	ldd	r24, Y+3	; 0x03
    275c:	0f 90       	pop	r0
    275e:	0f 90       	pop	r0
    2760:	0f 90       	pop	r0
    2762:	0f 90       	pop	r0
    2764:	df 91       	pop	r29
    2766:	cf 91       	pop	r28
    2768:	08 95       	ret

0000276a <xTaskGetTickCount>:
    276a:	cf 93       	push	r28
    276c:	df 93       	push	r29
    276e:	1f 92       	push	r1
    2770:	1f 92       	push	r1
    2772:	cd b7       	in	r28, 0x3d	; 61
    2774:	de b7       	in	r29, 0x3e	; 62
    2776:	0f b6       	in	r0, 0x3f	; 63
    2778:	f8 94       	cli
    277a:	0f 92       	push	r0
    277c:	80 91 6b 08 	lds	r24, 0x086B	; 0x80086b <xTickCount>
    2780:	90 91 6c 08 	lds	r25, 0x086C	; 0x80086c <xTickCount+0x1>
    2784:	9a 83       	std	Y+2, r25	; 0x02
    2786:	89 83       	std	Y+1, r24	; 0x01
    2788:	0f 90       	pop	r0
    278a:	0f be       	out	0x3f, r0	; 63
    278c:	89 81       	ldd	r24, Y+1	; 0x01
    278e:	9a 81       	ldd	r25, Y+2	; 0x02
    2790:	0f 90       	pop	r0
    2792:	0f 90       	pop	r0
    2794:	df 91       	pop	r29
    2796:	cf 91       	pop	r28
    2798:	08 95       	ret

0000279a <xTaskIncrementTick>:
    279a:	cf 93       	push	r28
    279c:	df 93       	push	r29
    279e:	cd b7       	in	r28, 0x3d	; 61
    27a0:	de b7       	in	r29, 0x3e	; 62
    27a2:	29 97       	sbiw	r28, 0x09	; 9
    27a4:	0f b6       	in	r0, 0x3f	; 63
    27a6:	f8 94       	cli
    27a8:	de bf       	out	0x3e, r29	; 62
    27aa:	0f be       	out	0x3f, r0	; 63
    27ac:	cd bf       	out	0x3d, r28	; 61
    27ae:	19 82       	std	Y+1, r1	; 0x01
    27b0:	80 91 77 08 	lds	r24, 0x0877	; 0x800877 <uxSchedulerSuspended>
    27b4:	88 23       	and	r24, r24
    27b6:	09 f0       	breq	.+2      	; 0x27ba <xTaskIncrementTick+0x20>
    27b8:	c7 c0       	rjmp	.+398    	; 0x2948 <xTaskIncrementTick+0x1ae>
    27ba:	80 91 6b 08 	lds	r24, 0x086B	; 0x80086b <xTickCount>
    27be:	90 91 6c 08 	lds	r25, 0x086C	; 0x80086c <xTickCount+0x1>
    27c2:	01 96       	adiw	r24, 0x01	; 1
    27c4:	9b 83       	std	Y+3, r25	; 0x03
    27c6:	8a 83       	std	Y+2, r24	; 0x02
    27c8:	8a 81       	ldd	r24, Y+2	; 0x02
    27ca:	9b 81       	ldd	r25, Y+3	; 0x03
    27cc:	90 93 6c 08 	sts	0x086C, r25	; 0x80086c <xTickCount+0x1>
    27d0:	80 93 6b 08 	sts	0x086B, r24	; 0x80086b <xTickCount>
    27d4:	8a 81       	ldd	r24, Y+2	; 0x02
    27d6:	9b 81       	ldd	r25, Y+3	; 0x03
    27d8:	89 2b       	or	r24, r25
    27da:	d1 f4       	brne	.+52     	; 0x2810 <xTaskIncrementTick+0x76>
    27dc:	80 91 4a 08 	lds	r24, 0x084A	; 0x80084a <pxDelayedTaskList>
    27e0:	90 91 4b 08 	lds	r25, 0x084B	; 0x80084b <pxDelayedTaskList+0x1>
    27e4:	9d 83       	std	Y+5, r25	; 0x05
    27e6:	8c 83       	std	Y+4, r24	; 0x04
    27e8:	80 91 4c 08 	lds	r24, 0x084C	; 0x80084c <pxOverflowDelayedTaskList>
    27ec:	90 91 4d 08 	lds	r25, 0x084D	; 0x80084d <pxOverflowDelayedTaskList+0x1>
    27f0:	90 93 4b 08 	sts	0x084B, r25	; 0x80084b <pxDelayedTaskList+0x1>
    27f4:	80 93 4a 08 	sts	0x084A, r24	; 0x80084a <pxDelayedTaskList>
    27f8:	8c 81       	ldd	r24, Y+4	; 0x04
    27fa:	9d 81       	ldd	r25, Y+5	; 0x05
    27fc:	90 93 4d 08 	sts	0x084D, r25	; 0x80084d <pxOverflowDelayedTaskList+0x1>
    2800:	80 93 4c 08 	sts	0x084C, r24	; 0x80084c <pxOverflowDelayedTaskList>
    2804:	80 91 71 08 	lds	r24, 0x0871	; 0x800871 <xNumOfOverflows>
    2808:	8f 5f       	subi	r24, 0xFF	; 255
    280a:	80 93 71 08 	sts	0x0871, r24	; 0x800871 <xNumOfOverflows>
    280e:	36 d3       	rcall	.+1644   	; 0x2e7c <prvResetNextTaskUnblockTime>
    2810:	80 91 73 08 	lds	r24, 0x0873	; 0x800873 <xNextTaskUnblockTime>
    2814:	90 91 74 08 	lds	r25, 0x0874	; 0x800874 <xNextTaskUnblockTime+0x1>
    2818:	2a 81       	ldd	r18, Y+2	; 0x02
    281a:	3b 81       	ldd	r19, Y+3	; 0x03
    281c:	28 17       	cp	r18, r24
    281e:	39 07       	cpc	r19, r25
    2820:	08 f4       	brcc	.+2      	; 0x2824 <xTaskIncrementTick+0x8a>
    2822:	78 c0       	rjmp	.+240    	; 0x2914 <xTaskIncrementTick+0x17a>
    2824:	80 91 4a 08 	lds	r24, 0x084A	; 0x80084a <pxDelayedTaskList>
    2828:	90 91 4b 08 	lds	r25, 0x084B	; 0x80084b <pxDelayedTaskList+0x1>
    282c:	fc 01       	movw	r30, r24
    282e:	80 81       	ld	r24, Z
    2830:	88 23       	and	r24, r24
    2832:	39 f4       	brne	.+14     	; 0x2842 <xTaskIncrementTick+0xa8>
    2834:	8f ef       	ldi	r24, 0xFF	; 255
    2836:	9f ef       	ldi	r25, 0xFF	; 255
    2838:	90 93 74 08 	sts	0x0874, r25	; 0x800874 <xNextTaskUnblockTime+0x1>
    283c:	80 93 73 08 	sts	0x0873, r24	; 0x800873 <xNextTaskUnblockTime>
    2840:	69 c0       	rjmp	.+210    	; 0x2914 <xTaskIncrementTick+0x17a>
    2842:	80 91 4a 08 	lds	r24, 0x084A	; 0x80084a <pxDelayedTaskList>
    2846:	90 91 4b 08 	lds	r25, 0x084B	; 0x80084b <pxDelayedTaskList+0x1>
    284a:	fc 01       	movw	r30, r24
    284c:	85 81       	ldd	r24, Z+5	; 0x05
    284e:	96 81       	ldd	r25, Z+6	; 0x06
    2850:	fc 01       	movw	r30, r24
    2852:	86 81       	ldd	r24, Z+6	; 0x06
    2854:	97 81       	ldd	r25, Z+7	; 0x07
    2856:	9f 83       	std	Y+7, r25	; 0x07
    2858:	8e 83       	std	Y+6, r24	; 0x06
    285a:	8e 81       	ldd	r24, Y+6	; 0x06
    285c:	9f 81       	ldd	r25, Y+7	; 0x07
    285e:	fc 01       	movw	r30, r24
    2860:	82 81       	ldd	r24, Z+2	; 0x02
    2862:	93 81       	ldd	r25, Z+3	; 0x03
    2864:	99 87       	std	Y+9, r25	; 0x09
    2866:	88 87       	std	Y+8, r24	; 0x08
    2868:	2a 81       	ldd	r18, Y+2	; 0x02
    286a:	3b 81       	ldd	r19, Y+3	; 0x03
    286c:	88 85       	ldd	r24, Y+8	; 0x08
    286e:	99 85       	ldd	r25, Y+9	; 0x09
    2870:	28 17       	cp	r18, r24
    2872:	39 07       	cpc	r19, r25
    2874:	38 f4       	brcc	.+14     	; 0x2884 <xTaskIncrementTick+0xea>
    2876:	88 85       	ldd	r24, Y+8	; 0x08
    2878:	99 85       	ldd	r25, Y+9	; 0x09
    287a:	90 93 74 08 	sts	0x0874, r25	; 0x800874 <xNextTaskUnblockTime+0x1>
    287e:	80 93 73 08 	sts	0x0873, r24	; 0x800873 <xNextTaskUnblockTime>
    2882:	48 c0       	rjmp	.+144    	; 0x2914 <xTaskIncrementTick+0x17a>
    2884:	8e 81       	ldd	r24, Y+6	; 0x06
    2886:	9f 81       	ldd	r25, Y+7	; 0x07
    2888:	02 96       	adiw	r24, 0x02	; 2
    288a:	0e 94 d8 02 	call	0x5b0	; 0x5b0 <uxListRemove>
    288e:	8e 81       	ldd	r24, Y+6	; 0x06
    2890:	9f 81       	ldd	r25, Y+7	; 0x07
    2892:	fc 01       	movw	r30, r24
    2894:	84 89       	ldd	r24, Z+20	; 0x14
    2896:	95 89       	ldd	r25, Z+21	; 0x15
    2898:	89 2b       	or	r24, r25
    289a:	29 f0       	breq	.+10     	; 0x28a6 <xTaskIncrementTick+0x10c>
    289c:	8e 81       	ldd	r24, Y+6	; 0x06
    289e:	9f 81       	ldd	r25, Y+7	; 0x07
    28a0:	0c 96       	adiw	r24, 0x0c	; 12
    28a2:	0e 94 d8 02 	call	0x5b0	; 0x5b0 <uxListRemove>
    28a6:	8e 81       	ldd	r24, Y+6	; 0x06
    28a8:	9f 81       	ldd	r25, Y+7	; 0x07
    28aa:	fc 01       	movw	r30, r24
    28ac:	96 89       	ldd	r25, Z+22	; 0x16
    28ae:	80 91 6d 08 	lds	r24, 0x086D	; 0x80086d <uxTopReadyPriority>
    28b2:	89 17       	cp	r24, r25
    28b4:	30 f4       	brcc	.+12     	; 0x28c2 <xTaskIncrementTick+0x128>
    28b6:	8e 81       	ldd	r24, Y+6	; 0x06
    28b8:	9f 81       	ldd	r25, Y+7	; 0x07
    28ba:	fc 01       	movw	r30, r24
    28bc:	86 89       	ldd	r24, Z+22	; 0x16
    28be:	80 93 6d 08 	sts	0x086D, r24	; 0x80086d <uxTopReadyPriority>
    28c2:	8e 81       	ldd	r24, Y+6	; 0x06
    28c4:	9f 81       	ldd	r25, Y+7	; 0x07
    28c6:	ac 01       	movw	r20, r24
    28c8:	4e 5f       	subi	r20, 0xFE	; 254
    28ca:	5f 4f       	sbci	r21, 0xFF	; 255
    28cc:	8e 81       	ldd	r24, Y+6	; 0x06
    28ce:	9f 81       	ldd	r25, Y+7	; 0x07
    28d0:	fc 01       	movw	r30, r24
    28d2:	86 89       	ldd	r24, Z+22	; 0x16
    28d4:	28 2f       	mov	r18, r24
    28d6:	30 e0       	ldi	r19, 0x00	; 0
    28d8:	c9 01       	movw	r24, r18
    28da:	88 0f       	add	r24, r24
    28dc:	99 1f       	adc	r25, r25
    28de:	88 0f       	add	r24, r24
    28e0:	99 1f       	adc	r25, r25
    28e2:	88 0f       	add	r24, r24
    28e4:	99 1f       	adc	r25, r25
    28e6:	82 0f       	add	r24, r18
    28e8:	93 1f       	adc	r25, r19
    28ea:	8c 5e       	subi	r24, 0xEC	; 236
    28ec:	97 4f       	sbci	r25, 0xF7	; 247
    28ee:	ba 01       	movw	r22, r20
    28f0:	0e 94 12 02 	call	0x424	; 0x424 <vListInsertEnd>
    28f4:	8e 81       	ldd	r24, Y+6	; 0x06
    28f6:	9f 81       	ldd	r25, Y+7	; 0x07
    28f8:	fc 01       	movw	r30, r24
    28fa:	26 89       	ldd	r18, Z+22	; 0x16
    28fc:	80 91 12 08 	lds	r24, 0x0812	; 0x800812 <__data_end>
    2900:	90 91 13 08 	lds	r25, 0x0813	; 0x800813 <__data_end+0x1>
    2904:	fc 01       	movw	r30, r24
    2906:	86 89       	ldd	r24, Z+22	; 0x16
    2908:	28 17       	cp	r18, r24
    290a:	08 f4       	brcc	.+2      	; 0x290e <xTaskIncrementTick+0x174>
    290c:	8b cf       	rjmp	.-234    	; 0x2824 <xTaskIncrementTick+0x8a>
    290e:	81 e0       	ldi	r24, 0x01	; 1
    2910:	89 83       	std	Y+1, r24	; 0x01
    2912:	88 cf       	rjmp	.-240    	; 0x2824 <xTaskIncrementTick+0x8a>
    2914:	80 91 12 08 	lds	r24, 0x0812	; 0x800812 <__data_end>
    2918:	90 91 13 08 	lds	r25, 0x0813	; 0x800813 <__data_end+0x1>
    291c:	fc 01       	movw	r30, r24
    291e:	86 89       	ldd	r24, Z+22	; 0x16
    2920:	28 2f       	mov	r18, r24
    2922:	30 e0       	ldi	r19, 0x00	; 0
    2924:	c9 01       	movw	r24, r18
    2926:	88 0f       	add	r24, r24
    2928:	99 1f       	adc	r25, r25
    292a:	88 0f       	add	r24, r24
    292c:	99 1f       	adc	r25, r25
    292e:	88 0f       	add	r24, r24
    2930:	99 1f       	adc	r25, r25
    2932:	82 0f       	add	r24, r18
    2934:	93 1f       	adc	r25, r19
    2936:	8c 5e       	subi	r24, 0xEC	; 236
    2938:	97 4f       	sbci	r25, 0xF7	; 247
    293a:	fc 01       	movw	r30, r24
    293c:	80 81       	ld	r24, Z
    293e:	82 30       	cpi	r24, 0x02	; 2
    2940:	40 f0       	brcs	.+16     	; 0x2952 <xTaskIncrementTick+0x1b8>
    2942:	81 e0       	ldi	r24, 0x01	; 1
    2944:	89 83       	std	Y+1, r24	; 0x01
    2946:	05 c0       	rjmp	.+10     	; 0x2952 <xTaskIncrementTick+0x1b8>
    2948:	80 91 6f 08 	lds	r24, 0x086F	; 0x80086f <uxPendedTicks>
    294c:	8f 5f       	subi	r24, 0xFF	; 255
    294e:	80 93 6f 08 	sts	0x086F, r24	; 0x80086f <uxPendedTicks>
    2952:	80 91 70 08 	lds	r24, 0x0870	; 0x800870 <xYieldPending>
    2956:	88 23       	and	r24, r24
    2958:	11 f0       	breq	.+4      	; 0x295e <xTaskIncrementTick+0x1c4>
    295a:	81 e0       	ldi	r24, 0x01	; 1
    295c:	89 83       	std	Y+1, r24	; 0x01
    295e:	89 81       	ldd	r24, Y+1	; 0x01
    2960:	29 96       	adiw	r28, 0x09	; 9
    2962:	0f b6       	in	r0, 0x3f	; 63
    2964:	f8 94       	cli
    2966:	de bf       	out	0x3e, r29	; 62
    2968:	0f be       	out	0x3f, r0	; 63
    296a:	cd bf       	out	0x3d, r28	; 61
    296c:	df 91       	pop	r29
    296e:	cf 91       	pop	r28
    2970:	08 95       	ret

00002972 <vTaskSwitchContext>:
    2972:	cf 93       	push	r28
    2974:	df 93       	push	r29
    2976:	00 d0       	rcall	.+0      	; 0x2978 <vTaskSwitchContext+0x6>
    2978:	cd b7       	in	r28, 0x3d	; 61
    297a:	de b7       	in	r29, 0x3e	; 62
    297c:	80 91 77 08 	lds	r24, 0x0877	; 0x800877 <uxSchedulerSuspended>
    2980:	88 23       	and	r24, r24
    2982:	21 f0       	breq	.+8      	; 0x298c <vTaskSwitchContext+0x1a>
    2984:	81 e0       	ldi	r24, 0x01	; 1
    2986:	80 93 70 08 	sts	0x0870, r24	; 0x800870 <xYieldPending>
    298a:	90 c0       	rjmp	.+288    	; 0x2aac <vTaskSwitchContext+0x13a>
    298c:	10 92 70 08 	sts	0x0870, r1	; 0x800870 <xYieldPending>
    2990:	80 91 12 08 	lds	r24, 0x0812	; 0x800812 <__data_end>
    2994:	90 91 13 08 	lds	r25, 0x0813	; 0x800813 <__data_end+0x1>
    2998:	fc 01       	movw	r30, r24
    299a:	85 a1       	ldd	r24, Z+37	; 0x25
    299c:	96 a1       	ldd	r25, Z+38	; 0x26
    299e:	0e 94 79 01 	call	0x2f2	; 0x2f2 <task_switch_out>
    29a2:	80 91 12 08 	lds	r24, 0x0812	; 0x800812 <__data_end>
    29a6:	90 91 13 08 	lds	r25, 0x0813	; 0x800813 <__data_end+0x1>
    29aa:	fc 01       	movw	r30, r24
    29ac:	20 81       	ld	r18, Z
    29ae:	31 81       	ldd	r19, Z+1	; 0x01
    29b0:	80 91 12 08 	lds	r24, 0x0812	; 0x800812 <__data_end>
    29b4:	90 91 13 08 	lds	r25, 0x0813	; 0x800813 <__data_end+0x1>
    29b8:	fc 01       	movw	r30, r24
    29ba:	87 89       	ldd	r24, Z+23	; 0x17
    29bc:	90 8d       	ldd	r25, Z+24	; 0x18
    29be:	82 17       	cp	r24, r18
    29c0:	93 07       	cpc	r25, r19
    29c2:	70 f0       	brcs	.+28     	; 0x29e0 <vTaskSwitchContext+0x6e>
    29c4:	80 91 12 08 	lds	r24, 0x0812	; 0x800812 <__data_end>
    29c8:	90 91 13 08 	lds	r25, 0x0813	; 0x800813 <__data_end+0x1>
    29cc:	9c 01       	movw	r18, r24
    29ce:	27 5e       	subi	r18, 0xE7	; 231
    29d0:	3f 4f       	sbci	r19, 0xFF	; 255
    29d2:	80 91 12 08 	lds	r24, 0x0812	; 0x800812 <__data_end>
    29d6:	90 91 13 08 	lds	r25, 0x0813	; 0x800813 <__data_end+0x1>
    29da:	b9 01       	movw	r22, r18
    29dc:	0e 94 c4 21 	call	0x4388	; 0x4388 <vApplicationStackOverflowHook>
    29e0:	80 91 6d 08 	lds	r24, 0x086D	; 0x80086d <uxTopReadyPriority>
    29e4:	89 83       	std	Y+1, r24	; 0x01
    29e6:	03 c0       	rjmp	.+6      	; 0x29ee <vTaskSwitchContext+0x7c>
    29e8:	89 81       	ldd	r24, Y+1	; 0x01
    29ea:	81 50       	subi	r24, 0x01	; 1
    29ec:	89 83       	std	Y+1, r24	; 0x01
    29ee:	89 81       	ldd	r24, Y+1	; 0x01
    29f0:	28 2f       	mov	r18, r24
    29f2:	30 e0       	ldi	r19, 0x00	; 0
    29f4:	c9 01       	movw	r24, r18
    29f6:	88 0f       	add	r24, r24
    29f8:	99 1f       	adc	r25, r25
    29fa:	88 0f       	add	r24, r24
    29fc:	99 1f       	adc	r25, r25
    29fe:	88 0f       	add	r24, r24
    2a00:	99 1f       	adc	r25, r25
    2a02:	82 0f       	add	r24, r18
    2a04:	93 1f       	adc	r25, r19
    2a06:	8c 5e       	subi	r24, 0xEC	; 236
    2a08:	97 4f       	sbci	r25, 0xF7	; 247
    2a0a:	fc 01       	movw	r30, r24
    2a0c:	80 81       	ld	r24, Z
    2a0e:	88 23       	and	r24, r24
    2a10:	59 f3       	breq	.-42     	; 0x29e8 <vTaskSwitchContext+0x76>
    2a12:	89 81       	ldd	r24, Y+1	; 0x01
    2a14:	28 2f       	mov	r18, r24
    2a16:	30 e0       	ldi	r19, 0x00	; 0
    2a18:	c9 01       	movw	r24, r18
    2a1a:	88 0f       	add	r24, r24
    2a1c:	99 1f       	adc	r25, r25
    2a1e:	88 0f       	add	r24, r24
    2a20:	99 1f       	adc	r25, r25
    2a22:	88 0f       	add	r24, r24
    2a24:	99 1f       	adc	r25, r25
    2a26:	82 0f       	add	r24, r18
    2a28:	93 1f       	adc	r25, r19
    2a2a:	8c 5e       	subi	r24, 0xEC	; 236
    2a2c:	97 4f       	sbci	r25, 0xF7	; 247
    2a2e:	9b 83       	std	Y+3, r25	; 0x03
    2a30:	8a 83       	std	Y+2, r24	; 0x02
    2a32:	8a 81       	ldd	r24, Y+2	; 0x02
    2a34:	9b 81       	ldd	r25, Y+3	; 0x03
    2a36:	fc 01       	movw	r30, r24
    2a38:	81 81       	ldd	r24, Z+1	; 0x01
    2a3a:	92 81       	ldd	r25, Z+2	; 0x02
    2a3c:	fc 01       	movw	r30, r24
    2a3e:	22 81       	ldd	r18, Z+2	; 0x02
    2a40:	33 81       	ldd	r19, Z+3	; 0x03
    2a42:	8a 81       	ldd	r24, Y+2	; 0x02
    2a44:	9b 81       	ldd	r25, Y+3	; 0x03
    2a46:	fc 01       	movw	r30, r24
    2a48:	32 83       	std	Z+2, r19	; 0x02
    2a4a:	21 83       	std	Z+1, r18	; 0x01
    2a4c:	8a 81       	ldd	r24, Y+2	; 0x02
    2a4e:	9b 81       	ldd	r25, Y+3	; 0x03
    2a50:	fc 01       	movw	r30, r24
    2a52:	21 81       	ldd	r18, Z+1	; 0x01
    2a54:	32 81       	ldd	r19, Z+2	; 0x02
    2a56:	8a 81       	ldd	r24, Y+2	; 0x02
    2a58:	9b 81       	ldd	r25, Y+3	; 0x03
    2a5a:	03 96       	adiw	r24, 0x03	; 3
    2a5c:	28 17       	cp	r18, r24
    2a5e:	39 07       	cpc	r19, r25
    2a60:	69 f4       	brne	.+26     	; 0x2a7c <vTaskSwitchContext+0x10a>
    2a62:	8a 81       	ldd	r24, Y+2	; 0x02
    2a64:	9b 81       	ldd	r25, Y+3	; 0x03
    2a66:	fc 01       	movw	r30, r24
    2a68:	81 81       	ldd	r24, Z+1	; 0x01
    2a6a:	92 81       	ldd	r25, Z+2	; 0x02
    2a6c:	fc 01       	movw	r30, r24
    2a6e:	22 81       	ldd	r18, Z+2	; 0x02
    2a70:	33 81       	ldd	r19, Z+3	; 0x03
    2a72:	8a 81       	ldd	r24, Y+2	; 0x02
    2a74:	9b 81       	ldd	r25, Y+3	; 0x03
    2a76:	fc 01       	movw	r30, r24
    2a78:	32 83       	std	Z+2, r19	; 0x02
    2a7a:	21 83       	std	Z+1, r18	; 0x01
    2a7c:	8a 81       	ldd	r24, Y+2	; 0x02
    2a7e:	9b 81       	ldd	r25, Y+3	; 0x03
    2a80:	fc 01       	movw	r30, r24
    2a82:	81 81       	ldd	r24, Z+1	; 0x01
    2a84:	92 81       	ldd	r25, Z+2	; 0x02
    2a86:	fc 01       	movw	r30, r24
    2a88:	86 81       	ldd	r24, Z+6	; 0x06
    2a8a:	97 81       	ldd	r25, Z+7	; 0x07
    2a8c:	90 93 13 08 	sts	0x0813, r25	; 0x800813 <__data_end+0x1>
    2a90:	80 93 12 08 	sts	0x0812, r24	; 0x800812 <__data_end>
    2a94:	89 81       	ldd	r24, Y+1	; 0x01
    2a96:	80 93 6d 08 	sts	0x086D, r24	; 0x80086d <uxTopReadyPriority>
    2a9a:	80 91 12 08 	lds	r24, 0x0812	; 0x800812 <__data_end>
    2a9e:	90 91 13 08 	lds	r25, 0x0813	; 0x800813 <__data_end+0x1>
    2aa2:	fc 01       	movw	r30, r24
    2aa4:	85 a1       	ldd	r24, Z+37	; 0x25
    2aa6:	96 a1       	ldd	r25, Z+38	; 0x26
    2aa8:	0e 94 59 01 	call	0x2b2	; 0x2b2 <task_switch_in>
    2aac:	00 00       	nop
    2aae:	0f 90       	pop	r0
    2ab0:	0f 90       	pop	r0
    2ab2:	0f 90       	pop	r0
    2ab4:	df 91       	pop	r29
    2ab6:	cf 91       	pop	r28
    2ab8:	08 95       	ret

00002aba <vTaskPlaceOnEventList>:
    2aba:	cf 93       	push	r28
    2abc:	df 93       	push	r29
    2abe:	00 d0       	rcall	.+0      	; 0x2ac0 <vTaskPlaceOnEventList+0x6>
    2ac0:	1f 92       	push	r1
    2ac2:	cd b7       	in	r28, 0x3d	; 61
    2ac4:	de b7       	in	r29, 0x3e	; 62
    2ac6:	9a 83       	std	Y+2, r25	; 0x02
    2ac8:	89 83       	std	Y+1, r24	; 0x01
    2aca:	7c 83       	std	Y+4, r23	; 0x04
    2acc:	6b 83       	std	Y+3, r22	; 0x03
    2ace:	80 91 12 08 	lds	r24, 0x0812	; 0x800812 <__data_end>
    2ad2:	90 91 13 08 	lds	r25, 0x0813	; 0x800813 <__data_end+0x1>
    2ad6:	9c 01       	movw	r18, r24
    2ad8:	24 5f       	subi	r18, 0xF4	; 244
    2ada:	3f 4f       	sbci	r19, 0xFF	; 255
    2adc:	89 81       	ldd	r24, Y+1	; 0x01
    2ade:	9a 81       	ldd	r25, Y+2	; 0x02
    2ae0:	b9 01       	movw	r22, r18
    2ae2:	0e 94 60 02 	call	0x4c0	; 0x4c0 <vListInsert>
    2ae6:	8b 81       	ldd	r24, Y+3	; 0x03
    2ae8:	9c 81       	ldd	r25, Y+4	; 0x04
    2aea:	61 e0       	ldi	r22, 0x01	; 1
    2aec:	b9 d6       	rcall	.+3442   	; 0x3860 <prvAddCurrentTaskToDelayedList>
    2aee:	00 00       	nop
    2af0:	0f 90       	pop	r0
    2af2:	0f 90       	pop	r0
    2af4:	0f 90       	pop	r0
    2af6:	0f 90       	pop	r0
    2af8:	df 91       	pop	r29
    2afa:	cf 91       	pop	r28
    2afc:	08 95       	ret

00002afe <vTaskPlaceOnEventListRestricted>:
    2afe:	cf 93       	push	r28
    2b00:	df 93       	push	r29
    2b02:	00 d0       	rcall	.+0      	; 0x2b04 <vTaskPlaceOnEventListRestricted+0x6>
    2b04:	1f 92       	push	r1
    2b06:	1f 92       	push	r1
    2b08:	cd b7       	in	r28, 0x3d	; 61
    2b0a:	de b7       	in	r29, 0x3e	; 62
    2b0c:	9a 83       	std	Y+2, r25	; 0x02
    2b0e:	89 83       	std	Y+1, r24	; 0x01
    2b10:	7c 83       	std	Y+4, r23	; 0x04
    2b12:	6b 83       	std	Y+3, r22	; 0x03
    2b14:	4d 83       	std	Y+5, r20	; 0x05
    2b16:	80 91 12 08 	lds	r24, 0x0812	; 0x800812 <__data_end>
    2b1a:	90 91 13 08 	lds	r25, 0x0813	; 0x800813 <__data_end+0x1>
    2b1e:	9c 01       	movw	r18, r24
    2b20:	24 5f       	subi	r18, 0xF4	; 244
    2b22:	3f 4f       	sbci	r19, 0xFF	; 255
    2b24:	89 81       	ldd	r24, Y+1	; 0x01
    2b26:	9a 81       	ldd	r25, Y+2	; 0x02
    2b28:	b9 01       	movw	r22, r18
    2b2a:	0e 94 12 02 	call	0x424	; 0x424 <vListInsertEnd>
    2b2e:	8d 81       	ldd	r24, Y+5	; 0x05
    2b30:	88 23       	and	r24, r24
    2b32:	21 f0       	breq	.+8      	; 0x2b3c <vTaskPlaceOnEventListRestricted+0x3e>
    2b34:	8f ef       	ldi	r24, 0xFF	; 255
    2b36:	9f ef       	ldi	r25, 0xFF	; 255
    2b38:	9c 83       	std	Y+4, r25	; 0x04
    2b3a:	8b 83       	std	Y+3, r24	; 0x03
    2b3c:	8b 81       	ldd	r24, Y+3	; 0x03
    2b3e:	9c 81       	ldd	r25, Y+4	; 0x04
    2b40:	6d 81       	ldd	r22, Y+5	; 0x05
    2b42:	8e d6       	rcall	.+3356   	; 0x3860 <prvAddCurrentTaskToDelayedList>
    2b44:	00 00       	nop
    2b46:	0f 90       	pop	r0
    2b48:	0f 90       	pop	r0
    2b4a:	0f 90       	pop	r0
    2b4c:	0f 90       	pop	r0
    2b4e:	0f 90       	pop	r0
    2b50:	df 91       	pop	r29
    2b52:	cf 91       	pop	r28
    2b54:	08 95       	ret

00002b56 <xTaskRemoveFromEventList>:
    2b56:	cf 93       	push	r28
    2b58:	df 93       	push	r29
    2b5a:	00 d0       	rcall	.+0      	; 0x2b5c <xTaskRemoveFromEventList+0x6>
    2b5c:	1f 92       	push	r1
    2b5e:	1f 92       	push	r1
    2b60:	cd b7       	in	r28, 0x3d	; 61
    2b62:	de b7       	in	r29, 0x3e	; 62
    2b64:	9d 83       	std	Y+5, r25	; 0x05
    2b66:	8c 83       	std	Y+4, r24	; 0x04
    2b68:	8c 81       	ldd	r24, Y+4	; 0x04
    2b6a:	9d 81       	ldd	r25, Y+5	; 0x05
    2b6c:	fc 01       	movw	r30, r24
    2b6e:	85 81       	ldd	r24, Z+5	; 0x05
    2b70:	96 81       	ldd	r25, Z+6	; 0x06
    2b72:	fc 01       	movw	r30, r24
    2b74:	86 81       	ldd	r24, Z+6	; 0x06
    2b76:	97 81       	ldd	r25, Z+7	; 0x07
    2b78:	9b 83       	std	Y+3, r25	; 0x03
    2b7a:	8a 83       	std	Y+2, r24	; 0x02
    2b7c:	8a 81       	ldd	r24, Y+2	; 0x02
    2b7e:	9b 81       	ldd	r25, Y+3	; 0x03
    2b80:	0c 96       	adiw	r24, 0x0c	; 12
    2b82:	0e 94 d8 02 	call	0x5b0	; 0x5b0 <uxListRemove>
    2b86:	80 91 77 08 	lds	r24, 0x0877	; 0x800877 <uxSchedulerSuspended>
    2b8a:	88 23       	and	r24, r24
    2b8c:	69 f5       	brne	.+90     	; 0x2be8 <xTaskRemoveFromEventList+0x92>
    2b8e:	8a 81       	ldd	r24, Y+2	; 0x02
    2b90:	9b 81       	ldd	r25, Y+3	; 0x03
    2b92:	02 96       	adiw	r24, 0x02	; 2
    2b94:	0e 94 d8 02 	call	0x5b0	; 0x5b0 <uxListRemove>
    2b98:	8a 81       	ldd	r24, Y+2	; 0x02
    2b9a:	9b 81       	ldd	r25, Y+3	; 0x03
    2b9c:	fc 01       	movw	r30, r24
    2b9e:	96 89       	ldd	r25, Z+22	; 0x16
    2ba0:	80 91 6d 08 	lds	r24, 0x086D	; 0x80086d <uxTopReadyPriority>
    2ba4:	89 17       	cp	r24, r25
    2ba6:	30 f4       	brcc	.+12     	; 0x2bb4 <xTaskRemoveFromEventList+0x5e>
    2ba8:	8a 81       	ldd	r24, Y+2	; 0x02
    2baa:	9b 81       	ldd	r25, Y+3	; 0x03
    2bac:	fc 01       	movw	r30, r24
    2bae:	86 89       	ldd	r24, Z+22	; 0x16
    2bb0:	80 93 6d 08 	sts	0x086D, r24	; 0x80086d <uxTopReadyPriority>
    2bb4:	8a 81       	ldd	r24, Y+2	; 0x02
    2bb6:	9b 81       	ldd	r25, Y+3	; 0x03
    2bb8:	ac 01       	movw	r20, r24
    2bba:	4e 5f       	subi	r20, 0xFE	; 254
    2bbc:	5f 4f       	sbci	r21, 0xFF	; 255
    2bbe:	8a 81       	ldd	r24, Y+2	; 0x02
    2bc0:	9b 81       	ldd	r25, Y+3	; 0x03
    2bc2:	fc 01       	movw	r30, r24
    2bc4:	86 89       	ldd	r24, Z+22	; 0x16
    2bc6:	28 2f       	mov	r18, r24
    2bc8:	30 e0       	ldi	r19, 0x00	; 0
    2bca:	c9 01       	movw	r24, r18
    2bcc:	88 0f       	add	r24, r24
    2bce:	99 1f       	adc	r25, r25
    2bd0:	88 0f       	add	r24, r24
    2bd2:	99 1f       	adc	r25, r25
    2bd4:	88 0f       	add	r24, r24
    2bd6:	99 1f       	adc	r25, r25
    2bd8:	82 0f       	add	r24, r18
    2bda:	93 1f       	adc	r25, r19
    2bdc:	8c 5e       	subi	r24, 0xEC	; 236
    2bde:	97 4f       	sbci	r25, 0xF7	; 247
    2be0:	ba 01       	movw	r22, r20
    2be2:	0e 94 12 02 	call	0x424	; 0x424 <vListInsertEnd>
    2be6:	08 c0       	rjmp	.+16     	; 0x2bf8 <xTaskRemoveFromEventList+0xa2>
    2be8:	8a 81       	ldd	r24, Y+2	; 0x02
    2bea:	9b 81       	ldd	r25, Y+3	; 0x03
    2bec:	0c 96       	adiw	r24, 0x0c	; 12
    2bee:	bc 01       	movw	r22, r24
    2bf0:	8e e4       	ldi	r24, 0x4E	; 78
    2bf2:	98 e0       	ldi	r25, 0x08	; 8
    2bf4:	0e 94 12 02 	call	0x424	; 0x424 <vListInsertEnd>
    2bf8:	8a 81       	ldd	r24, Y+2	; 0x02
    2bfa:	9b 81       	ldd	r25, Y+3	; 0x03
    2bfc:	fc 01       	movw	r30, r24
    2bfe:	26 89       	ldd	r18, Z+22	; 0x16
    2c00:	80 91 12 08 	lds	r24, 0x0812	; 0x800812 <__data_end>
    2c04:	90 91 13 08 	lds	r25, 0x0813	; 0x800813 <__data_end+0x1>
    2c08:	fc 01       	movw	r30, r24
    2c0a:	86 89       	ldd	r24, Z+22	; 0x16
    2c0c:	82 17       	cp	r24, r18
    2c0e:	30 f4       	brcc	.+12     	; 0x2c1c <xTaskRemoveFromEventList+0xc6>
    2c10:	81 e0       	ldi	r24, 0x01	; 1
    2c12:	89 83       	std	Y+1, r24	; 0x01
    2c14:	81 e0       	ldi	r24, 0x01	; 1
    2c16:	80 93 70 08 	sts	0x0870, r24	; 0x800870 <xYieldPending>
    2c1a:	01 c0       	rjmp	.+2      	; 0x2c1e <xTaskRemoveFromEventList+0xc8>
    2c1c:	19 82       	std	Y+1, r1	; 0x01
    2c1e:	89 81       	ldd	r24, Y+1	; 0x01
    2c20:	0f 90       	pop	r0
    2c22:	0f 90       	pop	r0
    2c24:	0f 90       	pop	r0
    2c26:	0f 90       	pop	r0
    2c28:	0f 90       	pop	r0
    2c2a:	df 91       	pop	r29
    2c2c:	cf 91       	pop	r28
    2c2e:	08 95       	ret

00002c30 <vTaskInternalSetTimeOutState>:
    2c30:	cf 93       	push	r28
    2c32:	df 93       	push	r29
    2c34:	1f 92       	push	r1
    2c36:	1f 92       	push	r1
    2c38:	cd b7       	in	r28, 0x3d	; 61
    2c3a:	de b7       	in	r29, 0x3e	; 62
    2c3c:	9a 83       	std	Y+2, r25	; 0x02
    2c3e:	89 83       	std	Y+1, r24	; 0x01
    2c40:	20 91 71 08 	lds	r18, 0x0871	; 0x800871 <xNumOfOverflows>
    2c44:	89 81       	ldd	r24, Y+1	; 0x01
    2c46:	9a 81       	ldd	r25, Y+2	; 0x02
    2c48:	fc 01       	movw	r30, r24
    2c4a:	20 83       	st	Z, r18
    2c4c:	20 91 6b 08 	lds	r18, 0x086B	; 0x80086b <xTickCount>
    2c50:	30 91 6c 08 	lds	r19, 0x086C	; 0x80086c <xTickCount+0x1>
    2c54:	89 81       	ldd	r24, Y+1	; 0x01
    2c56:	9a 81       	ldd	r25, Y+2	; 0x02
    2c58:	fc 01       	movw	r30, r24
    2c5a:	32 83       	std	Z+2, r19	; 0x02
    2c5c:	21 83       	std	Z+1, r18	; 0x01
    2c5e:	00 00       	nop
    2c60:	0f 90       	pop	r0
    2c62:	0f 90       	pop	r0
    2c64:	df 91       	pop	r29
    2c66:	cf 91       	pop	r28
    2c68:	08 95       	ret

00002c6a <xTaskCheckForTimeOut>:
    2c6a:	cf 93       	push	r28
    2c6c:	df 93       	push	r29
    2c6e:	cd b7       	in	r28, 0x3d	; 61
    2c70:	de b7       	in	r29, 0x3e	; 62
    2c72:	29 97       	sbiw	r28, 0x09	; 9
    2c74:	0f b6       	in	r0, 0x3f	; 63
    2c76:	f8 94       	cli
    2c78:	de bf       	out	0x3e, r29	; 62
    2c7a:	0f be       	out	0x3f, r0	; 63
    2c7c:	cd bf       	out	0x3d, r28	; 61
    2c7e:	9f 83       	std	Y+7, r25	; 0x07
    2c80:	8e 83       	std	Y+6, r24	; 0x06
    2c82:	79 87       	std	Y+9, r23	; 0x09
    2c84:	68 87       	std	Y+8, r22	; 0x08
    2c86:	0f b6       	in	r0, 0x3f	; 63
    2c88:	f8 94       	cli
    2c8a:	0f 92       	push	r0
    2c8c:	80 91 6b 08 	lds	r24, 0x086B	; 0x80086b <xTickCount>
    2c90:	90 91 6c 08 	lds	r25, 0x086C	; 0x80086c <xTickCount+0x1>
    2c94:	9b 83       	std	Y+3, r25	; 0x03
    2c96:	8a 83       	std	Y+2, r24	; 0x02
    2c98:	8e 81       	ldd	r24, Y+6	; 0x06
    2c9a:	9f 81       	ldd	r25, Y+7	; 0x07
    2c9c:	fc 01       	movw	r30, r24
    2c9e:	81 81       	ldd	r24, Z+1	; 0x01
    2ca0:	92 81       	ldd	r25, Z+2	; 0x02
    2ca2:	2a 81       	ldd	r18, Y+2	; 0x02
    2ca4:	3b 81       	ldd	r19, Y+3	; 0x03
    2ca6:	a9 01       	movw	r20, r18
    2ca8:	48 1b       	sub	r20, r24
    2caa:	59 0b       	sbc	r21, r25
    2cac:	ca 01       	movw	r24, r20
    2cae:	9d 83       	std	Y+5, r25	; 0x05
    2cb0:	8c 83       	std	Y+4, r24	; 0x04
    2cb2:	88 85       	ldd	r24, Y+8	; 0x08
    2cb4:	99 85       	ldd	r25, Y+9	; 0x09
    2cb6:	fc 01       	movw	r30, r24
    2cb8:	80 81       	ld	r24, Z
    2cba:	91 81       	ldd	r25, Z+1	; 0x01
    2cbc:	01 96       	adiw	r24, 0x01	; 1
    2cbe:	11 f4       	brne	.+4      	; 0x2cc4 <xTaskCheckForTimeOut+0x5a>
    2cc0:	19 82       	std	Y+1, r1	; 0x01
    2cc2:	39 c0       	rjmp	.+114    	; 0x2d36 <xTaskCheckForTimeOut+0xcc>
    2cc4:	8e 81       	ldd	r24, Y+6	; 0x06
    2cc6:	9f 81       	ldd	r25, Y+7	; 0x07
    2cc8:	fc 01       	movw	r30, r24
    2cca:	90 81       	ld	r25, Z
    2ccc:	80 91 71 08 	lds	r24, 0x0871	; 0x800871 <xNumOfOverflows>
    2cd0:	98 17       	cp	r25, r24
    2cd2:	69 f0       	breq	.+26     	; 0x2cee <xTaskCheckForTimeOut+0x84>
    2cd4:	8e 81       	ldd	r24, Y+6	; 0x06
    2cd6:	9f 81       	ldd	r25, Y+7	; 0x07
    2cd8:	fc 01       	movw	r30, r24
    2cda:	21 81       	ldd	r18, Z+1	; 0x01
    2cdc:	32 81       	ldd	r19, Z+2	; 0x02
    2cde:	8a 81       	ldd	r24, Y+2	; 0x02
    2ce0:	9b 81       	ldd	r25, Y+3	; 0x03
    2ce2:	82 17       	cp	r24, r18
    2ce4:	93 07       	cpc	r25, r19
    2ce6:	18 f0       	brcs	.+6      	; 0x2cee <xTaskCheckForTimeOut+0x84>
    2ce8:	81 e0       	ldi	r24, 0x01	; 1
    2cea:	89 83       	std	Y+1, r24	; 0x01
    2cec:	24 c0       	rjmp	.+72     	; 0x2d36 <xTaskCheckForTimeOut+0xcc>
    2cee:	88 85       	ldd	r24, Y+8	; 0x08
    2cf0:	99 85       	ldd	r25, Y+9	; 0x09
    2cf2:	fc 01       	movw	r30, r24
    2cf4:	20 81       	ld	r18, Z
    2cf6:	31 81       	ldd	r19, Z+1	; 0x01
    2cf8:	8c 81       	ldd	r24, Y+4	; 0x04
    2cfa:	9d 81       	ldd	r25, Y+5	; 0x05
    2cfc:	82 17       	cp	r24, r18
    2cfe:	93 07       	cpc	r25, r19
    2d00:	98 f4       	brcc	.+38     	; 0x2d28 <xTaskCheckForTimeOut+0xbe>
    2d02:	88 85       	ldd	r24, Y+8	; 0x08
    2d04:	99 85       	ldd	r25, Y+9	; 0x09
    2d06:	fc 01       	movw	r30, r24
    2d08:	20 81       	ld	r18, Z
    2d0a:	31 81       	ldd	r19, Z+1	; 0x01
    2d0c:	8c 81       	ldd	r24, Y+4	; 0x04
    2d0e:	9d 81       	ldd	r25, Y+5	; 0x05
    2d10:	28 1b       	sub	r18, r24
    2d12:	39 0b       	sbc	r19, r25
    2d14:	88 85       	ldd	r24, Y+8	; 0x08
    2d16:	99 85       	ldd	r25, Y+9	; 0x09
    2d18:	fc 01       	movw	r30, r24
    2d1a:	31 83       	std	Z+1, r19	; 0x01
    2d1c:	20 83       	st	Z, r18
    2d1e:	8e 81       	ldd	r24, Y+6	; 0x06
    2d20:	9f 81       	ldd	r25, Y+7	; 0x07
    2d22:	86 df       	rcall	.-244    	; 0x2c30 <vTaskInternalSetTimeOutState>
    2d24:	19 82       	std	Y+1, r1	; 0x01
    2d26:	07 c0       	rjmp	.+14     	; 0x2d36 <xTaskCheckForTimeOut+0xcc>
    2d28:	88 85       	ldd	r24, Y+8	; 0x08
    2d2a:	99 85       	ldd	r25, Y+9	; 0x09
    2d2c:	fc 01       	movw	r30, r24
    2d2e:	11 82       	std	Z+1, r1	; 0x01
    2d30:	10 82       	st	Z, r1
    2d32:	81 e0       	ldi	r24, 0x01	; 1
    2d34:	89 83       	std	Y+1, r24	; 0x01
    2d36:	0f 90       	pop	r0
    2d38:	0f be       	out	0x3f, r0	; 63
    2d3a:	89 81       	ldd	r24, Y+1	; 0x01
    2d3c:	29 96       	adiw	r28, 0x09	; 9
    2d3e:	0f b6       	in	r0, 0x3f	; 63
    2d40:	f8 94       	cli
    2d42:	de bf       	out	0x3e, r29	; 62
    2d44:	0f be       	out	0x3f, r0	; 63
    2d46:	cd bf       	out	0x3d, r28	; 61
    2d48:	df 91       	pop	r29
    2d4a:	cf 91       	pop	r28
    2d4c:	08 95       	ret

00002d4e <vTaskMissedYield>:
    2d4e:	cf 93       	push	r28
    2d50:	df 93       	push	r29
    2d52:	cd b7       	in	r28, 0x3d	; 61
    2d54:	de b7       	in	r29, 0x3e	; 62
    2d56:	81 e0       	ldi	r24, 0x01	; 1
    2d58:	80 93 70 08 	sts	0x0870, r24	; 0x800870 <xYieldPending>
    2d5c:	00 00       	nop
    2d5e:	df 91       	pop	r29
    2d60:	cf 91       	pop	r28
    2d62:	08 95       	ret

00002d64 <prvInitialiseTaskLists>:
    2d64:	cf 93       	push	r28
    2d66:	df 93       	push	r29
    2d68:	1f 92       	push	r1
    2d6a:	cd b7       	in	r28, 0x3d	; 61
    2d6c:	de b7       	in	r29, 0x3e	; 62
    2d6e:	19 82       	std	Y+1, r1	; 0x01
    2d70:	13 c0       	rjmp	.+38     	; 0x2d98 <prvInitialiseTaskLists+0x34>
    2d72:	89 81       	ldd	r24, Y+1	; 0x01
    2d74:	28 2f       	mov	r18, r24
    2d76:	30 e0       	ldi	r19, 0x00	; 0
    2d78:	c9 01       	movw	r24, r18
    2d7a:	88 0f       	add	r24, r24
    2d7c:	99 1f       	adc	r25, r25
    2d7e:	88 0f       	add	r24, r24
    2d80:	99 1f       	adc	r25, r25
    2d82:	88 0f       	add	r24, r24
    2d84:	99 1f       	adc	r25, r25
    2d86:	82 0f       	add	r24, r18
    2d88:	93 1f       	adc	r25, r19
    2d8a:	8c 5e       	subi	r24, 0xEC	; 236
    2d8c:	97 4f       	sbci	r25, 0xF7	; 247
    2d8e:	0e 94 c8 01 	call	0x390	; 0x390 <vListInitialise>
    2d92:	89 81       	ldd	r24, Y+1	; 0x01
    2d94:	8f 5f       	subi	r24, 0xFF	; 255
    2d96:	89 83       	std	Y+1, r24	; 0x01
    2d98:	89 81       	ldd	r24, Y+1	; 0x01
    2d9a:	84 30       	cpi	r24, 0x04	; 4
    2d9c:	50 f3       	brcs	.-44     	; 0x2d72 <prvInitialiseTaskLists+0xe>
    2d9e:	88 e3       	ldi	r24, 0x38	; 56
    2da0:	98 e0       	ldi	r25, 0x08	; 8
    2da2:	0e 94 c8 01 	call	0x390	; 0x390 <vListInitialise>
    2da6:	81 e4       	ldi	r24, 0x41	; 65
    2da8:	98 e0       	ldi	r25, 0x08	; 8
    2daa:	0e 94 c8 01 	call	0x390	; 0x390 <vListInitialise>
    2dae:	8e e4       	ldi	r24, 0x4E	; 78
    2db0:	98 e0       	ldi	r25, 0x08	; 8
    2db2:	0e 94 c8 01 	call	0x390	; 0x390 <vListInitialise>
    2db6:	87 e5       	ldi	r24, 0x57	; 87
    2db8:	98 e0       	ldi	r25, 0x08	; 8
    2dba:	0e 94 c8 01 	call	0x390	; 0x390 <vListInitialise>
    2dbe:	81 e6       	ldi	r24, 0x61	; 97
    2dc0:	98 e0       	ldi	r25, 0x08	; 8
    2dc2:	0e 94 c8 01 	call	0x390	; 0x390 <vListInitialise>
    2dc6:	88 e3       	ldi	r24, 0x38	; 56
    2dc8:	98 e0       	ldi	r25, 0x08	; 8
    2dca:	90 93 4b 08 	sts	0x084B, r25	; 0x80084b <pxDelayedTaskList+0x1>
    2dce:	80 93 4a 08 	sts	0x084A, r24	; 0x80084a <pxDelayedTaskList>
    2dd2:	81 e4       	ldi	r24, 0x41	; 65
    2dd4:	98 e0       	ldi	r25, 0x08	; 8
    2dd6:	90 93 4d 08 	sts	0x084D, r25	; 0x80084d <pxOverflowDelayedTaskList+0x1>
    2dda:	80 93 4c 08 	sts	0x084C, r24	; 0x80084c <pxOverflowDelayedTaskList>
    2dde:	00 00       	nop
    2de0:	0f 90       	pop	r0
    2de2:	df 91       	pop	r29
    2de4:	cf 91       	pop	r28
    2de6:	08 95       	ret

00002de8 <prvCheckTasksWaitingTermination>:
    2de8:	cf 93       	push	r28
    2dea:	df 93       	push	r29
    2dec:	1f 92       	push	r1
    2dee:	1f 92       	push	r1
    2df0:	cd b7       	in	r28, 0x3d	; 61
    2df2:	de b7       	in	r29, 0x3e	; 62
    2df4:	20 c0       	rjmp	.+64     	; 0x2e36 <prvCheckTasksWaitingTermination+0x4e>
    2df6:	0f b6       	in	r0, 0x3f	; 63
    2df8:	f8 94       	cli
    2dfa:	0f 92       	push	r0
    2dfc:	80 91 5c 08 	lds	r24, 0x085C	; 0x80085c <xTasksWaitingTermination+0x5>
    2e00:	90 91 5d 08 	lds	r25, 0x085D	; 0x80085d <xTasksWaitingTermination+0x6>
    2e04:	fc 01       	movw	r30, r24
    2e06:	86 81       	ldd	r24, Z+6	; 0x06
    2e08:	97 81       	ldd	r25, Z+7	; 0x07
    2e0a:	9a 83       	std	Y+2, r25	; 0x02
    2e0c:	89 83       	std	Y+1, r24	; 0x01
    2e0e:	89 81       	ldd	r24, Y+1	; 0x01
    2e10:	9a 81       	ldd	r25, Y+2	; 0x02
    2e12:	02 96       	adiw	r24, 0x02	; 2
    2e14:	0e 94 d8 02 	call	0x5b0	; 0x5b0 <uxListRemove>
    2e18:	80 91 6a 08 	lds	r24, 0x086A	; 0x80086a <uxCurrentNumberOfTasks>
    2e1c:	81 50       	subi	r24, 0x01	; 1
    2e1e:	80 93 6a 08 	sts	0x086A, r24	; 0x80086a <uxCurrentNumberOfTasks>
    2e22:	80 91 60 08 	lds	r24, 0x0860	; 0x800860 <uxDeletedTasksWaitingCleanUp>
    2e26:	81 50       	subi	r24, 0x01	; 1
    2e28:	80 93 60 08 	sts	0x0860, r24	; 0x800860 <uxDeletedTasksWaitingCleanUp>
    2e2c:	0f 90       	pop	r0
    2e2e:	0f be       	out	0x3f, r0	; 63
    2e30:	89 81       	ldd	r24, Y+1	; 0x01
    2e32:	9a 81       	ldd	r25, Y+2	; 0x02
    2e34:	0a d0       	rcall	.+20     	; 0x2e4a <prvDeleteTCB>
    2e36:	80 91 60 08 	lds	r24, 0x0860	; 0x800860 <uxDeletedTasksWaitingCleanUp>
    2e3a:	88 23       	and	r24, r24
    2e3c:	e1 f6       	brne	.-72     	; 0x2df6 <prvCheckTasksWaitingTermination+0xe>
    2e3e:	00 00       	nop
    2e40:	0f 90       	pop	r0
    2e42:	0f 90       	pop	r0
    2e44:	df 91       	pop	r29
    2e46:	cf 91       	pop	r28
    2e48:	08 95       	ret

00002e4a <prvDeleteTCB>:
    2e4a:	cf 93       	push	r28
    2e4c:	df 93       	push	r29
    2e4e:	1f 92       	push	r1
    2e50:	1f 92       	push	r1
    2e52:	cd b7       	in	r28, 0x3d	; 61
    2e54:	de b7       	in	r29, 0x3e	; 62
    2e56:	9a 83       	std	Y+2, r25	; 0x02
    2e58:	89 83       	std	Y+1, r24	; 0x01
    2e5a:	89 81       	ldd	r24, Y+1	; 0x01
    2e5c:	9a 81       	ldd	r25, Y+2	; 0x02
    2e5e:	fc 01       	movw	r30, r24
    2e60:	87 89       	ldd	r24, Z+23	; 0x17
    2e62:	90 8d       	ldd	r25, Z+24	; 0x18
    2e64:	0e 94 ae 01 	call	0x35c	; 0x35c <vPortFree>
    2e68:	89 81       	ldd	r24, Y+1	; 0x01
    2e6a:	9a 81       	ldd	r25, Y+2	; 0x02
    2e6c:	0e 94 ae 01 	call	0x35c	; 0x35c <vPortFree>
    2e70:	00 00       	nop
    2e72:	0f 90       	pop	r0
    2e74:	0f 90       	pop	r0
    2e76:	df 91       	pop	r29
    2e78:	cf 91       	pop	r28
    2e7a:	08 95       	ret

00002e7c <prvResetNextTaskUnblockTime>:
    2e7c:	cf 93       	push	r28
    2e7e:	df 93       	push	r29
    2e80:	1f 92       	push	r1
    2e82:	1f 92       	push	r1
    2e84:	cd b7       	in	r28, 0x3d	; 61
    2e86:	de b7       	in	r29, 0x3e	; 62
    2e88:	80 91 4a 08 	lds	r24, 0x084A	; 0x80084a <pxDelayedTaskList>
    2e8c:	90 91 4b 08 	lds	r25, 0x084B	; 0x80084b <pxDelayedTaskList+0x1>
    2e90:	fc 01       	movw	r30, r24
    2e92:	80 81       	ld	r24, Z
    2e94:	88 23       	and	r24, r24
    2e96:	39 f4       	brne	.+14     	; 0x2ea6 <prvResetNextTaskUnblockTime+0x2a>
    2e98:	8f ef       	ldi	r24, 0xFF	; 255
    2e9a:	9f ef       	ldi	r25, 0xFF	; 255
    2e9c:	90 93 74 08 	sts	0x0874, r25	; 0x800874 <xNextTaskUnblockTime+0x1>
    2ea0:	80 93 73 08 	sts	0x0873, r24	; 0x800873 <xNextTaskUnblockTime>
    2ea4:	15 c0       	rjmp	.+42     	; 0x2ed0 <prvResetNextTaskUnblockTime+0x54>
    2ea6:	80 91 4a 08 	lds	r24, 0x084A	; 0x80084a <pxDelayedTaskList>
    2eaa:	90 91 4b 08 	lds	r25, 0x084B	; 0x80084b <pxDelayedTaskList+0x1>
    2eae:	fc 01       	movw	r30, r24
    2eb0:	85 81       	ldd	r24, Z+5	; 0x05
    2eb2:	96 81       	ldd	r25, Z+6	; 0x06
    2eb4:	fc 01       	movw	r30, r24
    2eb6:	86 81       	ldd	r24, Z+6	; 0x06
    2eb8:	97 81       	ldd	r25, Z+7	; 0x07
    2eba:	9a 83       	std	Y+2, r25	; 0x02
    2ebc:	89 83       	std	Y+1, r24	; 0x01
    2ebe:	89 81       	ldd	r24, Y+1	; 0x01
    2ec0:	9a 81       	ldd	r25, Y+2	; 0x02
    2ec2:	fc 01       	movw	r30, r24
    2ec4:	82 81       	ldd	r24, Z+2	; 0x02
    2ec6:	93 81       	ldd	r25, Z+3	; 0x03
    2ec8:	90 93 74 08 	sts	0x0874, r25	; 0x800874 <xNextTaskUnblockTime+0x1>
    2ecc:	80 93 73 08 	sts	0x0873, r24	; 0x800873 <xNextTaskUnblockTime>
    2ed0:	00 00       	nop
    2ed2:	0f 90       	pop	r0
    2ed4:	0f 90       	pop	r0
    2ed6:	df 91       	pop	r29
    2ed8:	cf 91       	pop	r28
    2eda:	08 95       	ret

00002edc <xTaskGetCurrentTaskHandle>:
    2edc:	cf 93       	push	r28
    2ede:	df 93       	push	r29
    2ee0:	1f 92       	push	r1
    2ee2:	1f 92       	push	r1
    2ee4:	cd b7       	in	r28, 0x3d	; 61
    2ee6:	de b7       	in	r29, 0x3e	; 62
    2ee8:	80 91 12 08 	lds	r24, 0x0812	; 0x800812 <__data_end>
    2eec:	90 91 13 08 	lds	r25, 0x0813	; 0x800813 <__data_end+0x1>
    2ef0:	9a 83       	std	Y+2, r25	; 0x02
    2ef2:	89 83       	std	Y+1, r24	; 0x01
    2ef4:	89 81       	ldd	r24, Y+1	; 0x01
    2ef6:	9a 81       	ldd	r25, Y+2	; 0x02
    2ef8:	0f 90       	pop	r0
    2efa:	0f 90       	pop	r0
    2efc:	df 91       	pop	r29
    2efe:	cf 91       	pop	r28
    2f00:	08 95       	ret

00002f02 <xTaskGetSchedulerState>:
    2f02:	cf 93       	push	r28
    2f04:	df 93       	push	r29
    2f06:	1f 92       	push	r1
    2f08:	cd b7       	in	r28, 0x3d	; 61
    2f0a:	de b7       	in	r29, 0x3e	; 62
    2f0c:	80 91 6e 08 	lds	r24, 0x086E	; 0x80086e <xSchedulerRunning>
    2f10:	88 23       	and	r24, r24
    2f12:	19 f4       	brne	.+6      	; 0x2f1a <xTaskGetSchedulerState+0x18>
    2f14:	81 e0       	ldi	r24, 0x01	; 1
    2f16:	89 83       	std	Y+1, r24	; 0x01
    2f18:	08 c0       	rjmp	.+16     	; 0x2f2a <xTaskGetSchedulerState+0x28>
    2f1a:	80 91 77 08 	lds	r24, 0x0877	; 0x800877 <uxSchedulerSuspended>
    2f1e:	88 23       	and	r24, r24
    2f20:	19 f4       	brne	.+6      	; 0x2f28 <xTaskGetSchedulerState+0x26>
    2f22:	82 e0       	ldi	r24, 0x02	; 2
    2f24:	89 83       	std	Y+1, r24	; 0x01
    2f26:	01 c0       	rjmp	.+2      	; 0x2f2a <xTaskGetSchedulerState+0x28>
    2f28:	19 82       	std	Y+1, r1	; 0x01
    2f2a:	89 81       	ldd	r24, Y+1	; 0x01
    2f2c:	0f 90       	pop	r0
    2f2e:	df 91       	pop	r29
    2f30:	cf 91       	pop	r28
    2f32:	08 95       	ret

00002f34 <xTaskPriorityInherit>:
    2f34:	cf 93       	push	r28
    2f36:	df 93       	push	r29
    2f38:	00 d0       	rcall	.+0      	; 0x2f3a <xTaskPriorityInherit+0x6>
    2f3a:	1f 92       	push	r1
    2f3c:	1f 92       	push	r1
    2f3e:	cd b7       	in	r28, 0x3d	; 61
    2f40:	de b7       	in	r29, 0x3e	; 62
    2f42:	9d 83       	std	Y+5, r25	; 0x05
    2f44:	8c 83       	std	Y+4, r24	; 0x04
    2f46:	8c 81       	ldd	r24, Y+4	; 0x04
    2f48:	9d 81       	ldd	r25, Y+5	; 0x05
    2f4a:	9b 83       	std	Y+3, r25	; 0x03
    2f4c:	8a 83       	std	Y+2, r24	; 0x02
    2f4e:	19 82       	std	Y+1, r1	; 0x01
    2f50:	8c 81       	ldd	r24, Y+4	; 0x04
    2f52:	9d 81       	ldd	r25, Y+5	; 0x05
    2f54:	89 2b       	or	r24, r25
    2f56:	09 f4       	brne	.+2      	; 0x2f5a <xTaskPriorityInherit+0x26>
    2f58:	90 c0       	rjmp	.+288    	; 0x307a <xTaskPriorityInherit+0x146>
    2f5a:	8a 81       	ldd	r24, Y+2	; 0x02
    2f5c:	9b 81       	ldd	r25, Y+3	; 0x03
    2f5e:	fc 01       	movw	r30, r24
    2f60:	26 89       	ldd	r18, Z+22	; 0x16
    2f62:	80 91 12 08 	lds	r24, 0x0812	; 0x800812 <__data_end>
    2f66:	90 91 13 08 	lds	r25, 0x0813	; 0x800813 <__data_end+0x1>
    2f6a:	fc 01       	movw	r30, r24
    2f6c:	86 89       	ldd	r24, Z+22	; 0x16
    2f6e:	28 17       	cp	r18, r24
    2f70:	08 f0       	brcs	.+2      	; 0x2f74 <xTaskPriorityInherit+0x40>
    2f72:	75 c0       	rjmp	.+234    	; 0x305e <xTaskPriorityInherit+0x12a>
    2f74:	8a 81       	ldd	r24, Y+2	; 0x02
    2f76:	9b 81       	ldd	r25, Y+3	; 0x03
    2f78:	fc 01       	movw	r30, r24
    2f7a:	84 85       	ldd	r24, Z+12	; 0x0c
    2f7c:	95 85       	ldd	r25, Z+13	; 0x0d
    2f7e:	99 23       	and	r25, r25
    2f80:	8c f0       	brlt	.+34     	; 0x2fa4 <xTaskPriorityInherit+0x70>
    2f82:	80 91 12 08 	lds	r24, 0x0812	; 0x800812 <__data_end>
    2f86:	90 91 13 08 	lds	r25, 0x0813	; 0x800813 <__data_end+0x1>
    2f8a:	fc 01       	movw	r30, r24
    2f8c:	86 89       	ldd	r24, Z+22	; 0x16
    2f8e:	88 2f       	mov	r24, r24
    2f90:	90 e0       	ldi	r25, 0x00	; 0
    2f92:	24 e0       	ldi	r18, 0x04	; 4
    2f94:	30 e0       	ldi	r19, 0x00	; 0
    2f96:	28 1b       	sub	r18, r24
    2f98:	39 0b       	sbc	r19, r25
    2f9a:	8a 81       	ldd	r24, Y+2	; 0x02
    2f9c:	9b 81       	ldd	r25, Y+3	; 0x03
    2f9e:	fc 01       	movw	r30, r24
    2fa0:	35 87       	std	Z+13, r19	; 0x0d
    2fa2:	24 87       	std	Z+12, r18	; 0x0c
    2fa4:	8a 81       	ldd	r24, Y+2	; 0x02
    2fa6:	9b 81       	ldd	r25, Y+3	; 0x03
    2fa8:	fc 01       	movw	r30, r24
    2faa:	42 85       	ldd	r20, Z+10	; 0x0a
    2fac:	53 85       	ldd	r21, Z+11	; 0x0b
    2fae:	8a 81       	ldd	r24, Y+2	; 0x02
    2fb0:	9b 81       	ldd	r25, Y+3	; 0x03
    2fb2:	fc 01       	movw	r30, r24
    2fb4:	86 89       	ldd	r24, Z+22	; 0x16
    2fb6:	28 2f       	mov	r18, r24
    2fb8:	30 e0       	ldi	r19, 0x00	; 0
    2fba:	c9 01       	movw	r24, r18
    2fbc:	88 0f       	add	r24, r24
    2fbe:	99 1f       	adc	r25, r25
    2fc0:	88 0f       	add	r24, r24
    2fc2:	99 1f       	adc	r25, r25
    2fc4:	88 0f       	add	r24, r24
    2fc6:	99 1f       	adc	r25, r25
    2fc8:	82 0f       	add	r24, r18
    2fca:	93 1f       	adc	r25, r19
    2fcc:	8c 5e       	subi	r24, 0xEC	; 236
    2fce:	97 4f       	sbci	r25, 0xF7	; 247
    2fd0:	48 17       	cp	r20, r24
    2fd2:	59 07       	cpc	r21, r25
    2fd4:	b9 f5       	brne	.+110    	; 0x3044 <xTaskPriorityInherit+0x110>
    2fd6:	8a 81       	ldd	r24, Y+2	; 0x02
    2fd8:	9b 81       	ldd	r25, Y+3	; 0x03
    2fda:	02 96       	adiw	r24, 0x02	; 2
    2fdc:	0e 94 d8 02 	call	0x5b0	; 0x5b0 <uxListRemove>
    2fe0:	80 91 12 08 	lds	r24, 0x0812	; 0x800812 <__data_end>
    2fe4:	90 91 13 08 	lds	r25, 0x0813	; 0x800813 <__data_end+0x1>
    2fe8:	fc 01       	movw	r30, r24
    2fea:	26 89       	ldd	r18, Z+22	; 0x16
    2fec:	8a 81       	ldd	r24, Y+2	; 0x02
    2fee:	9b 81       	ldd	r25, Y+3	; 0x03
    2ff0:	fc 01       	movw	r30, r24
    2ff2:	26 8b       	std	Z+22, r18	; 0x16
    2ff4:	8a 81       	ldd	r24, Y+2	; 0x02
    2ff6:	9b 81       	ldd	r25, Y+3	; 0x03
    2ff8:	fc 01       	movw	r30, r24
    2ffa:	96 89       	ldd	r25, Z+22	; 0x16
    2ffc:	80 91 6d 08 	lds	r24, 0x086D	; 0x80086d <uxTopReadyPriority>
    3000:	89 17       	cp	r24, r25
    3002:	30 f4       	brcc	.+12     	; 0x3010 <xTaskPriorityInherit+0xdc>
    3004:	8a 81       	ldd	r24, Y+2	; 0x02
    3006:	9b 81       	ldd	r25, Y+3	; 0x03
    3008:	fc 01       	movw	r30, r24
    300a:	86 89       	ldd	r24, Z+22	; 0x16
    300c:	80 93 6d 08 	sts	0x086D, r24	; 0x80086d <uxTopReadyPriority>
    3010:	8a 81       	ldd	r24, Y+2	; 0x02
    3012:	9b 81       	ldd	r25, Y+3	; 0x03
    3014:	ac 01       	movw	r20, r24
    3016:	4e 5f       	subi	r20, 0xFE	; 254
    3018:	5f 4f       	sbci	r21, 0xFF	; 255
    301a:	8a 81       	ldd	r24, Y+2	; 0x02
    301c:	9b 81       	ldd	r25, Y+3	; 0x03
    301e:	fc 01       	movw	r30, r24
    3020:	86 89       	ldd	r24, Z+22	; 0x16
    3022:	28 2f       	mov	r18, r24
    3024:	30 e0       	ldi	r19, 0x00	; 0
    3026:	c9 01       	movw	r24, r18
    3028:	88 0f       	add	r24, r24
    302a:	99 1f       	adc	r25, r25
    302c:	88 0f       	add	r24, r24
    302e:	99 1f       	adc	r25, r25
    3030:	88 0f       	add	r24, r24
    3032:	99 1f       	adc	r25, r25
    3034:	82 0f       	add	r24, r18
    3036:	93 1f       	adc	r25, r19
    3038:	8c 5e       	subi	r24, 0xEC	; 236
    303a:	97 4f       	sbci	r25, 0xF7	; 247
    303c:	ba 01       	movw	r22, r20
    303e:	0e 94 12 02 	call	0x424	; 0x424 <vListInsertEnd>
    3042:	0a c0       	rjmp	.+20     	; 0x3058 <xTaskPriorityInherit+0x124>
    3044:	80 91 12 08 	lds	r24, 0x0812	; 0x800812 <__data_end>
    3048:	90 91 13 08 	lds	r25, 0x0813	; 0x800813 <__data_end+0x1>
    304c:	fc 01       	movw	r30, r24
    304e:	26 89       	ldd	r18, Z+22	; 0x16
    3050:	8a 81       	ldd	r24, Y+2	; 0x02
    3052:	9b 81       	ldd	r25, Y+3	; 0x03
    3054:	fc 01       	movw	r30, r24
    3056:	26 8b       	std	Z+22, r18	; 0x16
    3058:	81 e0       	ldi	r24, 0x01	; 1
    305a:	89 83       	std	Y+1, r24	; 0x01
    305c:	0e c0       	rjmp	.+28     	; 0x307a <xTaskPriorityInherit+0x146>
    305e:	8a 81       	ldd	r24, Y+2	; 0x02
    3060:	9b 81       	ldd	r25, Y+3	; 0x03
    3062:	fc 01       	movw	r30, r24
    3064:	23 a1       	ldd	r18, Z+35	; 0x23
    3066:	80 91 12 08 	lds	r24, 0x0812	; 0x800812 <__data_end>
    306a:	90 91 13 08 	lds	r25, 0x0813	; 0x800813 <__data_end+0x1>
    306e:	fc 01       	movw	r30, r24
    3070:	86 89       	ldd	r24, Z+22	; 0x16
    3072:	28 17       	cp	r18, r24
    3074:	10 f4       	brcc	.+4      	; 0x307a <xTaskPriorityInherit+0x146>
    3076:	81 e0       	ldi	r24, 0x01	; 1
    3078:	89 83       	std	Y+1, r24	; 0x01
    307a:	89 81       	ldd	r24, Y+1	; 0x01
    307c:	0f 90       	pop	r0
    307e:	0f 90       	pop	r0
    3080:	0f 90       	pop	r0
    3082:	0f 90       	pop	r0
    3084:	0f 90       	pop	r0
    3086:	df 91       	pop	r29
    3088:	cf 91       	pop	r28
    308a:	08 95       	ret

0000308c <xTaskPriorityDisinherit>:
    308c:	cf 93       	push	r28
    308e:	df 93       	push	r29
    3090:	00 d0       	rcall	.+0      	; 0x3092 <xTaskPriorityDisinherit+0x6>
    3092:	1f 92       	push	r1
    3094:	1f 92       	push	r1
    3096:	cd b7       	in	r28, 0x3d	; 61
    3098:	de b7       	in	r29, 0x3e	; 62
    309a:	9d 83       	std	Y+5, r25	; 0x05
    309c:	8c 83       	std	Y+4, r24	; 0x04
    309e:	8c 81       	ldd	r24, Y+4	; 0x04
    30a0:	9d 81       	ldd	r25, Y+5	; 0x05
    30a2:	9b 83       	std	Y+3, r25	; 0x03
    30a4:	8a 83       	std	Y+2, r24	; 0x02
    30a6:	19 82       	std	Y+1, r1	; 0x01
    30a8:	8c 81       	ldd	r24, Y+4	; 0x04
    30aa:	9d 81       	ldd	r25, Y+5	; 0x05
    30ac:	89 2b       	or	r24, r25
    30ae:	09 f4       	brne	.+2      	; 0x30b2 <xTaskPriorityDisinherit+0x26>
    30b0:	61 c0       	rjmp	.+194    	; 0x3174 <xTaskPriorityDisinherit+0xe8>
    30b2:	8a 81       	ldd	r24, Y+2	; 0x02
    30b4:	9b 81       	ldd	r25, Y+3	; 0x03
    30b6:	fc 01       	movw	r30, r24
    30b8:	84 a1       	ldd	r24, Z+36	; 0x24
    30ba:	2f ef       	ldi	r18, 0xFF	; 255
    30bc:	28 0f       	add	r18, r24
    30be:	8a 81       	ldd	r24, Y+2	; 0x02
    30c0:	9b 81       	ldd	r25, Y+3	; 0x03
    30c2:	fc 01       	movw	r30, r24
    30c4:	24 a3       	std	Z+36, r18	; 0x24
    30c6:	8a 81       	ldd	r24, Y+2	; 0x02
    30c8:	9b 81       	ldd	r25, Y+3	; 0x03
    30ca:	fc 01       	movw	r30, r24
    30cc:	26 89       	ldd	r18, Z+22	; 0x16
    30ce:	8a 81       	ldd	r24, Y+2	; 0x02
    30d0:	9b 81       	ldd	r25, Y+3	; 0x03
    30d2:	fc 01       	movw	r30, r24
    30d4:	83 a1       	ldd	r24, Z+35	; 0x23
    30d6:	28 17       	cp	r18, r24
    30d8:	09 f4       	brne	.+2      	; 0x30dc <xTaskPriorityDisinherit+0x50>
    30da:	4c c0       	rjmp	.+152    	; 0x3174 <xTaskPriorityDisinherit+0xe8>
    30dc:	8a 81       	ldd	r24, Y+2	; 0x02
    30de:	9b 81       	ldd	r25, Y+3	; 0x03
    30e0:	fc 01       	movw	r30, r24
    30e2:	84 a1       	ldd	r24, Z+36	; 0x24
    30e4:	88 23       	and	r24, r24
    30e6:	09 f0       	breq	.+2      	; 0x30ea <xTaskPriorityDisinherit+0x5e>
    30e8:	45 c0       	rjmp	.+138    	; 0x3174 <xTaskPriorityDisinherit+0xe8>
    30ea:	8a 81       	ldd	r24, Y+2	; 0x02
    30ec:	9b 81       	ldd	r25, Y+3	; 0x03
    30ee:	02 96       	adiw	r24, 0x02	; 2
    30f0:	0e 94 d8 02 	call	0x5b0	; 0x5b0 <uxListRemove>
    30f4:	8a 81       	ldd	r24, Y+2	; 0x02
    30f6:	9b 81       	ldd	r25, Y+3	; 0x03
    30f8:	fc 01       	movw	r30, r24
    30fa:	23 a1       	ldd	r18, Z+35	; 0x23
    30fc:	8a 81       	ldd	r24, Y+2	; 0x02
    30fe:	9b 81       	ldd	r25, Y+3	; 0x03
    3100:	fc 01       	movw	r30, r24
    3102:	26 8b       	std	Z+22, r18	; 0x16
    3104:	8a 81       	ldd	r24, Y+2	; 0x02
    3106:	9b 81       	ldd	r25, Y+3	; 0x03
    3108:	fc 01       	movw	r30, r24
    310a:	86 89       	ldd	r24, Z+22	; 0x16
    310c:	88 2f       	mov	r24, r24
    310e:	90 e0       	ldi	r25, 0x00	; 0
    3110:	24 e0       	ldi	r18, 0x04	; 4
    3112:	30 e0       	ldi	r19, 0x00	; 0
    3114:	28 1b       	sub	r18, r24
    3116:	39 0b       	sbc	r19, r25
    3118:	8a 81       	ldd	r24, Y+2	; 0x02
    311a:	9b 81       	ldd	r25, Y+3	; 0x03
    311c:	fc 01       	movw	r30, r24
    311e:	35 87       	std	Z+13, r19	; 0x0d
    3120:	24 87       	std	Z+12, r18	; 0x0c
    3122:	8a 81       	ldd	r24, Y+2	; 0x02
    3124:	9b 81       	ldd	r25, Y+3	; 0x03
    3126:	fc 01       	movw	r30, r24
    3128:	96 89       	ldd	r25, Z+22	; 0x16
    312a:	80 91 6d 08 	lds	r24, 0x086D	; 0x80086d <uxTopReadyPriority>
    312e:	89 17       	cp	r24, r25
    3130:	30 f4       	brcc	.+12     	; 0x313e <xTaskPriorityDisinherit+0xb2>
    3132:	8a 81       	ldd	r24, Y+2	; 0x02
    3134:	9b 81       	ldd	r25, Y+3	; 0x03
    3136:	fc 01       	movw	r30, r24
    3138:	86 89       	ldd	r24, Z+22	; 0x16
    313a:	80 93 6d 08 	sts	0x086D, r24	; 0x80086d <uxTopReadyPriority>
    313e:	8a 81       	ldd	r24, Y+2	; 0x02
    3140:	9b 81       	ldd	r25, Y+3	; 0x03
    3142:	ac 01       	movw	r20, r24
    3144:	4e 5f       	subi	r20, 0xFE	; 254
    3146:	5f 4f       	sbci	r21, 0xFF	; 255
    3148:	8a 81       	ldd	r24, Y+2	; 0x02
    314a:	9b 81       	ldd	r25, Y+3	; 0x03
    314c:	fc 01       	movw	r30, r24
    314e:	86 89       	ldd	r24, Z+22	; 0x16
    3150:	28 2f       	mov	r18, r24
    3152:	30 e0       	ldi	r19, 0x00	; 0
    3154:	c9 01       	movw	r24, r18
    3156:	88 0f       	add	r24, r24
    3158:	99 1f       	adc	r25, r25
    315a:	88 0f       	add	r24, r24
    315c:	99 1f       	adc	r25, r25
    315e:	88 0f       	add	r24, r24
    3160:	99 1f       	adc	r25, r25
    3162:	82 0f       	add	r24, r18
    3164:	93 1f       	adc	r25, r19
    3166:	8c 5e       	subi	r24, 0xEC	; 236
    3168:	97 4f       	sbci	r25, 0xF7	; 247
    316a:	ba 01       	movw	r22, r20
    316c:	0e 94 12 02 	call	0x424	; 0x424 <vListInsertEnd>
    3170:	81 e0       	ldi	r24, 0x01	; 1
    3172:	89 83       	std	Y+1, r24	; 0x01
    3174:	89 81       	ldd	r24, Y+1	; 0x01
    3176:	0f 90       	pop	r0
    3178:	0f 90       	pop	r0
    317a:	0f 90       	pop	r0
    317c:	0f 90       	pop	r0
    317e:	0f 90       	pop	r0
    3180:	df 91       	pop	r29
    3182:	cf 91       	pop	r28
    3184:	08 95       	ret

00003186 <vTaskPriorityDisinheritAfterTimeout>:
    3186:	cf 93       	push	r28
    3188:	df 93       	push	r29
    318a:	cd b7       	in	r28, 0x3d	; 61
    318c:	de b7       	in	r29, 0x3e	; 62
    318e:	28 97       	sbiw	r28, 0x08	; 8
    3190:	0f b6       	in	r0, 0x3f	; 63
    3192:	f8 94       	cli
    3194:	de bf       	out	0x3e, r29	; 62
    3196:	0f be       	out	0x3f, r0	; 63
    3198:	cd bf       	out	0x3d, r28	; 61
    319a:	9f 83       	std	Y+7, r25	; 0x07
    319c:	8e 83       	std	Y+6, r24	; 0x06
    319e:	68 87       	std	Y+8, r22	; 0x08
    31a0:	8e 81       	ldd	r24, Y+6	; 0x06
    31a2:	9f 81       	ldd	r25, Y+7	; 0x07
    31a4:	9b 83       	std	Y+3, r25	; 0x03
    31a6:	8a 83       	std	Y+2, r24	; 0x02
    31a8:	81 e0       	ldi	r24, 0x01	; 1
    31aa:	8c 83       	std	Y+4, r24	; 0x04
    31ac:	8e 81       	ldd	r24, Y+6	; 0x06
    31ae:	9f 81       	ldd	r25, Y+7	; 0x07
    31b0:	89 2b       	or	r24, r25
    31b2:	09 f4       	brne	.+2      	; 0x31b6 <vTaskPriorityDisinheritAfterTimeout+0x30>
    31b4:	7e c0       	rjmp	.+252    	; 0x32b2 <vTaskPriorityDisinheritAfterTimeout+0x12c>
    31b6:	8a 81       	ldd	r24, Y+2	; 0x02
    31b8:	9b 81       	ldd	r25, Y+3	; 0x03
    31ba:	fc 01       	movw	r30, r24
    31bc:	93 a1       	ldd	r25, Z+35	; 0x23
    31be:	88 85       	ldd	r24, Y+8	; 0x08
    31c0:	98 17       	cp	r25, r24
    31c2:	18 f4       	brcc	.+6      	; 0x31ca <vTaskPriorityDisinheritAfterTimeout+0x44>
    31c4:	88 85       	ldd	r24, Y+8	; 0x08
    31c6:	89 83       	std	Y+1, r24	; 0x01
    31c8:	05 c0       	rjmp	.+10     	; 0x31d4 <vTaskPriorityDisinheritAfterTimeout+0x4e>
    31ca:	8a 81       	ldd	r24, Y+2	; 0x02
    31cc:	9b 81       	ldd	r25, Y+3	; 0x03
    31ce:	fc 01       	movw	r30, r24
    31d0:	83 a1       	ldd	r24, Z+35	; 0x23
    31d2:	89 83       	std	Y+1, r24	; 0x01
    31d4:	8a 81       	ldd	r24, Y+2	; 0x02
    31d6:	9b 81       	ldd	r25, Y+3	; 0x03
    31d8:	fc 01       	movw	r30, r24
    31da:	96 89       	ldd	r25, Z+22	; 0x16
    31dc:	89 81       	ldd	r24, Y+1	; 0x01
    31de:	98 17       	cp	r25, r24
    31e0:	09 f4       	brne	.+2      	; 0x31e4 <vTaskPriorityDisinheritAfterTimeout+0x5e>
    31e2:	67 c0       	rjmp	.+206    	; 0x32b2 <vTaskPriorityDisinheritAfterTimeout+0x12c>
    31e4:	8a 81       	ldd	r24, Y+2	; 0x02
    31e6:	9b 81       	ldd	r25, Y+3	; 0x03
    31e8:	fc 01       	movw	r30, r24
    31ea:	94 a1       	ldd	r25, Z+36	; 0x24
    31ec:	8c 81       	ldd	r24, Y+4	; 0x04
    31ee:	98 17       	cp	r25, r24
    31f0:	09 f0       	breq	.+2      	; 0x31f4 <vTaskPriorityDisinheritAfterTimeout+0x6e>
    31f2:	5f c0       	rjmp	.+190    	; 0x32b2 <vTaskPriorityDisinheritAfterTimeout+0x12c>
    31f4:	8a 81       	ldd	r24, Y+2	; 0x02
    31f6:	9b 81       	ldd	r25, Y+3	; 0x03
    31f8:	fc 01       	movw	r30, r24
    31fa:	86 89       	ldd	r24, Z+22	; 0x16
    31fc:	8d 83       	std	Y+5, r24	; 0x05
    31fe:	8a 81       	ldd	r24, Y+2	; 0x02
    3200:	9b 81       	ldd	r25, Y+3	; 0x03
    3202:	29 81       	ldd	r18, Y+1	; 0x01
    3204:	fc 01       	movw	r30, r24
    3206:	26 8b       	std	Z+22, r18	; 0x16
    3208:	8a 81       	ldd	r24, Y+2	; 0x02
    320a:	9b 81       	ldd	r25, Y+3	; 0x03
    320c:	fc 01       	movw	r30, r24
    320e:	84 85       	ldd	r24, Z+12	; 0x0c
    3210:	95 85       	ldd	r25, Z+13	; 0x0d
    3212:	99 23       	and	r25, r25
    3214:	64 f0       	brlt	.+24     	; 0x322e <vTaskPriorityDisinheritAfterTimeout+0xa8>
    3216:	89 81       	ldd	r24, Y+1	; 0x01
    3218:	88 2f       	mov	r24, r24
    321a:	90 e0       	ldi	r25, 0x00	; 0
    321c:	24 e0       	ldi	r18, 0x04	; 4
    321e:	30 e0       	ldi	r19, 0x00	; 0
    3220:	28 1b       	sub	r18, r24
    3222:	39 0b       	sbc	r19, r25
    3224:	8a 81       	ldd	r24, Y+2	; 0x02
    3226:	9b 81       	ldd	r25, Y+3	; 0x03
    3228:	fc 01       	movw	r30, r24
    322a:	35 87       	std	Z+13, r19	; 0x0d
    322c:	24 87       	std	Z+12, r18	; 0x0c
    322e:	8a 81       	ldd	r24, Y+2	; 0x02
    3230:	9b 81       	ldd	r25, Y+3	; 0x03
    3232:	fc 01       	movw	r30, r24
    3234:	42 85       	ldd	r20, Z+10	; 0x0a
    3236:	53 85       	ldd	r21, Z+11	; 0x0b
    3238:	8d 81       	ldd	r24, Y+5	; 0x05
    323a:	28 2f       	mov	r18, r24
    323c:	30 e0       	ldi	r19, 0x00	; 0
    323e:	c9 01       	movw	r24, r18
    3240:	88 0f       	add	r24, r24
    3242:	99 1f       	adc	r25, r25
    3244:	88 0f       	add	r24, r24
    3246:	99 1f       	adc	r25, r25
    3248:	88 0f       	add	r24, r24
    324a:	99 1f       	adc	r25, r25
    324c:	82 0f       	add	r24, r18
    324e:	93 1f       	adc	r25, r19
    3250:	8c 5e       	subi	r24, 0xEC	; 236
    3252:	97 4f       	sbci	r25, 0xF7	; 247
    3254:	48 17       	cp	r20, r24
    3256:	59 07       	cpc	r21, r25
    3258:	61 f5       	brne	.+88     	; 0x32b2 <vTaskPriorityDisinheritAfterTimeout+0x12c>
    325a:	8a 81       	ldd	r24, Y+2	; 0x02
    325c:	9b 81       	ldd	r25, Y+3	; 0x03
    325e:	02 96       	adiw	r24, 0x02	; 2
    3260:	0e 94 d8 02 	call	0x5b0	; 0x5b0 <uxListRemove>
    3264:	8a 81       	ldd	r24, Y+2	; 0x02
    3266:	9b 81       	ldd	r25, Y+3	; 0x03
    3268:	fc 01       	movw	r30, r24
    326a:	96 89       	ldd	r25, Z+22	; 0x16
    326c:	80 91 6d 08 	lds	r24, 0x086D	; 0x80086d <uxTopReadyPriority>
    3270:	89 17       	cp	r24, r25
    3272:	30 f4       	brcc	.+12     	; 0x3280 <vTaskPriorityDisinheritAfterTimeout+0xfa>
    3274:	8a 81       	ldd	r24, Y+2	; 0x02
    3276:	9b 81       	ldd	r25, Y+3	; 0x03
    3278:	fc 01       	movw	r30, r24
    327a:	86 89       	ldd	r24, Z+22	; 0x16
    327c:	80 93 6d 08 	sts	0x086D, r24	; 0x80086d <uxTopReadyPriority>
    3280:	8a 81       	ldd	r24, Y+2	; 0x02
    3282:	9b 81       	ldd	r25, Y+3	; 0x03
    3284:	ac 01       	movw	r20, r24
    3286:	4e 5f       	subi	r20, 0xFE	; 254
    3288:	5f 4f       	sbci	r21, 0xFF	; 255
    328a:	8a 81       	ldd	r24, Y+2	; 0x02
    328c:	9b 81       	ldd	r25, Y+3	; 0x03
    328e:	fc 01       	movw	r30, r24
    3290:	86 89       	ldd	r24, Z+22	; 0x16
    3292:	28 2f       	mov	r18, r24
    3294:	30 e0       	ldi	r19, 0x00	; 0
    3296:	c9 01       	movw	r24, r18
    3298:	88 0f       	add	r24, r24
    329a:	99 1f       	adc	r25, r25
    329c:	88 0f       	add	r24, r24
    329e:	99 1f       	adc	r25, r25
    32a0:	88 0f       	add	r24, r24
    32a2:	99 1f       	adc	r25, r25
    32a4:	82 0f       	add	r24, r18
    32a6:	93 1f       	adc	r25, r19
    32a8:	8c 5e       	subi	r24, 0xEC	; 236
    32aa:	97 4f       	sbci	r25, 0xF7	; 247
    32ac:	ba 01       	movw	r22, r20
    32ae:	0e 94 12 02 	call	0x424	; 0x424 <vListInsertEnd>
    32b2:	00 00       	nop
    32b4:	28 96       	adiw	r28, 0x08	; 8
    32b6:	0f b6       	in	r0, 0x3f	; 63
    32b8:	f8 94       	cli
    32ba:	de bf       	out	0x3e, r29	; 62
    32bc:	0f be       	out	0x3f, r0	; 63
    32be:	cd bf       	out	0x3d, r28	; 61
    32c0:	df 91       	pop	r29
    32c2:	cf 91       	pop	r28
    32c4:	08 95       	ret

000032c6 <pvTaskIncrementMutexHeldCount>:
    32c6:	cf 93       	push	r28
    32c8:	df 93       	push	r29
    32ca:	cd b7       	in	r28, 0x3d	; 61
    32cc:	de b7       	in	r29, 0x3e	; 62
    32ce:	80 91 12 08 	lds	r24, 0x0812	; 0x800812 <__data_end>
    32d2:	90 91 13 08 	lds	r25, 0x0813	; 0x800813 <__data_end+0x1>
    32d6:	89 2b       	or	r24, r25
    32d8:	49 f0       	breq	.+18     	; 0x32ec <pvTaskIncrementMutexHeldCount+0x26>
    32da:	80 91 12 08 	lds	r24, 0x0812	; 0x800812 <__data_end>
    32de:	90 91 13 08 	lds	r25, 0x0813	; 0x800813 <__data_end+0x1>
    32e2:	fc 01       	movw	r30, r24
    32e4:	24 a1       	ldd	r18, Z+36	; 0x24
    32e6:	2f 5f       	subi	r18, 0xFF	; 255
    32e8:	fc 01       	movw	r30, r24
    32ea:	24 a3       	std	Z+36, r18	; 0x24
    32ec:	80 91 12 08 	lds	r24, 0x0812	; 0x800812 <__data_end>
    32f0:	90 91 13 08 	lds	r25, 0x0813	; 0x800813 <__data_end+0x1>
    32f4:	df 91       	pop	r29
    32f6:	cf 91       	pop	r28
    32f8:	08 95       	ret

000032fa <xTaskNotifyWait>:
    32fa:	ef 92       	push	r14
    32fc:	ff 92       	push	r15
    32fe:	0f 93       	push	r16
    3300:	1f 93       	push	r17
    3302:	cf 93       	push	r28
    3304:	df 93       	push	r29
    3306:	cd b7       	in	r28, 0x3d	; 61
    3308:	de b7       	in	r29, 0x3e	; 62
    330a:	2d 97       	sbiw	r28, 0x0d	; 13
    330c:	0f b6       	in	r0, 0x3f	; 63
    330e:	f8 94       	cli
    3310:	de bf       	out	0x3e, r29	; 62
    3312:	0f be       	out	0x3f, r0	; 63
    3314:	cd bf       	out	0x3d, r28	; 61
    3316:	6a 83       	std	Y+2, r22	; 0x02
    3318:	7b 83       	std	Y+3, r23	; 0x03
    331a:	8c 83       	std	Y+4, r24	; 0x04
    331c:	9d 83       	std	Y+5, r25	; 0x05
    331e:	2e 83       	std	Y+6, r18	; 0x06
    3320:	3f 83       	std	Y+7, r19	; 0x07
    3322:	48 87       	std	Y+8, r20	; 0x08
    3324:	59 87       	std	Y+9, r21	; 0x09
    3326:	1b 87       	std	Y+11, r17	; 0x0b
    3328:	0a 87       	std	Y+10, r16	; 0x0a
    332a:	fd 86       	std	Y+13, r15	; 0x0d
    332c:	ec 86       	std	Y+12, r14	; 0x0c
    332e:	0f b6       	in	r0, 0x3f	; 63
    3330:	f8 94       	cli
    3332:	0f 92       	push	r0
    3334:	80 91 12 08 	lds	r24, 0x0812	; 0x800812 <__data_end>
    3338:	90 91 13 08 	lds	r25, 0x0813	; 0x800813 <__data_end+0x1>
    333c:	fc 01       	movw	r30, r24
    333e:	83 a5       	ldd	r24, Z+43	; 0x2b
    3340:	82 30       	cpi	r24, 0x02	; 2
    3342:	59 f1       	breq	.+86     	; 0x339a <xTaskNotifyWait+0xa0>
    3344:	60 91 12 08 	lds	r22, 0x0812	; 0x800812 <__data_end>
    3348:	70 91 13 08 	lds	r23, 0x0813	; 0x800813 <__data_end+0x1>
    334c:	fb 01       	movw	r30, r22
    334e:	27 a1       	ldd	r18, Z+39	; 0x27
    3350:	30 a5       	ldd	r19, Z+40	; 0x28
    3352:	41 a5       	ldd	r20, Z+41	; 0x29
    3354:	52 a5       	ldd	r21, Z+42	; 0x2a
    3356:	8a 81       	ldd	r24, Y+2	; 0x02
    3358:	9b 81       	ldd	r25, Y+3	; 0x03
    335a:	ac 81       	ldd	r26, Y+4	; 0x04
    335c:	bd 81       	ldd	r27, Y+5	; 0x05
    335e:	80 95       	com	r24
    3360:	90 95       	com	r25
    3362:	a0 95       	com	r26
    3364:	b0 95       	com	r27
    3366:	82 23       	and	r24, r18
    3368:	93 23       	and	r25, r19
    336a:	a4 23       	and	r26, r20
    336c:	b5 23       	and	r27, r21
    336e:	fb 01       	movw	r30, r22
    3370:	87 a3       	std	Z+39, r24	; 0x27
    3372:	90 a7       	std	Z+40, r25	; 0x28
    3374:	a1 a7       	std	Z+41, r26	; 0x29
    3376:	b2 a7       	std	Z+42, r27	; 0x2a
    3378:	80 91 12 08 	lds	r24, 0x0812	; 0x800812 <__data_end>
    337c:	90 91 13 08 	lds	r25, 0x0813	; 0x800813 <__data_end+0x1>
    3380:	21 e0       	ldi	r18, 0x01	; 1
    3382:	fc 01       	movw	r30, r24
    3384:	23 a7       	std	Z+43, r18	; 0x2b
    3386:	8c 85       	ldd	r24, Y+12	; 0x0c
    3388:	9d 85       	ldd	r25, Y+13	; 0x0d
    338a:	89 2b       	or	r24, r25
    338c:	31 f0       	breq	.+12     	; 0x339a <xTaskNotifyWait+0xa0>
    338e:	8c 85       	ldd	r24, Y+12	; 0x0c
    3390:	9d 85       	ldd	r25, Y+13	; 0x0d
    3392:	61 e0       	ldi	r22, 0x01	; 1
    3394:	65 d2       	rcall	.+1226   	; 0x3860 <prvAddCurrentTaskToDelayedList>
    3396:	0e 94 2b 05 	call	0xa56	; 0xa56 <vPortYield>
    339a:	0f 90       	pop	r0
    339c:	0f be       	out	0x3f, r0	; 63
    339e:	0f b6       	in	r0, 0x3f	; 63
    33a0:	f8 94       	cli
    33a2:	0f 92       	push	r0
    33a4:	8a 85       	ldd	r24, Y+10	; 0x0a
    33a6:	9b 85       	ldd	r25, Y+11	; 0x0b
    33a8:	89 2b       	or	r24, r25
    33aa:	81 f0       	breq	.+32     	; 0x33cc <xTaskNotifyWait+0xd2>
    33ac:	80 91 12 08 	lds	r24, 0x0812	; 0x800812 <__data_end>
    33b0:	90 91 13 08 	lds	r25, 0x0813	; 0x800813 <__data_end+0x1>
    33b4:	fc 01       	movw	r30, r24
    33b6:	87 a1       	ldd	r24, Z+39	; 0x27
    33b8:	90 a5       	ldd	r25, Z+40	; 0x28
    33ba:	a1 a5       	ldd	r26, Z+41	; 0x29
    33bc:	b2 a5       	ldd	r27, Z+42	; 0x2a
    33be:	2a 85       	ldd	r18, Y+10	; 0x0a
    33c0:	3b 85       	ldd	r19, Y+11	; 0x0b
    33c2:	f9 01       	movw	r30, r18
    33c4:	80 83       	st	Z, r24
    33c6:	91 83       	std	Z+1, r25	; 0x01
    33c8:	a2 83       	std	Z+2, r26	; 0x02
    33ca:	b3 83       	std	Z+3, r27	; 0x03
    33cc:	80 91 12 08 	lds	r24, 0x0812	; 0x800812 <__data_end>
    33d0:	90 91 13 08 	lds	r25, 0x0813	; 0x800813 <__data_end+0x1>
    33d4:	fc 01       	movw	r30, r24
    33d6:	83 a5       	ldd	r24, Z+43	; 0x2b
    33d8:	82 30       	cpi	r24, 0x02	; 2
    33da:	11 f0       	breq	.+4      	; 0x33e0 <xTaskNotifyWait+0xe6>
    33dc:	19 82       	std	Y+1, r1	; 0x01
    33de:	1c c0       	rjmp	.+56     	; 0x3418 <xTaskNotifyWait+0x11e>
    33e0:	60 91 12 08 	lds	r22, 0x0812	; 0x800812 <__data_end>
    33e4:	70 91 13 08 	lds	r23, 0x0813	; 0x800813 <__data_end+0x1>
    33e8:	fb 01       	movw	r30, r22
    33ea:	27 a1       	ldd	r18, Z+39	; 0x27
    33ec:	30 a5       	ldd	r19, Z+40	; 0x28
    33ee:	41 a5       	ldd	r20, Z+41	; 0x29
    33f0:	52 a5       	ldd	r21, Z+42	; 0x2a
    33f2:	8e 81       	ldd	r24, Y+6	; 0x06
    33f4:	9f 81       	ldd	r25, Y+7	; 0x07
    33f6:	a8 85       	ldd	r26, Y+8	; 0x08
    33f8:	b9 85       	ldd	r27, Y+9	; 0x09
    33fa:	80 95       	com	r24
    33fc:	90 95       	com	r25
    33fe:	a0 95       	com	r26
    3400:	b0 95       	com	r27
    3402:	82 23       	and	r24, r18
    3404:	93 23       	and	r25, r19
    3406:	a4 23       	and	r26, r20
    3408:	b5 23       	and	r27, r21
    340a:	fb 01       	movw	r30, r22
    340c:	87 a3       	std	Z+39, r24	; 0x27
    340e:	90 a7       	std	Z+40, r25	; 0x28
    3410:	a1 a7       	std	Z+41, r26	; 0x29
    3412:	b2 a7       	std	Z+42, r27	; 0x2a
    3414:	81 e0       	ldi	r24, 0x01	; 1
    3416:	89 83       	std	Y+1, r24	; 0x01
    3418:	80 91 12 08 	lds	r24, 0x0812	; 0x800812 <__data_end>
    341c:	90 91 13 08 	lds	r25, 0x0813	; 0x800813 <__data_end+0x1>
    3420:	fc 01       	movw	r30, r24
    3422:	13 a6       	std	Z+43, r1	; 0x2b
    3424:	0f 90       	pop	r0
    3426:	0f be       	out	0x3f, r0	; 63
    3428:	89 81       	ldd	r24, Y+1	; 0x01
    342a:	2d 96       	adiw	r28, 0x0d	; 13
    342c:	0f b6       	in	r0, 0x3f	; 63
    342e:	f8 94       	cli
    3430:	de bf       	out	0x3e, r29	; 62
    3432:	0f be       	out	0x3f, r0	; 63
    3434:	cd bf       	out	0x3d, r28	; 61
    3436:	df 91       	pop	r29
    3438:	cf 91       	pop	r28
    343a:	1f 91       	pop	r17
    343c:	0f 91       	pop	r16
    343e:	ff 90       	pop	r15
    3440:	ef 90       	pop	r14
    3442:	08 95       	ret

00003444 <xTaskGenericNotify>:
    3444:	0f 93       	push	r16
    3446:	1f 93       	push	r17
    3448:	cf 93       	push	r28
    344a:	df 93       	push	r29
    344c:	cd b7       	in	r28, 0x3d	; 61
    344e:	de b7       	in	r29, 0x3e	; 62
    3450:	2d 97       	sbiw	r28, 0x0d	; 13
    3452:	0f b6       	in	r0, 0x3f	; 63
    3454:	f8 94       	cli
    3456:	de bf       	out	0x3e, r29	; 62
    3458:	0f be       	out	0x3f, r0	; 63
    345a:	cd bf       	out	0x3d, r28	; 61
    345c:	9e 83       	std	Y+6, r25	; 0x06
    345e:	8d 83       	std	Y+5, r24	; 0x05
    3460:	4f 83       	std	Y+7, r20	; 0x07
    3462:	58 87       	std	Y+8, r21	; 0x08
    3464:	69 87       	std	Y+9, r22	; 0x09
    3466:	7a 87       	std	Y+10, r23	; 0x0a
    3468:	2b 87       	std	Y+11, r18	; 0x0b
    346a:	1d 87       	std	Y+13, r17	; 0x0d
    346c:	0c 87       	std	Y+12, r16	; 0x0c
    346e:	81 e0       	ldi	r24, 0x01	; 1
    3470:	89 83       	std	Y+1, r24	; 0x01
    3472:	8d 81       	ldd	r24, Y+5	; 0x05
    3474:	9e 81       	ldd	r25, Y+6	; 0x06
    3476:	9b 83       	std	Y+3, r25	; 0x03
    3478:	8a 83       	std	Y+2, r24	; 0x02
    347a:	0f b6       	in	r0, 0x3f	; 63
    347c:	f8 94       	cli
    347e:	0f 92       	push	r0
    3480:	8c 85       	ldd	r24, Y+12	; 0x0c
    3482:	9d 85       	ldd	r25, Y+13	; 0x0d
    3484:	89 2b       	or	r24, r25
    3486:	71 f0       	breq	.+28     	; 0x34a4 <xTaskGenericNotify+0x60>
    3488:	8a 81       	ldd	r24, Y+2	; 0x02
    348a:	9b 81       	ldd	r25, Y+3	; 0x03
    348c:	fc 01       	movw	r30, r24
    348e:	87 a1       	ldd	r24, Z+39	; 0x27
    3490:	90 a5       	ldd	r25, Z+40	; 0x28
    3492:	a1 a5       	ldd	r26, Z+41	; 0x29
    3494:	b2 a5       	ldd	r27, Z+42	; 0x2a
    3496:	2c 85       	ldd	r18, Y+12	; 0x0c
    3498:	3d 85       	ldd	r19, Y+13	; 0x0d
    349a:	f9 01       	movw	r30, r18
    349c:	80 83       	st	Z, r24
    349e:	91 83       	std	Z+1, r25	; 0x01
    34a0:	a2 83       	std	Z+2, r26	; 0x02
    34a2:	b3 83       	std	Z+3, r27	; 0x03
    34a4:	8a 81       	ldd	r24, Y+2	; 0x02
    34a6:	9b 81       	ldd	r25, Y+3	; 0x03
    34a8:	fc 01       	movw	r30, r24
    34aa:	83 a5       	ldd	r24, Z+43	; 0x2b
    34ac:	8c 83       	std	Y+4, r24	; 0x04
    34ae:	8a 81       	ldd	r24, Y+2	; 0x02
    34b0:	9b 81       	ldd	r25, Y+3	; 0x03
    34b2:	22 e0       	ldi	r18, 0x02	; 2
    34b4:	fc 01       	movw	r30, r24
    34b6:	23 a7       	std	Z+43, r18	; 0x2b
    34b8:	8b 85       	ldd	r24, Y+11	; 0x0b
    34ba:	88 2f       	mov	r24, r24
    34bc:	90 e0       	ldi	r25, 0x00	; 0
    34be:	82 30       	cpi	r24, 0x02	; 2
    34c0:	91 05       	cpc	r25, r1
    34c2:	31 f1       	breq	.+76     	; 0x3510 <xTaskGenericNotify+0xcc>
    34c4:	83 30       	cpi	r24, 0x03	; 3
    34c6:	91 05       	cpc	r25, r1
    34c8:	34 f4       	brge	.+12     	; 0x34d6 <xTaskGenericNotify+0x92>
    34ca:	00 97       	sbiw	r24, 0x00	; 0
    34cc:	09 f4       	brne	.+2      	; 0x34d0 <xTaskGenericNotify+0x8c>
    34ce:	4f c0       	rjmp	.+158    	; 0x356e <xTaskGenericNotify+0x12a>
    34d0:	01 97       	sbiw	r24, 0x01	; 1
    34d2:	39 f0       	breq	.+14     	; 0x34e2 <xTaskGenericNotify+0x9e>
    34d4:	4d c0       	rjmp	.+154    	; 0x3570 <xTaskGenericNotify+0x12c>
    34d6:	83 30       	cpi	r24, 0x03	; 3
    34d8:	91 05       	cpc	r25, r1
    34da:	61 f1       	breq	.+88     	; 0x3534 <xTaskGenericNotify+0xf0>
    34dc:	04 97       	sbiw	r24, 0x04	; 4
    34de:	b1 f1       	breq	.+108    	; 0x354c <xTaskGenericNotify+0x108>
    34e0:	47 c0       	rjmp	.+142    	; 0x3570 <xTaskGenericNotify+0x12c>
    34e2:	8a 81       	ldd	r24, Y+2	; 0x02
    34e4:	9b 81       	ldd	r25, Y+3	; 0x03
    34e6:	fc 01       	movw	r30, r24
    34e8:	27 a1       	ldd	r18, Z+39	; 0x27
    34ea:	30 a5       	ldd	r19, Z+40	; 0x28
    34ec:	41 a5       	ldd	r20, Z+41	; 0x29
    34ee:	52 a5       	ldd	r21, Z+42	; 0x2a
    34f0:	8f 81       	ldd	r24, Y+7	; 0x07
    34f2:	98 85       	ldd	r25, Y+8	; 0x08
    34f4:	a9 85       	ldd	r26, Y+9	; 0x09
    34f6:	ba 85       	ldd	r27, Y+10	; 0x0a
    34f8:	82 2b       	or	r24, r18
    34fa:	93 2b       	or	r25, r19
    34fc:	a4 2b       	or	r26, r20
    34fe:	b5 2b       	or	r27, r21
    3500:	2a 81       	ldd	r18, Y+2	; 0x02
    3502:	3b 81       	ldd	r19, Y+3	; 0x03
    3504:	f9 01       	movw	r30, r18
    3506:	87 a3       	std	Z+39, r24	; 0x27
    3508:	90 a7       	std	Z+40, r25	; 0x28
    350a:	a1 a7       	std	Z+41, r26	; 0x29
    350c:	b2 a7       	std	Z+42, r27	; 0x2a
    350e:	30 c0       	rjmp	.+96     	; 0x3570 <xTaskGenericNotify+0x12c>
    3510:	8a 81       	ldd	r24, Y+2	; 0x02
    3512:	9b 81       	ldd	r25, Y+3	; 0x03
    3514:	fc 01       	movw	r30, r24
    3516:	87 a1       	ldd	r24, Z+39	; 0x27
    3518:	90 a5       	ldd	r25, Z+40	; 0x28
    351a:	a1 a5       	ldd	r26, Z+41	; 0x29
    351c:	b2 a5       	ldd	r27, Z+42	; 0x2a
    351e:	01 96       	adiw	r24, 0x01	; 1
    3520:	a1 1d       	adc	r26, r1
    3522:	b1 1d       	adc	r27, r1
    3524:	2a 81       	ldd	r18, Y+2	; 0x02
    3526:	3b 81       	ldd	r19, Y+3	; 0x03
    3528:	f9 01       	movw	r30, r18
    352a:	87 a3       	std	Z+39, r24	; 0x27
    352c:	90 a7       	std	Z+40, r25	; 0x28
    352e:	a1 a7       	std	Z+41, r26	; 0x29
    3530:	b2 a7       	std	Z+42, r27	; 0x2a
    3532:	1e c0       	rjmp	.+60     	; 0x3570 <xTaskGenericNotify+0x12c>
    3534:	2a 81       	ldd	r18, Y+2	; 0x02
    3536:	3b 81       	ldd	r19, Y+3	; 0x03
    3538:	8f 81       	ldd	r24, Y+7	; 0x07
    353a:	98 85       	ldd	r25, Y+8	; 0x08
    353c:	a9 85       	ldd	r26, Y+9	; 0x09
    353e:	ba 85       	ldd	r27, Y+10	; 0x0a
    3540:	f9 01       	movw	r30, r18
    3542:	87 a3       	std	Z+39, r24	; 0x27
    3544:	90 a7       	std	Z+40, r25	; 0x28
    3546:	a1 a7       	std	Z+41, r26	; 0x29
    3548:	b2 a7       	std	Z+42, r27	; 0x2a
    354a:	12 c0       	rjmp	.+36     	; 0x3570 <xTaskGenericNotify+0x12c>
    354c:	8c 81       	ldd	r24, Y+4	; 0x04
    354e:	82 30       	cpi	r24, 0x02	; 2
    3550:	61 f0       	breq	.+24     	; 0x356a <xTaskGenericNotify+0x126>
    3552:	2a 81       	ldd	r18, Y+2	; 0x02
    3554:	3b 81       	ldd	r19, Y+3	; 0x03
    3556:	8f 81       	ldd	r24, Y+7	; 0x07
    3558:	98 85       	ldd	r25, Y+8	; 0x08
    355a:	a9 85       	ldd	r26, Y+9	; 0x09
    355c:	ba 85       	ldd	r27, Y+10	; 0x0a
    355e:	f9 01       	movw	r30, r18
    3560:	87 a3       	std	Z+39, r24	; 0x27
    3562:	90 a7       	std	Z+40, r25	; 0x28
    3564:	a1 a7       	std	Z+41, r26	; 0x29
    3566:	b2 a7       	std	Z+42, r27	; 0x2a
    3568:	03 c0       	rjmp	.+6      	; 0x3570 <xTaskGenericNotify+0x12c>
    356a:	19 82       	std	Y+1, r1	; 0x01
    356c:	01 c0       	rjmp	.+2      	; 0x3570 <xTaskGenericNotify+0x12c>
    356e:	00 00       	nop
    3570:	8c 81       	ldd	r24, Y+4	; 0x04
    3572:	81 30       	cpi	r24, 0x01	; 1
    3574:	d1 f5       	brne	.+116    	; 0x35ea <xTaskGenericNotify+0x1a6>
    3576:	8a 81       	ldd	r24, Y+2	; 0x02
    3578:	9b 81       	ldd	r25, Y+3	; 0x03
    357a:	02 96       	adiw	r24, 0x02	; 2
    357c:	0e 94 d8 02 	call	0x5b0	; 0x5b0 <uxListRemove>
    3580:	8a 81       	ldd	r24, Y+2	; 0x02
    3582:	9b 81       	ldd	r25, Y+3	; 0x03
    3584:	fc 01       	movw	r30, r24
    3586:	96 89       	ldd	r25, Z+22	; 0x16
    3588:	80 91 6d 08 	lds	r24, 0x086D	; 0x80086d <uxTopReadyPriority>
    358c:	89 17       	cp	r24, r25
    358e:	30 f4       	brcc	.+12     	; 0x359c <xTaskGenericNotify+0x158>
    3590:	8a 81       	ldd	r24, Y+2	; 0x02
    3592:	9b 81       	ldd	r25, Y+3	; 0x03
    3594:	fc 01       	movw	r30, r24
    3596:	86 89       	ldd	r24, Z+22	; 0x16
    3598:	80 93 6d 08 	sts	0x086D, r24	; 0x80086d <uxTopReadyPriority>
    359c:	8a 81       	ldd	r24, Y+2	; 0x02
    359e:	9b 81       	ldd	r25, Y+3	; 0x03
    35a0:	ac 01       	movw	r20, r24
    35a2:	4e 5f       	subi	r20, 0xFE	; 254
    35a4:	5f 4f       	sbci	r21, 0xFF	; 255
    35a6:	8a 81       	ldd	r24, Y+2	; 0x02
    35a8:	9b 81       	ldd	r25, Y+3	; 0x03
    35aa:	fc 01       	movw	r30, r24
    35ac:	86 89       	ldd	r24, Z+22	; 0x16
    35ae:	28 2f       	mov	r18, r24
    35b0:	30 e0       	ldi	r19, 0x00	; 0
    35b2:	c9 01       	movw	r24, r18
    35b4:	88 0f       	add	r24, r24
    35b6:	99 1f       	adc	r25, r25
    35b8:	88 0f       	add	r24, r24
    35ba:	99 1f       	adc	r25, r25
    35bc:	88 0f       	add	r24, r24
    35be:	99 1f       	adc	r25, r25
    35c0:	82 0f       	add	r24, r18
    35c2:	93 1f       	adc	r25, r19
    35c4:	8c 5e       	subi	r24, 0xEC	; 236
    35c6:	97 4f       	sbci	r25, 0xF7	; 247
    35c8:	ba 01       	movw	r22, r20
    35ca:	0e 94 12 02 	call	0x424	; 0x424 <vListInsertEnd>
    35ce:	8a 81       	ldd	r24, Y+2	; 0x02
    35d0:	9b 81       	ldd	r25, Y+3	; 0x03
    35d2:	fc 01       	movw	r30, r24
    35d4:	26 89       	ldd	r18, Z+22	; 0x16
    35d6:	80 91 12 08 	lds	r24, 0x0812	; 0x800812 <__data_end>
    35da:	90 91 13 08 	lds	r25, 0x0813	; 0x800813 <__data_end+0x1>
    35de:	fc 01       	movw	r30, r24
    35e0:	86 89       	ldd	r24, Z+22	; 0x16
    35e2:	82 17       	cp	r24, r18
    35e4:	10 f4       	brcc	.+4      	; 0x35ea <xTaskGenericNotify+0x1a6>
    35e6:	0e 94 2b 05 	call	0xa56	; 0xa56 <vPortYield>
    35ea:	0f 90       	pop	r0
    35ec:	0f be       	out	0x3f, r0	; 63
    35ee:	89 81       	ldd	r24, Y+1	; 0x01
    35f0:	2d 96       	adiw	r28, 0x0d	; 13
    35f2:	0f b6       	in	r0, 0x3f	; 63
    35f4:	f8 94       	cli
    35f6:	de bf       	out	0x3e, r29	; 62
    35f8:	0f be       	out	0x3f, r0	; 63
    35fa:	cd bf       	out	0x3d, r28	; 61
    35fc:	df 91       	pop	r29
    35fe:	cf 91       	pop	r28
    3600:	1f 91       	pop	r17
    3602:	0f 91       	pop	r16
    3604:	08 95       	ret

00003606 <xTaskGenericNotifyFromISR>:
    3606:	ef 92       	push	r14
    3608:	ff 92       	push	r15
    360a:	0f 93       	push	r16
    360c:	1f 93       	push	r17
    360e:	cf 93       	push	r28
    3610:	df 93       	push	r29
    3612:	cd b7       	in	r28, 0x3d	; 61
    3614:	de b7       	in	r29, 0x3e	; 62
    3616:	60 97       	sbiw	r28, 0x10	; 16
    3618:	0f b6       	in	r0, 0x3f	; 63
    361a:	f8 94       	cli
    361c:	de bf       	out	0x3e, r29	; 62
    361e:	0f be       	out	0x3f, r0	; 63
    3620:	cd bf       	out	0x3d, r28	; 61
    3622:	9f 83       	std	Y+7, r25	; 0x07
    3624:	8e 83       	std	Y+6, r24	; 0x06
    3626:	48 87       	std	Y+8, r20	; 0x08
    3628:	59 87       	std	Y+9, r21	; 0x09
    362a:	6a 87       	std	Y+10, r22	; 0x0a
    362c:	7b 87       	std	Y+11, r23	; 0x0b
    362e:	2c 87       	std	Y+12, r18	; 0x0c
    3630:	1e 87       	std	Y+14, r17	; 0x0e
    3632:	0d 87       	std	Y+13, r16	; 0x0d
    3634:	f8 8a       	std	Y+16, r15	; 0x10
    3636:	ef 86       	std	Y+15, r14	; 0x0f
    3638:	81 e0       	ldi	r24, 0x01	; 1
    363a:	89 83       	std	Y+1, r24	; 0x01
    363c:	8e 81       	ldd	r24, Y+6	; 0x06
    363e:	9f 81       	ldd	r25, Y+7	; 0x07
    3640:	9b 83       	std	Y+3, r25	; 0x03
    3642:	8a 83       	std	Y+2, r24	; 0x02
    3644:	1c 82       	std	Y+4, r1	; 0x04
    3646:	8d 85       	ldd	r24, Y+13	; 0x0d
    3648:	9e 85       	ldd	r25, Y+14	; 0x0e
    364a:	89 2b       	or	r24, r25
    364c:	71 f0       	breq	.+28     	; 0x366a <xTaskGenericNotifyFromISR+0x64>
    364e:	8a 81       	ldd	r24, Y+2	; 0x02
    3650:	9b 81       	ldd	r25, Y+3	; 0x03
    3652:	fc 01       	movw	r30, r24
    3654:	87 a1       	ldd	r24, Z+39	; 0x27
    3656:	90 a5       	ldd	r25, Z+40	; 0x28
    3658:	a1 a5       	ldd	r26, Z+41	; 0x29
    365a:	b2 a5       	ldd	r27, Z+42	; 0x2a
    365c:	2d 85       	ldd	r18, Y+13	; 0x0d
    365e:	3e 85       	ldd	r19, Y+14	; 0x0e
    3660:	f9 01       	movw	r30, r18
    3662:	80 83       	st	Z, r24
    3664:	91 83       	std	Z+1, r25	; 0x01
    3666:	a2 83       	std	Z+2, r26	; 0x02
    3668:	b3 83       	std	Z+3, r27	; 0x03
    366a:	8a 81       	ldd	r24, Y+2	; 0x02
    366c:	9b 81       	ldd	r25, Y+3	; 0x03
    366e:	fc 01       	movw	r30, r24
    3670:	83 a5       	ldd	r24, Z+43	; 0x2b
    3672:	8d 83       	std	Y+5, r24	; 0x05
    3674:	8a 81       	ldd	r24, Y+2	; 0x02
    3676:	9b 81       	ldd	r25, Y+3	; 0x03
    3678:	22 e0       	ldi	r18, 0x02	; 2
    367a:	fc 01       	movw	r30, r24
    367c:	23 a7       	std	Z+43, r18	; 0x2b
    367e:	8c 85       	ldd	r24, Y+12	; 0x0c
    3680:	88 2f       	mov	r24, r24
    3682:	90 e0       	ldi	r25, 0x00	; 0
    3684:	82 30       	cpi	r24, 0x02	; 2
    3686:	91 05       	cpc	r25, r1
    3688:	31 f1       	breq	.+76     	; 0x36d6 <xTaskGenericNotifyFromISR+0xd0>
    368a:	83 30       	cpi	r24, 0x03	; 3
    368c:	91 05       	cpc	r25, r1
    368e:	34 f4       	brge	.+12     	; 0x369c <xTaskGenericNotifyFromISR+0x96>
    3690:	00 97       	sbiw	r24, 0x00	; 0
    3692:	09 f4       	brne	.+2      	; 0x3696 <xTaskGenericNotifyFromISR+0x90>
    3694:	4f c0       	rjmp	.+158    	; 0x3734 <xTaskGenericNotifyFromISR+0x12e>
    3696:	01 97       	sbiw	r24, 0x01	; 1
    3698:	39 f0       	breq	.+14     	; 0x36a8 <xTaskGenericNotifyFromISR+0xa2>
    369a:	4d c0       	rjmp	.+154    	; 0x3736 <xTaskGenericNotifyFromISR+0x130>
    369c:	83 30       	cpi	r24, 0x03	; 3
    369e:	91 05       	cpc	r25, r1
    36a0:	61 f1       	breq	.+88     	; 0x36fa <xTaskGenericNotifyFromISR+0xf4>
    36a2:	04 97       	sbiw	r24, 0x04	; 4
    36a4:	b1 f1       	breq	.+108    	; 0x3712 <xTaskGenericNotifyFromISR+0x10c>
    36a6:	47 c0       	rjmp	.+142    	; 0x3736 <xTaskGenericNotifyFromISR+0x130>
    36a8:	8a 81       	ldd	r24, Y+2	; 0x02
    36aa:	9b 81       	ldd	r25, Y+3	; 0x03
    36ac:	fc 01       	movw	r30, r24
    36ae:	27 a1       	ldd	r18, Z+39	; 0x27
    36b0:	30 a5       	ldd	r19, Z+40	; 0x28
    36b2:	41 a5       	ldd	r20, Z+41	; 0x29
    36b4:	52 a5       	ldd	r21, Z+42	; 0x2a
    36b6:	88 85       	ldd	r24, Y+8	; 0x08
    36b8:	99 85       	ldd	r25, Y+9	; 0x09
    36ba:	aa 85       	ldd	r26, Y+10	; 0x0a
    36bc:	bb 85       	ldd	r27, Y+11	; 0x0b
    36be:	82 2b       	or	r24, r18
    36c0:	93 2b       	or	r25, r19
    36c2:	a4 2b       	or	r26, r20
    36c4:	b5 2b       	or	r27, r21
    36c6:	2a 81       	ldd	r18, Y+2	; 0x02
    36c8:	3b 81       	ldd	r19, Y+3	; 0x03
    36ca:	f9 01       	movw	r30, r18
    36cc:	87 a3       	std	Z+39, r24	; 0x27
    36ce:	90 a7       	std	Z+40, r25	; 0x28
    36d0:	a1 a7       	std	Z+41, r26	; 0x29
    36d2:	b2 a7       	std	Z+42, r27	; 0x2a
    36d4:	30 c0       	rjmp	.+96     	; 0x3736 <xTaskGenericNotifyFromISR+0x130>
    36d6:	8a 81       	ldd	r24, Y+2	; 0x02
    36d8:	9b 81       	ldd	r25, Y+3	; 0x03
    36da:	fc 01       	movw	r30, r24
    36dc:	87 a1       	ldd	r24, Z+39	; 0x27
    36de:	90 a5       	ldd	r25, Z+40	; 0x28
    36e0:	a1 a5       	ldd	r26, Z+41	; 0x29
    36e2:	b2 a5       	ldd	r27, Z+42	; 0x2a
    36e4:	01 96       	adiw	r24, 0x01	; 1
    36e6:	a1 1d       	adc	r26, r1
    36e8:	b1 1d       	adc	r27, r1
    36ea:	2a 81       	ldd	r18, Y+2	; 0x02
    36ec:	3b 81       	ldd	r19, Y+3	; 0x03
    36ee:	f9 01       	movw	r30, r18
    36f0:	87 a3       	std	Z+39, r24	; 0x27
    36f2:	90 a7       	std	Z+40, r25	; 0x28
    36f4:	a1 a7       	std	Z+41, r26	; 0x29
    36f6:	b2 a7       	std	Z+42, r27	; 0x2a
    36f8:	1e c0       	rjmp	.+60     	; 0x3736 <xTaskGenericNotifyFromISR+0x130>
    36fa:	2a 81       	ldd	r18, Y+2	; 0x02
    36fc:	3b 81       	ldd	r19, Y+3	; 0x03
    36fe:	88 85       	ldd	r24, Y+8	; 0x08
    3700:	99 85       	ldd	r25, Y+9	; 0x09
    3702:	aa 85       	ldd	r26, Y+10	; 0x0a
    3704:	bb 85       	ldd	r27, Y+11	; 0x0b
    3706:	f9 01       	movw	r30, r18
    3708:	87 a3       	std	Z+39, r24	; 0x27
    370a:	90 a7       	std	Z+40, r25	; 0x28
    370c:	a1 a7       	std	Z+41, r26	; 0x29
    370e:	b2 a7       	std	Z+42, r27	; 0x2a
    3710:	12 c0       	rjmp	.+36     	; 0x3736 <xTaskGenericNotifyFromISR+0x130>
    3712:	8d 81       	ldd	r24, Y+5	; 0x05
    3714:	82 30       	cpi	r24, 0x02	; 2
    3716:	61 f0       	breq	.+24     	; 0x3730 <xTaskGenericNotifyFromISR+0x12a>
    3718:	2a 81       	ldd	r18, Y+2	; 0x02
    371a:	3b 81       	ldd	r19, Y+3	; 0x03
    371c:	88 85       	ldd	r24, Y+8	; 0x08
    371e:	99 85       	ldd	r25, Y+9	; 0x09
    3720:	aa 85       	ldd	r26, Y+10	; 0x0a
    3722:	bb 85       	ldd	r27, Y+11	; 0x0b
    3724:	f9 01       	movw	r30, r18
    3726:	87 a3       	std	Z+39, r24	; 0x27
    3728:	90 a7       	std	Z+40, r25	; 0x28
    372a:	a1 a7       	std	Z+41, r26	; 0x29
    372c:	b2 a7       	std	Z+42, r27	; 0x2a
    372e:	03 c0       	rjmp	.+6      	; 0x3736 <xTaskGenericNotifyFromISR+0x130>
    3730:	19 82       	std	Y+1, r1	; 0x01
    3732:	01 c0       	rjmp	.+2      	; 0x3736 <xTaskGenericNotifyFromISR+0x130>
    3734:	00 00       	nop
    3736:	8d 81       	ldd	r24, Y+5	; 0x05
    3738:	81 30       	cpi	r24, 0x01	; 1
    373a:	09 f0       	breq	.+2      	; 0x373e <xTaskGenericNotifyFromISR+0x138>
    373c:	51 c0       	rjmp	.+162    	; 0x37e0 <xTaskGenericNotifyFromISR+0x1da>
    373e:	80 91 77 08 	lds	r24, 0x0877	; 0x800877 <uxSchedulerSuspended>
    3742:	88 23       	and	r24, r24
    3744:	69 f5       	brne	.+90     	; 0x37a0 <xTaskGenericNotifyFromISR+0x19a>
    3746:	8a 81       	ldd	r24, Y+2	; 0x02
    3748:	9b 81       	ldd	r25, Y+3	; 0x03
    374a:	02 96       	adiw	r24, 0x02	; 2
    374c:	0e 94 d8 02 	call	0x5b0	; 0x5b0 <uxListRemove>
    3750:	8a 81       	ldd	r24, Y+2	; 0x02
    3752:	9b 81       	ldd	r25, Y+3	; 0x03
    3754:	fc 01       	movw	r30, r24
    3756:	96 89       	ldd	r25, Z+22	; 0x16
    3758:	80 91 6d 08 	lds	r24, 0x086D	; 0x80086d <uxTopReadyPriority>
    375c:	89 17       	cp	r24, r25
    375e:	30 f4       	brcc	.+12     	; 0x376c <xTaskGenericNotifyFromISR+0x166>
    3760:	8a 81       	ldd	r24, Y+2	; 0x02
    3762:	9b 81       	ldd	r25, Y+3	; 0x03
    3764:	fc 01       	movw	r30, r24
    3766:	86 89       	ldd	r24, Z+22	; 0x16
    3768:	80 93 6d 08 	sts	0x086D, r24	; 0x80086d <uxTopReadyPriority>
    376c:	8a 81       	ldd	r24, Y+2	; 0x02
    376e:	9b 81       	ldd	r25, Y+3	; 0x03
    3770:	ac 01       	movw	r20, r24
    3772:	4e 5f       	subi	r20, 0xFE	; 254
    3774:	5f 4f       	sbci	r21, 0xFF	; 255
    3776:	8a 81       	ldd	r24, Y+2	; 0x02
    3778:	9b 81       	ldd	r25, Y+3	; 0x03
    377a:	fc 01       	movw	r30, r24
    377c:	86 89       	ldd	r24, Z+22	; 0x16
    377e:	28 2f       	mov	r18, r24
    3780:	30 e0       	ldi	r19, 0x00	; 0
    3782:	c9 01       	movw	r24, r18
    3784:	88 0f       	add	r24, r24
    3786:	99 1f       	adc	r25, r25
    3788:	88 0f       	add	r24, r24
    378a:	99 1f       	adc	r25, r25
    378c:	88 0f       	add	r24, r24
    378e:	99 1f       	adc	r25, r25
    3790:	82 0f       	add	r24, r18
    3792:	93 1f       	adc	r25, r19
    3794:	8c 5e       	subi	r24, 0xEC	; 236
    3796:	97 4f       	sbci	r25, 0xF7	; 247
    3798:	ba 01       	movw	r22, r20
    379a:	0e 94 12 02 	call	0x424	; 0x424 <vListInsertEnd>
    379e:	08 c0       	rjmp	.+16     	; 0x37b0 <xTaskGenericNotifyFromISR+0x1aa>
    37a0:	8a 81       	ldd	r24, Y+2	; 0x02
    37a2:	9b 81       	ldd	r25, Y+3	; 0x03
    37a4:	0c 96       	adiw	r24, 0x0c	; 12
    37a6:	bc 01       	movw	r22, r24
    37a8:	8e e4       	ldi	r24, 0x4E	; 78
    37aa:	98 e0       	ldi	r25, 0x08	; 8
    37ac:	0e 94 12 02 	call	0x424	; 0x424 <vListInsertEnd>
    37b0:	8a 81       	ldd	r24, Y+2	; 0x02
    37b2:	9b 81       	ldd	r25, Y+3	; 0x03
    37b4:	fc 01       	movw	r30, r24
    37b6:	26 89       	ldd	r18, Z+22	; 0x16
    37b8:	80 91 12 08 	lds	r24, 0x0812	; 0x800812 <__data_end>
    37bc:	90 91 13 08 	lds	r25, 0x0813	; 0x800813 <__data_end+0x1>
    37c0:	fc 01       	movw	r30, r24
    37c2:	86 89       	ldd	r24, Z+22	; 0x16
    37c4:	82 17       	cp	r24, r18
    37c6:	60 f4       	brcc	.+24     	; 0x37e0 <xTaskGenericNotifyFromISR+0x1da>
    37c8:	8f 85       	ldd	r24, Y+15	; 0x0f
    37ca:	98 89       	ldd	r25, Y+16	; 0x10
    37cc:	89 2b       	or	r24, r25
    37ce:	29 f0       	breq	.+10     	; 0x37da <xTaskGenericNotifyFromISR+0x1d4>
    37d0:	8f 85       	ldd	r24, Y+15	; 0x0f
    37d2:	98 89       	ldd	r25, Y+16	; 0x10
    37d4:	21 e0       	ldi	r18, 0x01	; 1
    37d6:	fc 01       	movw	r30, r24
    37d8:	20 83       	st	Z, r18
    37da:	81 e0       	ldi	r24, 0x01	; 1
    37dc:	80 93 70 08 	sts	0x0870, r24	; 0x800870 <xYieldPending>
    37e0:	89 81       	ldd	r24, Y+1	; 0x01
    37e2:	60 96       	adiw	r28, 0x10	; 16
    37e4:	0f b6       	in	r0, 0x3f	; 63
    37e6:	f8 94       	cli
    37e8:	de bf       	out	0x3e, r29	; 62
    37ea:	0f be       	out	0x3f, r0	; 63
    37ec:	cd bf       	out	0x3d, r28	; 61
    37ee:	df 91       	pop	r29
    37f0:	cf 91       	pop	r28
    37f2:	1f 91       	pop	r17
    37f4:	0f 91       	pop	r16
    37f6:	ff 90       	pop	r15
    37f8:	ef 90       	pop	r14
    37fa:	08 95       	ret

000037fc <xTaskNotifyStateClear>:
/*-----------------------------------------------------------*/

#if( configUSE_TASK_NOTIFICATIONS == 1 )

    BaseType_t xTaskNotifyStateClear( TaskHandle_t xTask )
    {
    37fc:	cf 93       	push	r28
    37fe:	df 93       	push	r29
    3800:	00 d0       	rcall	.+0      	; 0x3802 <xTaskNotifyStateClear+0x6>
    3802:	1f 92       	push	r1
    3804:	1f 92       	push	r1
    3806:	cd b7       	in	r28, 0x3d	; 61
    3808:	de b7       	in	r29, 0x3e	; 62
    380a:	9d 83       	std	Y+5, r25	; 0x05
    380c:	8c 83       	std	Y+4, r24	; 0x04
    TCB_t *pxTCB;
    BaseType_t xReturn;

        /* If null is passed in here then it is the calling task that is having
        its notification state cleared. */
        pxTCB = prvGetTCBFromHandle( xTask );
    380e:	8c 81       	ldd	r24, Y+4	; 0x04
    3810:	9d 81       	ldd	r25, Y+5	; 0x05
    3812:	89 2b       	or	r24, r25
    3814:	29 f4       	brne	.+10     	; 0x3820 <xTaskNotifyStateClear+0x24>
    3816:	80 91 12 08 	lds	r24, 0x0812	; 0x800812 <__data_end>
    381a:	90 91 13 08 	lds	r25, 0x0813	; 0x800813 <__data_end+0x1>
    381e:	02 c0       	rjmp	.+4      	; 0x3824 <xTaskNotifyStateClear+0x28>
    3820:	8c 81       	ldd	r24, Y+4	; 0x04
    3822:	9d 81       	ldd	r25, Y+5	; 0x05
    3824:	9b 83       	std	Y+3, r25	; 0x03
    3826:	8a 83       	std	Y+2, r24	; 0x02

        taskENTER_CRITICAL();
    3828:	0f b6       	in	r0, 0x3f	; 63
    382a:	f8 94       	cli
    382c:	0f 92       	push	r0
        {
            if( pxTCB->ucNotifyState == taskNOTIFICATION_RECEIVED )
    382e:	8a 81       	ldd	r24, Y+2	; 0x02
    3830:	9b 81       	ldd	r25, Y+3	; 0x03
    3832:	fc 01       	movw	r30, r24
    3834:	83 a5       	ldd	r24, Z+43	; 0x2b
    3836:	82 30       	cpi	r24, 0x02	; 2
    3838:	39 f4       	brne	.+14     	; 0x3848 <xTaskNotifyStateClear+0x4c>
            {
                pxTCB->ucNotifyState = taskNOT_WAITING_NOTIFICATION;
    383a:	8a 81       	ldd	r24, Y+2	; 0x02
    383c:	9b 81       	ldd	r25, Y+3	; 0x03
    383e:	fc 01       	movw	r30, r24
    3840:	13 a6       	std	Z+43, r1	; 0x2b
                xReturn = pdPASS;
    3842:	81 e0       	ldi	r24, 0x01	; 1
    3844:	89 83       	std	Y+1, r24	; 0x01
    3846:	01 c0       	rjmp	.+2      	; 0x384a <xTaskNotifyStateClear+0x4e>
            }
            else
            {
                xReturn = pdFAIL;
    3848:	19 82       	std	Y+1, r1	; 0x01
            }
        }
        taskEXIT_CRITICAL();
    384a:	0f 90       	pop	r0
    384c:	0f be       	out	0x3f, r0	; 63

        return xReturn;
    384e:	89 81       	ldd	r24, Y+1	; 0x01
    }
    3850:	0f 90       	pop	r0
    3852:	0f 90       	pop	r0
    3854:	0f 90       	pop	r0
    3856:	0f 90       	pop	r0
    3858:	0f 90       	pop	r0
    385a:	df 91       	pop	r29
    385c:	cf 91       	pop	r28
    385e:	08 95       	ret

00003860 <prvAddCurrentTaskToDelayedList>:
    }
#endif
/*-----------------------------------------------------------*/

static void prvAddCurrentTaskToDelayedList( TickType_t xTicksToWait, const BaseType_t xCanBlockIndefinitely )
{
    3860:	cf 93       	push	r28
    3862:	df 93       	push	r29
    3864:	cd b7       	in	r28, 0x3d	; 61
    3866:	de b7       	in	r29, 0x3e	; 62
    3868:	27 97       	sbiw	r28, 0x07	; 7
    386a:	0f b6       	in	r0, 0x3f	; 63
    386c:	f8 94       	cli
    386e:	de bf       	out	0x3e, r29	; 62
    3870:	0f be       	out	0x3f, r0	; 63
    3872:	cd bf       	out	0x3d, r28	; 61
    3874:	9e 83       	std	Y+6, r25	; 0x06
    3876:	8d 83       	std	Y+5, r24	; 0x05
    3878:	6f 83       	std	Y+7, r22	; 0x07
TickType_t xTimeToWake;
const TickType_t xConstTickCount = xTickCount;
    387a:	80 91 6b 08 	lds	r24, 0x086B	; 0x80086b <xTickCount>
    387e:	90 91 6c 08 	lds	r25, 0x086C	; 0x80086c <xTickCount+0x1>
    3882:	9a 83       	std	Y+2, r25	; 0x02
    3884:	89 83       	std	Y+1, r24	; 0x01
    }
    #endif

    /* Remove the task from the ready list before adding it to the blocked list
    as the same list item is used for both lists. */
    if( uxListRemove( &( pxCurrentTCB->xStateListItem ) ) == ( UBaseType_t ) 0 )
    3886:	80 91 12 08 	lds	r24, 0x0812	; 0x800812 <__data_end>
    388a:	90 91 13 08 	lds	r25, 0x0813	; 0x800813 <__data_end+0x1>
    388e:	02 96       	adiw	r24, 0x02	; 2
    3890:	0e 94 d8 02 	call	0x5b0	; 0x5b0 <uxListRemove>
        mtCOVERAGE_TEST_MARKER();
    }

    #if ( INCLUDE_vTaskSuspend == 1 )
    {
        if( ( xTicksToWait == portMAX_DELAY ) && ( xCanBlockIndefinitely != pdFALSE ) )
    3894:	8d 81       	ldd	r24, Y+5	; 0x05
    3896:	9e 81       	ldd	r25, Y+6	; 0x06
    3898:	01 96       	adiw	r24, 0x01	; 1
    389a:	71 f4       	brne	.+28     	; 0x38b8 <prvAddCurrentTaskToDelayedList+0x58>
    389c:	8f 81       	ldd	r24, Y+7	; 0x07
    389e:	88 23       	and	r24, r24
    38a0:	59 f0       	breq	.+22     	; 0x38b8 <prvAddCurrentTaskToDelayedList+0x58>
        {
            /* Add the task to the suspended task list instead of a delayed task
            list to ensure it is not woken by a timing event.  It will block
            indefinitely. */
            vListInsertEnd( &xSuspendedTaskList, &( pxCurrentTCB->xStateListItem ) );
    38a2:	80 91 12 08 	lds	r24, 0x0812	; 0x800812 <__data_end>
    38a6:	90 91 13 08 	lds	r25, 0x0813	; 0x800813 <__data_end+0x1>
    38aa:	02 96       	adiw	r24, 0x02	; 2
    38ac:	bc 01       	movw	r22, r24
    38ae:	81 e6       	ldi	r24, 0x61	; 97
    38b0:	98 e0       	ldi	r25, 0x08	; 8
    38b2:	0e 94 12 02 	call	0x424	; 0x424 <vListInsertEnd>

        /* Avoid compiler warning when INCLUDE_vTaskSuspend is not 1. */
        ( void ) xCanBlockIndefinitely;
    }
    #endif /* INCLUDE_vTaskSuspend */
}
    38b6:	44 c0       	rjmp	.+136    	; 0x3940 <prvAddCurrentTaskToDelayedList+0xe0>
        else
        {
            /* Calculate the time at which the task should be woken if the event
            does not occur.  This may overflow but this doesn't matter, the
            kernel will manage it correctly. */
            xTimeToWake = xConstTickCount + xTicksToWait;
    38b8:	29 81       	ldd	r18, Y+1	; 0x01
    38ba:	3a 81       	ldd	r19, Y+2	; 0x02
    38bc:	8d 81       	ldd	r24, Y+5	; 0x05
    38be:	9e 81       	ldd	r25, Y+6	; 0x06
    38c0:	82 0f       	add	r24, r18
    38c2:	93 1f       	adc	r25, r19
    38c4:	9c 83       	std	Y+4, r25	; 0x04
    38c6:	8b 83       	std	Y+3, r24	; 0x03

            /* The list item will be inserted in wake time order. */
            listSET_LIST_ITEM_VALUE( &( pxCurrentTCB->xStateListItem ), xTimeToWake );
    38c8:	80 91 12 08 	lds	r24, 0x0812	; 0x800812 <__data_end>
    38cc:	90 91 13 08 	lds	r25, 0x0813	; 0x800813 <__data_end+0x1>
    38d0:	2b 81       	ldd	r18, Y+3	; 0x03
    38d2:	3c 81       	ldd	r19, Y+4	; 0x04
    38d4:	fc 01       	movw	r30, r24
    38d6:	33 83       	std	Z+3, r19	; 0x03
    38d8:	22 83       	std	Z+2, r18	; 0x02

            if( xTimeToWake < xConstTickCount )
    38da:	2b 81       	ldd	r18, Y+3	; 0x03
    38dc:	3c 81       	ldd	r19, Y+4	; 0x04
    38de:	89 81       	ldd	r24, Y+1	; 0x01
    38e0:	9a 81       	ldd	r25, Y+2	; 0x02
    38e2:	28 17       	cp	r18, r24
    38e4:	39 07       	cpc	r19, r25
    38e6:	78 f4       	brcc	.+30     	; 0x3906 <prvAddCurrentTaskToDelayedList+0xa6>
            {
                /* Wake time has overflowed.  Place this item in the overflow
                list. */
                vListInsert( pxOverflowDelayedTaskList, &( pxCurrentTCB->xStateListItem ) );
    38e8:	80 91 12 08 	lds	r24, 0x0812	; 0x800812 <__data_end>
    38ec:	90 91 13 08 	lds	r25, 0x0813	; 0x800813 <__data_end+0x1>
    38f0:	9c 01       	movw	r18, r24
    38f2:	2e 5f       	subi	r18, 0xFE	; 254
    38f4:	3f 4f       	sbci	r19, 0xFF	; 255
    38f6:	80 91 4c 08 	lds	r24, 0x084C	; 0x80084c <pxOverflowDelayedTaskList>
    38fa:	90 91 4d 08 	lds	r25, 0x084D	; 0x80084d <pxOverflowDelayedTaskList+0x1>
    38fe:	b9 01       	movw	r22, r18
    3900:	0e 94 60 02 	call	0x4c0	; 0x4c0 <vListInsert>

        /* Avoid compiler warning when INCLUDE_vTaskSuspend is not 1. */
        ( void ) xCanBlockIndefinitely;
    }
    #endif /* INCLUDE_vTaskSuspend */
}
    3904:	1d c0       	rjmp	.+58     	; 0x3940 <prvAddCurrentTaskToDelayedList+0xe0>
            }
            else
            {
                /* The wake time has not overflowed, so the current block list
                is used. */
                vListInsert( pxDelayedTaskList, &( pxCurrentTCB->xStateListItem ) );
    3906:	80 91 12 08 	lds	r24, 0x0812	; 0x800812 <__data_end>
    390a:	90 91 13 08 	lds	r25, 0x0813	; 0x800813 <__data_end+0x1>
    390e:	9c 01       	movw	r18, r24
    3910:	2e 5f       	subi	r18, 0xFE	; 254
    3912:	3f 4f       	sbci	r19, 0xFF	; 255
    3914:	80 91 4a 08 	lds	r24, 0x084A	; 0x80084a <pxDelayedTaskList>
    3918:	90 91 4b 08 	lds	r25, 0x084B	; 0x80084b <pxDelayedTaskList+0x1>
    391c:	b9 01       	movw	r22, r18
    391e:	0e 94 60 02 	call	0x4c0	; 0x4c0 <vListInsert>

                /* If the task entering the blocked state was placed at the
                head of the list of blocked tasks then xNextTaskUnblockTime
                needs to be updated too. */
                if( xTimeToWake < xNextTaskUnblockTime )
    3922:	80 91 73 08 	lds	r24, 0x0873	; 0x800873 <xNextTaskUnblockTime>
    3926:	90 91 74 08 	lds	r25, 0x0874	; 0x800874 <xNextTaskUnblockTime+0x1>
    392a:	2b 81       	ldd	r18, Y+3	; 0x03
    392c:	3c 81       	ldd	r19, Y+4	; 0x04
    392e:	28 17       	cp	r18, r24
    3930:	39 07       	cpc	r19, r25
    3932:	30 f4       	brcc	.+12     	; 0x3940 <prvAddCurrentTaskToDelayedList+0xe0>
                {
                    xNextTaskUnblockTime = xTimeToWake;
    3934:	8b 81       	ldd	r24, Y+3	; 0x03
    3936:	9c 81       	ldd	r25, Y+4	; 0x04
    3938:	90 93 74 08 	sts	0x0874, r25	; 0x800874 <xNextTaskUnblockTime+0x1>
    393c:	80 93 73 08 	sts	0x0873, r24	; 0x800873 <xNextTaskUnblockTime>

        /* Avoid compiler warning when INCLUDE_vTaskSuspend is not 1. */
        ( void ) xCanBlockIndefinitely;
    }
    #endif /* INCLUDE_vTaskSuspend */
}
    3940:	00 00       	nop
    3942:	27 96       	adiw	r28, 0x07	; 7
    3944:	0f b6       	in	r0, 0x3f	; 63
    3946:	f8 94       	cli
    3948:	de bf       	out	0x3e, r29	; 62
    394a:	0f be       	out	0x3f, r0	; 63
    394c:	cd bf       	out	0x3d, r28	; 61
    394e:	df 91       	pop	r29
    3950:	cf 91       	pop	r28
    3952:	08 95       	ret

00003954 <xTimerCreateTimerTask>:
    3954:	ef 92       	push	r14
    3956:	ff 92       	push	r15
    3958:	0f 93       	push	r16
    395a:	cf 93       	push	r28
    395c:	df 93       	push	r29
    395e:	1f 92       	push	r1
    3960:	cd b7       	in	r28, 0x3d	; 61
    3962:	de b7       	in	r29, 0x3e	; 62
    3964:	19 82       	std	Y+1, r1	; 0x01
    3966:	40 d4       	rcall	.+2176   	; 0x41e8 <prvCheckForValidListAndQueue>
    3968:	80 91 8e 08 	lds	r24, 0x088E	; 0x80088e <xTimerQueue>
    396c:	90 91 8f 08 	lds	r25, 0x088F	; 0x80088f <xTimerQueue+0x1>
    3970:	89 2b       	or	r24, r25
    3972:	91 f0       	breq	.+36     	; 0x3998 <xTimerCreateTimerTask+0x44>
    3974:	0f 2e       	mov	r0, r31
    3976:	f0 e9       	ldi	r31, 0x90	; 144
    3978:	ef 2e       	mov	r14, r31
    397a:	f8 e0       	ldi	r31, 0x08	; 8
    397c:	ff 2e       	mov	r15, r31
    397e:	f0 2d       	mov	r31, r0
    3980:	03 e0       	ldi	r16, 0x03	; 3
    3982:	20 e0       	ldi	r18, 0x00	; 0
    3984:	30 e0       	ldi	r19, 0x00	; 0
    3986:	45 e5       	ldi	r20, 0x55	; 85
    3988:	50 e0       	ldi	r21, 0x00	; 0
    398a:	66 e2       	ldi	r22, 0x26	; 38
    398c:	72 e0       	ldi	r23, 0x02	; 2
    398e:	8f ed       	ldi	r24, 0xDF	; 223
    3990:	90 e0       	ldi	r25, 0x00	; 0
    3992:	0e 94 df 10 	call	0x21be	; 0x21be <xTaskCreate>
    3996:	89 83       	std	Y+1, r24	; 0x01
    3998:	89 81       	ldd	r24, Y+1	; 0x01
    399a:	0f 90       	pop	r0
    399c:	df 91       	pop	r29
    399e:	cf 91       	pop	r28
    39a0:	0f 91       	pop	r16
    39a2:	ff 90       	pop	r15
    39a4:	ef 90       	pop	r14
    39a6:	08 95       	ret

000039a8 <xTimerCreate>:
    39a8:	ef 92       	push	r14
    39aa:	ff 92       	push	r15
    39ac:	0f 93       	push	r16
    39ae:	1f 93       	push	r17
    39b0:	cf 93       	push	r28
    39b2:	df 93       	push	r29
    39b4:	cd b7       	in	r28, 0x3d	; 61
    39b6:	de b7       	in	r29, 0x3e	; 62
    39b8:	2b 97       	sbiw	r28, 0x0b	; 11
    39ba:	0f b6       	in	r0, 0x3f	; 63
    39bc:	f8 94       	cli
    39be:	de bf       	out	0x3e, r29	; 62
    39c0:	0f be       	out	0x3f, r0	; 63
    39c2:	cd bf       	out	0x3d, r28	; 61
    39c4:	9c 83       	std	Y+4, r25	; 0x04
    39c6:	8b 83       	std	Y+3, r24	; 0x03
    39c8:	7e 83       	std	Y+6, r23	; 0x06
    39ca:	6d 83       	std	Y+5, r22	; 0x05
    39cc:	4f 83       	std	Y+7, r20	; 0x07
    39ce:	39 87       	std	Y+9, r19	; 0x09
    39d0:	28 87       	std	Y+8, r18	; 0x08
    39d2:	1b 87       	std	Y+11, r17	; 0x0b
    39d4:	0a 87       	std	Y+10, r16	; 0x0a
    39d6:	84 e1       	ldi	r24, 0x14	; 20
    39d8:	90 e0       	ldi	r25, 0x00	; 0
    39da:	0e 94 8d 01 	call	0x31a	; 0x31a <pvPortMalloc>
    39de:	9a 83       	std	Y+2, r25	; 0x02
    39e0:	89 83       	std	Y+1, r24	; 0x01
    39e2:	89 81       	ldd	r24, Y+1	; 0x01
    39e4:	9a 81       	ldd	r25, Y+2	; 0x02
    39e6:	89 2b       	or	r24, r25
    39e8:	91 f0       	breq	.+36     	; 0x3a0e <xTimerCreate+0x66>
    39ea:	89 81       	ldd	r24, Y+1	; 0x01
    39ec:	9a 81       	ldd	r25, Y+2	; 0x02
    39ee:	fc 01       	movw	r30, r24
    39f0:	13 8a       	std	Z+19, r1	; 0x13
    39f2:	e9 81       	ldd	r30, Y+1	; 0x01
    39f4:	fa 81       	ldd	r31, Y+2	; 0x02
    39f6:	4a 85       	ldd	r20, Y+10	; 0x0a
    39f8:	5b 85       	ldd	r21, Y+11	; 0x0b
    39fa:	28 85       	ldd	r18, Y+8	; 0x08
    39fc:	39 85       	ldd	r19, Y+9	; 0x09
    39fe:	6d 81       	ldd	r22, Y+5	; 0x05
    3a00:	7e 81       	ldd	r23, Y+6	; 0x06
    3a02:	8b 81       	ldd	r24, Y+3	; 0x03
    3a04:	9c 81       	ldd	r25, Y+4	; 0x04
    3a06:	7f 01       	movw	r14, r30
    3a08:	8a 01       	movw	r16, r20
    3a0a:	4f 81       	ldd	r20, Y+7	; 0x07
    3a0c:	0f d0       	rcall	.+30     	; 0x3a2c <prvInitialiseNewTimer>
    3a0e:	89 81       	ldd	r24, Y+1	; 0x01
    3a10:	9a 81       	ldd	r25, Y+2	; 0x02
    3a12:	2b 96       	adiw	r28, 0x0b	; 11
    3a14:	0f b6       	in	r0, 0x3f	; 63
    3a16:	f8 94       	cli
    3a18:	de bf       	out	0x3e, r29	; 62
    3a1a:	0f be       	out	0x3f, r0	; 63
    3a1c:	cd bf       	out	0x3d, r28	; 61
    3a1e:	df 91       	pop	r29
    3a20:	cf 91       	pop	r28
    3a22:	1f 91       	pop	r17
    3a24:	0f 91       	pop	r16
    3a26:	ff 90       	pop	r15
    3a28:	ef 90       	pop	r14
    3a2a:	08 95       	ret

00003a2c <prvInitialiseNewTimer>:
    3a2c:	ef 92       	push	r14
    3a2e:	ff 92       	push	r15
    3a30:	0f 93       	push	r16
    3a32:	1f 93       	push	r17
    3a34:	cf 93       	push	r28
    3a36:	df 93       	push	r29
    3a38:	cd b7       	in	r28, 0x3d	; 61
    3a3a:	de b7       	in	r29, 0x3e	; 62
    3a3c:	2b 97       	sbiw	r28, 0x0b	; 11
    3a3e:	0f b6       	in	r0, 0x3f	; 63
    3a40:	f8 94       	cli
    3a42:	de bf       	out	0x3e, r29	; 62
    3a44:	0f be       	out	0x3f, r0	; 63
    3a46:	cd bf       	out	0x3d, r28	; 61
    3a48:	9a 83       	std	Y+2, r25	; 0x02
    3a4a:	89 83       	std	Y+1, r24	; 0x01
    3a4c:	7c 83       	std	Y+4, r23	; 0x04
    3a4e:	6b 83       	std	Y+3, r22	; 0x03
    3a50:	4d 83       	std	Y+5, r20	; 0x05
    3a52:	3f 83       	std	Y+7, r19	; 0x07
    3a54:	2e 83       	std	Y+6, r18	; 0x06
    3a56:	19 87       	std	Y+9, r17	; 0x09
    3a58:	08 87       	std	Y+8, r16	; 0x08
    3a5a:	fb 86       	std	Y+11, r15	; 0x0b
    3a5c:	ea 86       	std	Y+10, r14	; 0x0a
    3a5e:	8a 85       	ldd	r24, Y+10	; 0x0a
    3a60:	9b 85       	ldd	r25, Y+11	; 0x0b
    3a62:	89 2b       	or	r24, r25
    3a64:	79 f1       	breq	.+94     	; 0x3ac4 <prvInitialiseNewTimer+0x98>
    3a66:	c0 d3       	rcall	.+1920   	; 0x41e8 <prvCheckForValidListAndQueue>
    3a68:	8a 85       	ldd	r24, Y+10	; 0x0a
    3a6a:	9b 85       	ldd	r25, Y+11	; 0x0b
    3a6c:	29 81       	ldd	r18, Y+1	; 0x01
    3a6e:	3a 81       	ldd	r19, Y+2	; 0x02
    3a70:	fc 01       	movw	r30, r24
    3a72:	31 83       	std	Z+1, r19	; 0x01
    3a74:	20 83       	st	Z, r18
    3a76:	8a 85       	ldd	r24, Y+10	; 0x0a
    3a78:	9b 85       	ldd	r25, Y+11	; 0x0b
    3a7a:	2b 81       	ldd	r18, Y+3	; 0x03
    3a7c:	3c 81       	ldd	r19, Y+4	; 0x04
    3a7e:	fc 01       	movw	r30, r24
    3a80:	35 87       	std	Z+13, r19	; 0x0d
    3a82:	24 87       	std	Z+12, r18	; 0x0c
    3a84:	8a 85       	ldd	r24, Y+10	; 0x0a
    3a86:	9b 85       	ldd	r25, Y+11	; 0x0b
    3a88:	2e 81       	ldd	r18, Y+6	; 0x06
    3a8a:	3f 81       	ldd	r19, Y+7	; 0x07
    3a8c:	fc 01       	movw	r30, r24
    3a8e:	37 87       	std	Z+15, r19	; 0x0f
    3a90:	26 87       	std	Z+14, r18	; 0x0e
    3a92:	8a 85       	ldd	r24, Y+10	; 0x0a
    3a94:	9b 85       	ldd	r25, Y+11	; 0x0b
    3a96:	28 85       	ldd	r18, Y+8	; 0x08
    3a98:	39 85       	ldd	r19, Y+9	; 0x09
    3a9a:	fc 01       	movw	r30, r24
    3a9c:	31 8b       	std	Z+17, r19	; 0x11
    3a9e:	20 8b       	std	Z+16, r18	; 0x10
    3aa0:	8a 85       	ldd	r24, Y+10	; 0x0a
    3aa2:	9b 85       	ldd	r25, Y+11	; 0x0b
    3aa4:	02 96       	adiw	r24, 0x02	; 2
    3aa6:	0e 94 ff 01 	call	0x3fe	; 0x3fe <vListInitialiseItem>
    3aaa:	8d 81       	ldd	r24, Y+5	; 0x05
    3aac:	88 23       	and	r24, r24
    3aae:	51 f0       	breq	.+20     	; 0x3ac4 <prvInitialiseNewTimer+0x98>
    3ab0:	8a 85       	ldd	r24, Y+10	; 0x0a
    3ab2:	9b 85       	ldd	r25, Y+11	; 0x0b
    3ab4:	fc 01       	movw	r30, r24
    3ab6:	83 89       	ldd	r24, Z+19	; 0x13
    3ab8:	28 2f       	mov	r18, r24
    3aba:	24 60       	ori	r18, 0x04	; 4
    3abc:	8a 85       	ldd	r24, Y+10	; 0x0a
    3abe:	9b 85       	ldd	r25, Y+11	; 0x0b
    3ac0:	fc 01       	movw	r30, r24
    3ac2:	23 8b       	std	Z+19, r18	; 0x13
    3ac4:	00 00       	nop
    3ac6:	2b 96       	adiw	r28, 0x0b	; 11
    3ac8:	0f b6       	in	r0, 0x3f	; 63
    3aca:	f8 94       	cli
    3acc:	de bf       	out	0x3e, r29	; 62
    3ace:	0f be       	out	0x3f, r0	; 63
    3ad0:	cd bf       	out	0x3d, r28	; 61
    3ad2:	df 91       	pop	r29
    3ad4:	cf 91       	pop	r28
    3ad6:	1f 91       	pop	r17
    3ad8:	0f 91       	pop	r16
    3ada:	ff 90       	pop	r15
    3adc:	ef 90       	pop	r14
    3ade:	08 95       	ret

00003ae0 <xTimerGenericCommand>:
    3ae0:	0f 93       	push	r16
    3ae2:	1f 93       	push	r17
    3ae4:	cf 93       	push	r28
    3ae6:	df 93       	push	r29
    3ae8:	cd b7       	in	r28, 0x3d	; 61
    3aea:	de b7       	in	r29, 0x3e	; 62
    3aec:	2f 97       	sbiw	r28, 0x0f	; 15
    3aee:	0f b6       	in	r0, 0x3f	; 63
    3af0:	f8 94       	cli
    3af2:	de bf       	out	0x3e, r29	; 62
    3af4:	0f be       	out	0x3f, r0	; 63
    3af6:	cd bf       	out	0x3d, r28	; 61
    3af8:	98 87       	std	Y+8, r25	; 0x08
    3afa:	8f 83       	std	Y+7, r24	; 0x07
    3afc:	69 87       	std	Y+9, r22	; 0x09
    3afe:	5b 87       	std	Y+11, r21	; 0x0b
    3b00:	4a 87       	std	Y+10, r20	; 0x0a
    3b02:	3d 87       	std	Y+13, r19	; 0x0d
    3b04:	2c 87       	std	Y+12, r18	; 0x0c
    3b06:	1f 87       	std	Y+15, r17	; 0x0f
    3b08:	0e 87       	std	Y+14, r16	; 0x0e
    3b0a:	19 82       	std	Y+1, r1	; 0x01
    3b0c:	80 91 8e 08 	lds	r24, 0x088E	; 0x80088e <xTimerQueue>
    3b10:	90 91 8f 08 	lds	r25, 0x088F	; 0x80088f <xTimerQueue+0x1>
    3b14:	89 2b       	or	r24, r25
    3b16:	c9 f1       	breq	.+114    	; 0x3b8a <xTimerGenericCommand+0xaa>
    3b18:	89 85       	ldd	r24, Y+9	; 0x09
    3b1a:	8a 83       	std	Y+2, r24	; 0x02
    3b1c:	8a 85       	ldd	r24, Y+10	; 0x0a
    3b1e:	9b 85       	ldd	r25, Y+11	; 0x0b
    3b20:	9c 83       	std	Y+4, r25	; 0x04
    3b22:	8b 83       	std	Y+3, r24	; 0x03
    3b24:	8f 81       	ldd	r24, Y+7	; 0x07
    3b26:	98 85       	ldd	r25, Y+8	; 0x08
    3b28:	9e 83       	std	Y+6, r25	; 0x06
    3b2a:	8d 83       	std	Y+5, r24	; 0x05
    3b2c:	89 85       	ldd	r24, Y+9	; 0x09
    3b2e:	86 30       	cpi	r24, 0x06	; 6
    3b30:	fc f4       	brge	.+62     	; 0x3b70 <xTimerGenericCommand+0x90>
    3b32:	e7 d9       	rcall	.-3122   	; 0x2f02 <xTaskGetSchedulerState>
    3b34:	82 30       	cpi	r24, 0x02	; 2
    3b36:	71 f4       	brne	.+28     	; 0x3b54 <xTimerGenericCommand+0x74>
    3b38:	80 91 8e 08 	lds	r24, 0x088E	; 0x80088e <xTimerQueue>
    3b3c:	90 91 8f 08 	lds	r25, 0x088F	; 0x80088f <xTimerQueue+0x1>
    3b40:	4e 85       	ldd	r20, Y+14	; 0x0e
    3b42:	5f 85       	ldd	r21, Y+15	; 0x0f
    3b44:	be 01       	movw	r22, r28
    3b46:	6e 5f       	subi	r22, 0xFE	; 254
    3b48:	7f 4f       	sbci	r23, 0xFF	; 255
    3b4a:	20 e0       	ldi	r18, 0x00	; 0
    3b4c:	0e 94 81 07 	call	0xf02	; 0xf02 <xQueueGenericSend>
    3b50:	89 83       	std	Y+1, r24	; 0x01
    3b52:	1b c0       	rjmp	.+54     	; 0x3b8a <xTimerGenericCommand+0xaa>
    3b54:	80 91 8e 08 	lds	r24, 0x088E	; 0x80088e <xTimerQueue>
    3b58:	90 91 8f 08 	lds	r25, 0x088F	; 0x80088f <xTimerQueue+0x1>
    3b5c:	be 01       	movw	r22, r28
    3b5e:	6e 5f       	subi	r22, 0xFE	; 254
    3b60:	7f 4f       	sbci	r23, 0xFF	; 255
    3b62:	20 e0       	ldi	r18, 0x00	; 0
    3b64:	40 e0       	ldi	r20, 0x00	; 0
    3b66:	50 e0       	ldi	r21, 0x00	; 0
    3b68:	0e 94 81 07 	call	0xf02	; 0xf02 <xQueueGenericSend>
    3b6c:	89 83       	std	Y+1, r24	; 0x01
    3b6e:	0d c0       	rjmp	.+26     	; 0x3b8a <xTimerGenericCommand+0xaa>
    3b70:	80 91 8e 08 	lds	r24, 0x088E	; 0x80088e <xTimerQueue>
    3b74:	90 91 8f 08 	lds	r25, 0x088F	; 0x80088f <xTimerQueue+0x1>
    3b78:	4c 85       	ldd	r20, Y+12	; 0x0c
    3b7a:	5d 85       	ldd	r21, Y+13	; 0x0d
    3b7c:	be 01       	movw	r22, r28
    3b7e:	6e 5f       	subi	r22, 0xFE	; 254
    3b80:	7f 4f       	sbci	r23, 0xFF	; 255
    3b82:	20 e0       	ldi	r18, 0x00	; 0
    3b84:	0e 94 2a 08 	call	0x1054	; 0x1054 <xQueueGenericSendFromISR>
    3b88:	89 83       	std	Y+1, r24	; 0x01
    3b8a:	89 81       	ldd	r24, Y+1	; 0x01
    3b8c:	2f 96       	adiw	r28, 0x0f	; 15
    3b8e:	0f b6       	in	r0, 0x3f	; 63
    3b90:	f8 94       	cli
    3b92:	de bf       	out	0x3e, r29	; 62
    3b94:	0f be       	out	0x3f, r0	; 63
    3b96:	cd bf       	out	0x3d, r28	; 61
    3b98:	df 91       	pop	r29
    3b9a:	cf 91       	pop	r28
    3b9c:	1f 91       	pop	r17
    3b9e:	0f 91       	pop	r16
    3ba0:	08 95       	ret

00003ba2 <prvProcessExpiredTimer>:
/*-----------------------------------------------------------*/

static void prvProcessExpiredTimer( const TickType_t xNextExpireTime, const TickType_t xTimeNow )
{
    3ba2:	0f 93       	push	r16
    3ba4:	1f 93       	push	r17
    3ba6:	cf 93       	push	r28
    3ba8:	df 93       	push	r29
    3baa:	cd b7       	in	r28, 0x3d	; 61
    3bac:	de b7       	in	r29, 0x3e	; 62
    3bae:	27 97       	sbiw	r28, 0x07	; 7
    3bb0:	0f b6       	in	r0, 0x3f	; 63
    3bb2:	f8 94       	cli
    3bb4:	de bf       	out	0x3e, r29	; 62
    3bb6:	0f be       	out	0x3f, r0	; 63
    3bb8:	cd bf       	out	0x3d, r28	; 61
    3bba:	9d 83       	std	Y+5, r25	; 0x05
    3bbc:	8c 83       	std	Y+4, r24	; 0x04
    3bbe:	7f 83       	std	Y+7, r23	; 0x07
    3bc0:	6e 83       	std	Y+6, r22	; 0x06
BaseType_t xResult;
Timer_t * const pxTimer = ( Timer_t * ) listGET_OWNER_OF_HEAD_ENTRY( pxCurrentTimerList ); /*lint !e9087 !e9079 void * is used as this macro is used with tasks and co-routines too.  Alignment is known to be fine as the type of the pointer stored and retrieved is the same. */
    3bc2:	80 91 8a 08 	lds	r24, 0x088A	; 0x80088a <pxCurrentTimerList>
    3bc6:	90 91 8b 08 	lds	r25, 0x088B	; 0x80088b <pxCurrentTimerList+0x1>
    3bca:	fc 01       	movw	r30, r24
    3bcc:	85 81       	ldd	r24, Z+5	; 0x05
    3bce:	96 81       	ldd	r25, Z+6	; 0x06
    3bd0:	fc 01       	movw	r30, r24
    3bd2:	86 81       	ldd	r24, Z+6	; 0x06
    3bd4:	97 81       	ldd	r25, Z+7	; 0x07
    3bd6:	9a 83       	std	Y+2, r25	; 0x02
    3bd8:	89 83       	std	Y+1, r24	; 0x01

    /* Remove the timer from the list of active timers.  A check has already
    been performed to ensure the list is not empty. */
    ( void ) uxListRemove( &( pxTimer->xTimerListItem ) );
    3bda:	89 81       	ldd	r24, Y+1	; 0x01
    3bdc:	9a 81       	ldd	r25, Y+2	; 0x02
    3bde:	02 96       	adiw	r24, 0x02	; 2
    3be0:	0e 94 d8 02 	call	0x5b0	; 0x5b0 <uxListRemove>
    traceTIMER_EXPIRED( pxTimer );

    /* If the timer is an auto reload timer then calculate the next
    expiry time and re-insert the timer in the list of active timers. */
    if( ( pxTimer->ucStatus & tmrSTATUS_IS_AUTORELOAD ) != 0 )
    3be4:	89 81       	ldd	r24, Y+1	; 0x01
    3be6:	9a 81       	ldd	r25, Y+2	; 0x02
    3be8:	fc 01       	movw	r30, r24
    3bea:	83 89       	ldd	r24, Z+19	; 0x13
    3bec:	88 2f       	mov	r24, r24
    3bee:	90 e0       	ldi	r25, 0x00	; 0
    3bf0:	84 70       	andi	r24, 0x04	; 4
    3bf2:	99 27       	eor	r25, r25
    3bf4:	89 2b       	or	r24, r25
    3bf6:	f9 f0       	breq	.+62     	; 0x3c36 <prvProcessExpiredTimer+0x94>
    {
        /* The timer is inserted into a list using a time relative to anything
        other than the current time.  It will therefore be inserted into the
        correct list relative to the time this task thinks it is now. */
        if( prvInsertTimerInActiveList( pxTimer, ( xNextExpireTime + pxTimer->xTimerPeriodInTicks ), xTimeNow, xNextExpireTime ) != pdFALSE )
    3bf8:	89 81       	ldd	r24, Y+1	; 0x01
    3bfa:	9a 81       	ldd	r25, Y+2	; 0x02
    3bfc:	fc 01       	movw	r30, r24
    3bfe:	24 85       	ldd	r18, Z+12	; 0x0c
    3c00:	35 85       	ldd	r19, Z+13	; 0x0d
    3c02:	8c 81       	ldd	r24, Y+4	; 0x04
    3c04:	9d 81       	ldd	r25, Y+5	; 0x05
    3c06:	b9 01       	movw	r22, r18
    3c08:	68 0f       	add	r22, r24
    3c0a:	79 1f       	adc	r23, r25
    3c0c:	2c 81       	ldd	r18, Y+4	; 0x04
    3c0e:	3d 81       	ldd	r19, Y+5	; 0x05
    3c10:	4e 81       	ldd	r20, Y+6	; 0x06
    3c12:	5f 81       	ldd	r21, Y+7	; 0x07
    3c14:	89 81       	ldd	r24, Y+1	; 0x01
    3c16:	9a 81       	ldd	r25, Y+2	; 0x02
    3c18:	e6 d0       	rcall	.+460    	; 0x3de6 <prvInsertTimerInActiveList>
    3c1a:	88 23       	and	r24, r24
    3c1c:	b1 f0       	breq	.+44     	; 0x3c4a <prvProcessExpiredTimer+0xa8>
        {
            /* The timer expired before it was added to the active timer
            list.  Reload it now.  */
            xResult = xTimerGenericCommand( pxTimer, tmrCOMMAND_START_DONT_TRACE, xNextExpireTime, NULL, tmrNO_DELAY );
    3c1e:	4c 81       	ldd	r20, Y+4	; 0x04
    3c20:	5d 81       	ldd	r21, Y+5	; 0x05
    3c22:	89 81       	ldd	r24, Y+1	; 0x01
    3c24:	9a 81       	ldd	r25, Y+2	; 0x02
    3c26:	00 e0       	ldi	r16, 0x00	; 0
    3c28:	10 e0       	ldi	r17, 0x00	; 0
    3c2a:	20 e0       	ldi	r18, 0x00	; 0
    3c2c:	30 e0       	ldi	r19, 0x00	; 0
    3c2e:	60 e0       	ldi	r22, 0x00	; 0
    3c30:	57 df       	rcall	.-338    	; 0x3ae0 <xTimerGenericCommand>
    3c32:	8b 83       	std	Y+3, r24	; 0x03
    3c34:	0a c0       	rjmp	.+20     	; 0x3c4a <prvProcessExpiredTimer+0xa8>
            mtCOVERAGE_TEST_MARKER();
        }
    }
    else
    {
        pxTimer->ucStatus &= ~tmrSTATUS_IS_ACTIVE;
    3c36:	89 81       	ldd	r24, Y+1	; 0x01
    3c38:	9a 81       	ldd	r25, Y+2	; 0x02
    3c3a:	fc 01       	movw	r30, r24
    3c3c:	83 89       	ldd	r24, Z+19	; 0x13
    3c3e:	28 2f       	mov	r18, r24
    3c40:	2e 7f       	andi	r18, 0xFE	; 254
    3c42:	89 81       	ldd	r24, Y+1	; 0x01
    3c44:	9a 81       	ldd	r25, Y+2	; 0x02
    3c46:	fc 01       	movw	r30, r24
    3c48:	23 8b       	std	Z+19, r18	; 0x13
        mtCOVERAGE_TEST_MARKER();
    }

    /* Call the timer callback. */
    pxTimer->pxCallbackFunction( ( TimerHandle_t ) pxTimer );
    3c4a:	89 81       	ldd	r24, Y+1	; 0x01
    3c4c:	9a 81       	ldd	r25, Y+2	; 0x02
    3c4e:	fc 01       	movw	r30, r24
    3c50:	20 89       	ldd	r18, Z+16	; 0x10
    3c52:	31 89       	ldd	r19, Z+17	; 0x11
    3c54:	89 81       	ldd	r24, Y+1	; 0x01
    3c56:	9a 81       	ldd	r25, Y+2	; 0x02
    3c58:	f9 01       	movw	r30, r18
    3c5a:	19 95       	eicall
}
    3c5c:	00 00       	nop
    3c5e:	27 96       	adiw	r28, 0x07	; 7
    3c60:	0f b6       	in	r0, 0x3f	; 63
    3c62:	f8 94       	cli
    3c64:	de bf       	out	0x3e, r29	; 62
    3c66:	0f be       	out	0x3f, r0	; 63
    3c68:	cd bf       	out	0x3d, r28	; 61
    3c6a:	df 91       	pop	r29
    3c6c:	cf 91       	pop	r28
    3c6e:	1f 91       	pop	r17
    3c70:	0f 91       	pop	r16
    3c72:	08 95       	ret

00003c74 <prvProcessTimerOrBlockTask>:
    }
}
/*-----------------------------------------------------------*/

static void prvProcessTimerOrBlockTask( const TickType_t xNextExpireTime, BaseType_t xListWasEmpty )
{
    3c74:	cf 93       	push	r28
    3c76:	df 93       	push	r29
    3c78:	00 d0       	rcall	.+0      	; 0x3c7a <prvProcessTimerOrBlockTask+0x6>
    3c7a:	00 d0       	rcall	.+0      	; 0x3c7c <prvProcessTimerOrBlockTask+0x8>
    3c7c:	cd b7       	in	r28, 0x3d	; 61
    3c7e:	de b7       	in	r29, 0x3e	; 62
    3c80:	9d 83       	std	Y+5, r25	; 0x05
    3c82:	8c 83       	std	Y+4, r24	; 0x04
    3c84:	6e 83       	std	Y+6, r22	; 0x06
TickType_t xTimeNow;
BaseType_t xTimerListsWereSwitched;

    vTaskSuspendAll();
    3c86:	0e 94 13 13 	call	0x2626	; 0x2626 <vTaskSuspendAll>
        /* Obtain the time now to make an assessment as to whether the timer
        has expired or not.  If obtaining the time causes the lists to switch
        then don't process this timer as any timers that remained in the list
        when the lists were switched will have been processed within the
        prvSampleTimeNow() function. */
        xTimeNow = prvSampleTimeNow( &xTimerListsWereSwitched );
    3c8a:	ce 01       	movw	r24, r28
    3c8c:	03 96       	adiw	r24, 0x03	; 3
    3c8e:	7c d0       	rcall	.+248    	; 0x3d88 <prvSampleTimeNow>
    3c90:	9a 83       	std	Y+2, r25	; 0x02
    3c92:	89 83       	std	Y+1, r24	; 0x01
        if( xTimerListsWereSwitched == pdFALSE )
    3c94:	8b 81       	ldd	r24, Y+3	; 0x03
    3c96:	88 23       	and	r24, r24
    3c98:	b1 f5       	brne	.+108    	; 0x3d06 <prvProcessTimerOrBlockTask+0x92>
        {
            /* The tick count has not overflowed, has the timer expired? */
            if( ( xListWasEmpty == pdFALSE ) && ( xNextExpireTime <= xTimeNow ) )
    3c9a:	8e 81       	ldd	r24, Y+6	; 0x06
    3c9c:	88 23       	and	r24, r24
    3c9e:	81 f4       	brne	.+32     	; 0x3cc0 <prvProcessTimerOrBlockTask+0x4c>
    3ca0:	2c 81       	ldd	r18, Y+4	; 0x04
    3ca2:	3d 81       	ldd	r19, Y+5	; 0x05
    3ca4:	89 81       	ldd	r24, Y+1	; 0x01
    3ca6:	9a 81       	ldd	r25, Y+2	; 0x02
    3ca8:	82 17       	cp	r24, r18
    3caa:	93 07       	cpc	r25, r19
    3cac:	48 f0       	brcs	.+18     	; 0x3cc0 <prvProcessTimerOrBlockTask+0x4c>
            {
                ( void ) xTaskResumeAll();
    3cae:	0e 94 20 13 	call	0x2640	; 0x2640 <xTaskResumeAll>
                prvProcessExpiredTimer( xNextExpireTime, xTimeNow );
    3cb2:	29 81       	ldd	r18, Y+1	; 0x01
    3cb4:	3a 81       	ldd	r19, Y+2	; 0x02
    3cb6:	8c 81       	ldd	r24, Y+4	; 0x04
    3cb8:	9d 81       	ldd	r25, Y+5	; 0x05
    3cba:	b9 01       	movw	r22, r18
    3cbc:	72 df       	rcall	.-284    	; 0x3ba2 <prvProcessExpiredTimer>
        else
        {
            ( void ) xTaskResumeAll();
        }
    }
}
    3cbe:	25 c0       	rjmp	.+74     	; 0x3d0a <prvProcessTimerOrBlockTask+0x96>
                time has not been reached yet.  This task should therefore
                block to wait for the next expire time or a command to be
                received - whichever comes first.  The following line cannot
                be reached unless xNextExpireTime > xTimeNow, except in the
                case when the current timer list is empty. */
                if( xListWasEmpty != pdFALSE )
    3cc0:	8e 81       	ldd	r24, Y+6	; 0x06
    3cc2:	88 23       	and	r24, r24
    3cc4:	59 f0       	breq	.+22     	; 0x3cdc <prvProcessTimerOrBlockTask+0x68>
                {
                    /* The current timer list is empty - is the overflow list
                    also empty? */
                    xListWasEmpty = listLIST_IS_EMPTY( pxOverflowTimerList );
    3cc6:	80 91 8c 08 	lds	r24, 0x088C	; 0x80088c <pxOverflowTimerList>
    3cca:	90 91 8d 08 	lds	r25, 0x088D	; 0x80088d <pxOverflowTimerList+0x1>
    3cce:	fc 01       	movw	r30, r24
    3cd0:	90 81       	ld	r25, Z
    3cd2:	81 e0       	ldi	r24, 0x01	; 1
    3cd4:	99 23       	and	r25, r25
    3cd6:	09 f0       	breq	.+2      	; 0x3cda <prvProcessTimerOrBlockTask+0x66>
    3cd8:	80 e0       	ldi	r24, 0x00	; 0
    3cda:	8e 83       	std	Y+6, r24	; 0x06
                }

                vQueueWaitForMessageRestricted( xTimerQueue, ( xNextExpireTime - xTimeNow ), xListWasEmpty );
    3cdc:	2c 81       	ldd	r18, Y+4	; 0x04
    3cde:	3d 81       	ldd	r19, Y+5	; 0x05
    3ce0:	89 81       	ldd	r24, Y+1	; 0x01
    3ce2:	9a 81       	ldd	r25, Y+2	; 0x02
    3ce4:	28 1b       	sub	r18, r24
    3ce6:	39 0b       	sbc	r19, r25
    3ce8:	80 91 8e 08 	lds	r24, 0x088E	; 0x80088e <xTimerQueue>
    3cec:	90 91 8f 08 	lds	r25, 0x088F	; 0x80088f <xTimerQueue+0x1>
    3cf0:	4e 81       	ldd	r20, Y+6	; 0x06
    3cf2:	b9 01       	movw	r22, r18
    3cf4:	0e 94 ea 0b 	call	0x17d4	; 0x17d4 <vQueueWaitForMessageRestricted>

                if( xTaskResumeAll() == pdFALSE )
    3cf8:	0e 94 20 13 	call	0x2640	; 0x2640 <xTaskResumeAll>
    3cfc:	88 23       	and	r24, r24
    3cfe:	29 f4       	brne	.+10     	; 0x3d0a <prvProcessTimerOrBlockTask+0x96>
                {
                    /* Yield to wait for either a command to arrive, or the
                    block time to expire.  If a command arrived between the
                    critical section being exited and this yield then the yield
                    will not cause the task to block. */
                    portYIELD_WITHIN_API();
    3d00:	0e 94 2b 05 	call	0xa56	; 0xa56 <vPortYield>
        else
        {
            ( void ) xTaskResumeAll();
        }
    }
}
    3d04:	02 c0       	rjmp	.+4      	; 0x3d0a <prvProcessTimerOrBlockTask+0x96>
                }
            }
        }
        else
        {
            ( void ) xTaskResumeAll();
    3d06:	0e 94 20 13 	call	0x2640	; 0x2640 <xTaskResumeAll>
        }
    }
}
    3d0a:	00 00       	nop
    3d0c:	26 96       	adiw	r28, 0x06	; 6
    3d0e:	0f b6       	in	r0, 0x3f	; 63
    3d10:	f8 94       	cli
    3d12:	de bf       	out	0x3e, r29	; 62
    3d14:	0f be       	out	0x3f, r0	; 63
    3d16:	cd bf       	out	0x3d, r28	; 61
    3d18:	df 91       	pop	r29
    3d1a:	cf 91       	pop	r28
    3d1c:	08 95       	ret

00003d1e <prvGetNextExpireTime>:
/*-----------------------------------------------------------*/

static TickType_t prvGetNextExpireTime( BaseType_t * const pxListWasEmpty )
{
    3d1e:	cf 93       	push	r28
    3d20:	df 93       	push	r29
    3d22:	00 d0       	rcall	.+0      	; 0x3d24 <prvGetNextExpireTime+0x6>
    3d24:	1f 92       	push	r1
    3d26:	cd b7       	in	r28, 0x3d	; 61
    3d28:	de b7       	in	r29, 0x3e	; 62
    3d2a:	9c 83       	std	Y+4, r25	; 0x04
    3d2c:	8b 83       	std	Y+3, r24	; 0x03
    the timer with the nearest expiry time will expire.  If there are no
    active timers then just set the next expire time to 0.  That will cause
    this task to unblock when the tick count overflows, at which point the
    timer lists will be switched and the next expiry time can be
    re-assessed.  */
    *pxListWasEmpty = listLIST_IS_EMPTY( pxCurrentTimerList );
    3d2e:	80 91 8a 08 	lds	r24, 0x088A	; 0x80088a <pxCurrentTimerList>
    3d32:	90 91 8b 08 	lds	r25, 0x088B	; 0x80088b <pxCurrentTimerList+0x1>
    3d36:	fc 01       	movw	r30, r24
    3d38:	90 81       	ld	r25, Z
    3d3a:	81 e0       	ldi	r24, 0x01	; 1
    3d3c:	99 23       	and	r25, r25
    3d3e:	09 f0       	breq	.+2      	; 0x3d42 <prvGetNextExpireTime+0x24>
    3d40:	80 e0       	ldi	r24, 0x00	; 0
    3d42:	28 2f       	mov	r18, r24
    3d44:	8b 81       	ldd	r24, Y+3	; 0x03
    3d46:	9c 81       	ldd	r25, Y+4	; 0x04
    3d48:	fc 01       	movw	r30, r24
    3d4a:	20 83       	st	Z, r18
    if( *pxListWasEmpty == pdFALSE )
    3d4c:	8b 81       	ldd	r24, Y+3	; 0x03
    3d4e:	9c 81       	ldd	r25, Y+4	; 0x04
    3d50:	fc 01       	movw	r30, r24
    3d52:	80 81       	ld	r24, Z
    3d54:	88 23       	and	r24, r24
    3d56:	69 f4       	brne	.+26     	; 0x3d72 <prvGetNextExpireTime+0x54>
    {
        xNextExpireTime = listGET_ITEM_VALUE_OF_HEAD_ENTRY( pxCurrentTimerList );
    3d58:	80 91 8a 08 	lds	r24, 0x088A	; 0x80088a <pxCurrentTimerList>
    3d5c:	90 91 8b 08 	lds	r25, 0x088B	; 0x80088b <pxCurrentTimerList+0x1>
    3d60:	fc 01       	movw	r30, r24
    3d62:	85 81       	ldd	r24, Z+5	; 0x05
    3d64:	96 81       	ldd	r25, Z+6	; 0x06
    3d66:	fc 01       	movw	r30, r24
    3d68:	80 81       	ld	r24, Z
    3d6a:	91 81       	ldd	r25, Z+1	; 0x01
    3d6c:	9a 83       	std	Y+2, r25	; 0x02
    3d6e:	89 83       	std	Y+1, r24	; 0x01
    3d70:	02 c0       	rjmp	.+4      	; 0x3d76 <prvGetNextExpireTime+0x58>
    }
    else
    {
        /* Ensure the task unblocks when the tick count rolls over. */
        xNextExpireTime = ( TickType_t ) 0U;
    3d72:	1a 82       	std	Y+2, r1	; 0x02
    3d74:	19 82       	std	Y+1, r1	; 0x01
    }

    return xNextExpireTime;
    3d76:	89 81       	ldd	r24, Y+1	; 0x01
    3d78:	9a 81       	ldd	r25, Y+2	; 0x02
}
    3d7a:	0f 90       	pop	r0
    3d7c:	0f 90       	pop	r0
    3d7e:	0f 90       	pop	r0
    3d80:	0f 90       	pop	r0
    3d82:	df 91       	pop	r29
    3d84:	cf 91       	pop	r28
    3d86:	08 95       	ret

00003d88 <prvSampleTimeNow>:
/*-----------------------------------------------------------*/

static TickType_t prvSampleTimeNow( BaseType_t * const pxTimerListsWereSwitched )
{
    3d88:	cf 93       	push	r28
    3d8a:	df 93       	push	r29
    3d8c:	00 d0       	rcall	.+0      	; 0x3d8e <prvSampleTimeNow+0x6>
    3d8e:	1f 92       	push	r1
    3d90:	cd b7       	in	r28, 0x3d	; 61
    3d92:	de b7       	in	r29, 0x3e	; 62
    3d94:	9c 83       	std	Y+4, r25	; 0x04
    3d96:	8b 83       	std	Y+3, r24	; 0x03
TickType_t xTimeNow;
PRIVILEGED_DATA static TickType_t xLastTime = ( TickType_t ) 0U; /*lint !e956 Variable is only accessible to one task. */

    xTimeNow = xTaskGetTickCount();
    3d98:	0e 94 b5 13 	call	0x276a	; 0x276a <xTaskGetTickCount>
    3d9c:	9a 83       	std	Y+2, r25	; 0x02
    3d9e:	89 83       	std	Y+1, r24	; 0x01

    if( xTimeNow < xLastTime )
    3da0:	80 91 92 08 	lds	r24, 0x0892	; 0x800892 <xLastTime.2432>
    3da4:	90 91 93 08 	lds	r25, 0x0893	; 0x800893 <xLastTime.2432+0x1>
    3da8:	29 81       	ldd	r18, Y+1	; 0x01
    3daa:	3a 81       	ldd	r19, Y+2	; 0x02
    3dac:	28 17       	cp	r18, r24
    3dae:	39 07       	cpc	r19, r25
    3db0:	38 f4       	brcc	.+14     	; 0x3dc0 <prvSampleTimeNow+0x38>
    {
        prvSwitchTimerLists();
    3db2:	7c d1       	rcall	.+760    	; 0x40ac <prvSwitchTimerLists>
        *pxTimerListsWereSwitched = pdTRUE;
    3db4:	8b 81       	ldd	r24, Y+3	; 0x03
    3db6:	9c 81       	ldd	r25, Y+4	; 0x04
    3db8:	21 e0       	ldi	r18, 0x01	; 1
    3dba:	fc 01       	movw	r30, r24
    3dbc:	20 83       	st	Z, r18
    3dbe:	04 c0       	rjmp	.+8      	; 0x3dc8 <prvSampleTimeNow+0x40>
    }
    else
    {
        *pxTimerListsWereSwitched = pdFALSE;
    3dc0:	8b 81       	ldd	r24, Y+3	; 0x03
    3dc2:	9c 81       	ldd	r25, Y+4	; 0x04
    3dc4:	fc 01       	movw	r30, r24
    3dc6:	10 82       	st	Z, r1
    }

    xLastTime = xTimeNow;
    3dc8:	89 81       	ldd	r24, Y+1	; 0x01
    3dca:	9a 81       	ldd	r25, Y+2	; 0x02
    3dcc:	90 93 93 08 	sts	0x0893, r25	; 0x800893 <xLastTime.2432+0x1>
    3dd0:	80 93 92 08 	sts	0x0892, r24	; 0x800892 <xLastTime.2432>

    return xTimeNow;
    3dd4:	89 81       	ldd	r24, Y+1	; 0x01
    3dd6:	9a 81       	ldd	r25, Y+2	; 0x02
}
    3dd8:	0f 90       	pop	r0
    3dda:	0f 90       	pop	r0
    3ddc:	0f 90       	pop	r0
    3dde:	0f 90       	pop	r0
    3de0:	df 91       	pop	r29
    3de2:	cf 91       	pop	r28
    3de4:	08 95       	ret

00003de6 <prvInsertTimerInActiveList>:
/*-----------------------------------------------------------*/

static BaseType_t prvInsertTimerInActiveList( Timer_t * const pxTimer, const TickType_t xNextExpiryTime, const TickType_t xTimeNow, const TickType_t xCommandTime )
{
    3de6:	cf 93       	push	r28
    3de8:	df 93       	push	r29
    3dea:	cd b7       	in	r28, 0x3d	; 61
    3dec:	de b7       	in	r29, 0x3e	; 62
    3dee:	29 97       	sbiw	r28, 0x09	; 9
    3df0:	0f b6       	in	r0, 0x3f	; 63
    3df2:	f8 94       	cli
    3df4:	de bf       	out	0x3e, r29	; 62
    3df6:	0f be       	out	0x3f, r0	; 63
    3df8:	cd bf       	out	0x3d, r28	; 61
    3dfa:	9b 83       	std	Y+3, r25	; 0x03
    3dfc:	8a 83       	std	Y+2, r24	; 0x02
    3dfe:	7d 83       	std	Y+5, r23	; 0x05
    3e00:	6c 83       	std	Y+4, r22	; 0x04
    3e02:	5f 83       	std	Y+7, r21	; 0x07
    3e04:	4e 83       	std	Y+6, r20	; 0x06
    3e06:	39 87       	std	Y+9, r19	; 0x09
    3e08:	28 87       	std	Y+8, r18	; 0x08
BaseType_t xProcessTimerNow = pdFALSE;
    3e0a:	19 82       	std	Y+1, r1	; 0x01

    listSET_LIST_ITEM_VALUE( &( pxTimer->xTimerListItem ), xNextExpiryTime );
    3e0c:	8a 81       	ldd	r24, Y+2	; 0x02
    3e0e:	9b 81       	ldd	r25, Y+3	; 0x03
    3e10:	2c 81       	ldd	r18, Y+4	; 0x04
    3e12:	3d 81       	ldd	r19, Y+5	; 0x05
    3e14:	fc 01       	movw	r30, r24
    3e16:	33 83       	std	Z+3, r19	; 0x03
    3e18:	22 83       	std	Z+2, r18	; 0x02
    listSET_LIST_ITEM_OWNER( &( pxTimer->xTimerListItem ), pxTimer );
    3e1a:	8a 81       	ldd	r24, Y+2	; 0x02
    3e1c:	9b 81       	ldd	r25, Y+3	; 0x03
    3e1e:	2a 81       	ldd	r18, Y+2	; 0x02
    3e20:	3b 81       	ldd	r19, Y+3	; 0x03
    3e22:	fc 01       	movw	r30, r24
    3e24:	31 87       	std	Z+9, r19	; 0x09
    3e26:	20 87       	std	Z+8, r18	; 0x08

    if( xNextExpiryTime <= xTimeNow )
    3e28:	2c 81       	ldd	r18, Y+4	; 0x04
    3e2a:	3d 81       	ldd	r19, Y+5	; 0x05
    3e2c:	8e 81       	ldd	r24, Y+6	; 0x06
    3e2e:	9f 81       	ldd	r25, Y+7	; 0x07
    3e30:	82 17       	cp	r24, r18
    3e32:	93 07       	cpc	r25, r19
    3e34:	f0 f0       	brcs	.+60     	; 0x3e72 <prvInsertTimerInActiveList+0x8c>
    {
        /* Has the expiry time elapsed between the command to start/reset a
        timer was issued, and the time the command was processed? */
        if( ( ( TickType_t ) ( xTimeNow - xCommandTime ) ) >= pxTimer->xTimerPeriodInTicks ) /*lint !e961 MISRA exception as the casts are only redundant for some ports. */
    3e36:	2e 81       	ldd	r18, Y+6	; 0x06
    3e38:	3f 81       	ldd	r19, Y+7	; 0x07
    3e3a:	88 85       	ldd	r24, Y+8	; 0x08
    3e3c:	99 85       	ldd	r25, Y+9	; 0x09
    3e3e:	28 1b       	sub	r18, r24
    3e40:	39 0b       	sbc	r19, r25
    3e42:	8a 81       	ldd	r24, Y+2	; 0x02
    3e44:	9b 81       	ldd	r25, Y+3	; 0x03
    3e46:	fc 01       	movw	r30, r24
    3e48:	84 85       	ldd	r24, Z+12	; 0x0c
    3e4a:	95 85       	ldd	r25, Z+13	; 0x0d
    3e4c:	28 17       	cp	r18, r24
    3e4e:	39 07       	cpc	r19, r25
    3e50:	18 f0       	brcs	.+6      	; 0x3e58 <prvInsertTimerInActiveList+0x72>
        {
            /* The time between a command being issued and the command being
            processed actually exceeds the timers period.  */
            xProcessTimerNow = pdTRUE;
    3e52:	81 e0       	ldi	r24, 0x01	; 1
    3e54:	89 83       	std	Y+1, r24	; 0x01
    3e56:	2a c0       	rjmp	.+84     	; 0x3eac <prvInsertTimerInActiveList+0xc6>
        }
        else
        {
            vListInsert( pxOverflowTimerList, &( pxTimer->xTimerListItem ) );
    3e58:	8a 81       	ldd	r24, Y+2	; 0x02
    3e5a:	9b 81       	ldd	r25, Y+3	; 0x03
    3e5c:	9c 01       	movw	r18, r24
    3e5e:	2e 5f       	subi	r18, 0xFE	; 254
    3e60:	3f 4f       	sbci	r19, 0xFF	; 255
    3e62:	80 91 8c 08 	lds	r24, 0x088C	; 0x80088c <pxOverflowTimerList>
    3e66:	90 91 8d 08 	lds	r25, 0x088D	; 0x80088d <pxOverflowTimerList+0x1>
    3e6a:	b9 01       	movw	r22, r18
    3e6c:	0e 94 60 02 	call	0x4c0	; 0x4c0 <vListInsert>
    3e70:	1d c0       	rjmp	.+58     	; 0x3eac <prvInsertTimerInActiveList+0xc6>
        }
    }
    else
    {
        if( ( xTimeNow < xCommandTime ) && ( xNextExpiryTime >= xCommandTime ) )
    3e72:	2e 81       	ldd	r18, Y+6	; 0x06
    3e74:	3f 81       	ldd	r19, Y+7	; 0x07
    3e76:	88 85       	ldd	r24, Y+8	; 0x08
    3e78:	99 85       	ldd	r25, Y+9	; 0x09
    3e7a:	28 17       	cp	r18, r24
    3e7c:	39 07       	cpc	r19, r25
    3e7e:	50 f4       	brcc	.+20     	; 0x3e94 <prvInsertTimerInActiveList+0xae>
    3e80:	2c 81       	ldd	r18, Y+4	; 0x04
    3e82:	3d 81       	ldd	r19, Y+5	; 0x05
    3e84:	88 85       	ldd	r24, Y+8	; 0x08
    3e86:	99 85       	ldd	r25, Y+9	; 0x09
    3e88:	28 17       	cp	r18, r24
    3e8a:	39 07       	cpc	r19, r25
    3e8c:	18 f0       	brcs	.+6      	; 0x3e94 <prvInsertTimerInActiveList+0xae>
        {
            /* If, since the command was issued, the tick count has overflowed
            but the expiry time has not, then the timer must have already passed
            its expiry time and should be processed immediately. */
            xProcessTimerNow = pdTRUE;
    3e8e:	81 e0       	ldi	r24, 0x01	; 1
    3e90:	89 83       	std	Y+1, r24	; 0x01
    3e92:	0c c0       	rjmp	.+24     	; 0x3eac <prvInsertTimerInActiveList+0xc6>
        }
        else
        {
            vListInsert( pxCurrentTimerList, &( pxTimer->xTimerListItem ) );
    3e94:	8a 81       	ldd	r24, Y+2	; 0x02
    3e96:	9b 81       	ldd	r25, Y+3	; 0x03
    3e98:	9c 01       	movw	r18, r24
    3e9a:	2e 5f       	subi	r18, 0xFE	; 254
    3e9c:	3f 4f       	sbci	r19, 0xFF	; 255
    3e9e:	80 91 8a 08 	lds	r24, 0x088A	; 0x80088a <pxCurrentTimerList>
    3ea2:	90 91 8b 08 	lds	r25, 0x088B	; 0x80088b <pxCurrentTimerList+0x1>
    3ea6:	b9 01       	movw	r22, r18
    3ea8:	0e 94 60 02 	call	0x4c0	; 0x4c0 <vListInsert>
        }
    }

    return xProcessTimerNow;
    3eac:	89 81       	ldd	r24, Y+1	; 0x01
}
    3eae:	29 96       	adiw	r28, 0x09	; 9
    3eb0:	0f b6       	in	r0, 0x3f	; 63
    3eb2:	f8 94       	cli
    3eb4:	de bf       	out	0x3e, r29	; 62
    3eb6:	0f be       	out	0x3f, r0	; 63
    3eb8:	cd bf       	out	0x3d, r28	; 61
    3eba:	df 91       	pop	r29
    3ebc:	cf 91       	pop	r28
    3ebe:	08 95       	ret

00003ec0 <prvProcessReceivedCommands>:
/*-----------------------------------------------------------*/

static void    prvProcessReceivedCommands( void )
{
    3ec0:	0f 93       	push	r16
    3ec2:	1f 93       	push	r17
    3ec4:	cf 93       	push	r28
    3ec6:	df 93       	push	r29
    3ec8:	cd b7       	in	r28, 0x3d	; 61
    3eca:	de b7       	in	r29, 0x3e	; 62
    3ecc:	2b 97       	sbiw	r28, 0x0b	; 11
    3ece:	0f b6       	in	r0, 0x3f	; 63
    3ed0:	f8 94       	cli
    3ed2:	de bf       	out	0x3e, r29	; 62
    3ed4:	0f be       	out	0x3f, r0	; 63
    3ed6:	cd bf       	out	0x3d, r28	; 61
DaemonTaskMessage_t xMessage;
Timer_t *pxTimer;
BaseType_t xTimerListsWereSwitched, xResult;
TickType_t xTimeNow;

    while( xQueueReceive( xTimerQueue, &xMessage, tmrNO_DELAY ) != pdFAIL ) /*lint !e603 xMessage does not have to be initialised as it is passed out, not in, and it is not used unless xQueueReceive() returns pdTRUE. */
    3ed8:	ce c0       	rjmp	.+412    	; 0x4076 <prvProcessReceivedCommands+0x1b6>
        }
        #endif /* INCLUDE_xTimerPendFunctionCall */

        /* Commands that are positive are timer commands rather than pended
        function calls. */
        if( xMessage.xMessageID >= ( BaseType_t ) 0 )
    3eda:	8e 81       	ldd	r24, Y+6	; 0x06
    3edc:	88 23       	and	r24, r24
    3ede:	0c f4       	brge	.+2      	; 0x3ee2 <prvProcessReceivedCommands+0x22>
    3ee0:	ca c0       	rjmp	.+404    	; 0x4076 <prvProcessReceivedCommands+0x1b6>
        {
            /* The messages uses the xTimerParameters member to work on a
            software timer. */
            pxTimer = xMessage.u.xTimerParameters.pxTimer;
    3ee2:	89 85       	ldd	r24, Y+9	; 0x09
    3ee4:	9a 85       	ldd	r25, Y+10	; 0x0a
    3ee6:	9a 83       	std	Y+2, r25	; 0x02
    3ee8:	89 83       	std	Y+1, r24	; 0x01

        if( listIS_CONTAINED_WITHIN( NULL, &( pxTimer->xTimerListItem ) ) == pdFALSE ) /*lint !e961. The cast is only redundant when NULL is passed into the macro. */
    3eea:	89 81       	ldd	r24, Y+1	; 0x01
    3eec:	9a 81       	ldd	r25, Y+2	; 0x02
    3eee:	dc 01       	movw	r26, r24
    3ef0:	1a 96       	adiw	r26, 0x0a	; 10
    3ef2:	8d 91       	ld	r24, X+
    3ef4:	9c 91       	ld	r25, X
    3ef6:	1b 97       	sbiw	r26, 0x0b	; 11
    3ef8:	89 2b       	or	r24, r25
    3efa:	29 f0       	breq	.+10     	; 0x3f06 <prvProcessReceivedCommands+0x46>
            {
                /* The timer is in a list, remove it. */
                ( void ) uxListRemove( &( pxTimer->xTimerListItem ) );
    3efc:	89 81       	ldd	r24, Y+1	; 0x01
    3efe:	9a 81       	ldd	r25, Y+2	; 0x02
    3f00:	02 96       	adiw	r24, 0x02	; 2
    3f02:	0e 94 d8 02 	call	0x5b0	; 0x5b0 <uxListRemove>
            it must be present in the function call.  prvSampleTimeNow() must be
            called after the message is received from xTimerQueue so there is no
            possibility of a higher priority task adding a message to the message
            queue with a time that is ahead of the timer daemon task (because it
            pre-empted the timer daemon task after the xTimeNow value was set). */
            xTimeNow = prvSampleTimeNow( &xTimerListsWereSwitched );
    3f06:	ce 01       	movw	r24, r28
    3f08:	0b 96       	adiw	r24, 0x0b	; 11
    3f0a:	3e df       	rcall	.-388    	; 0x3d88 <prvSampleTimeNow>
    3f0c:	9c 83       	std	Y+4, r25	; 0x04
    3f0e:	8b 83       	std	Y+3, r24	; 0x03

            switch( xMessage.xMessageID )
    3f10:	8e 81       	ldd	r24, Y+6	; 0x06
    3f12:	08 2e       	mov	r0, r24
    3f14:	00 0c       	add	r0, r0
    3f16:	99 0b       	sbc	r25, r25
    3f18:	09 2e       	mov	r0, r25
    3f1a:	00 0c       	add	r0, r0
    3f1c:	aa 0b       	sbc	r26, r26
    3f1e:	bb 0b       	sbc	r27, r27
    3f20:	40 e0       	ldi	r20, 0x00	; 0
    3f22:	50 e0       	ldi	r21, 0x00	; 0
    3f24:	29 e0       	ldi	r18, 0x09	; 9
    3f26:	30 e0       	ldi	r19, 0x00	; 0
    3f28:	84 1b       	sub	r24, r20
    3f2a:	95 0b       	sbc	r25, r21
    3f2c:	28 17       	cp	r18, r24
    3f2e:	39 07       	cpc	r19, r25
    3f30:	08 f4       	brcc	.+2      	; 0x3f34 <prvProcessReceivedCommands+0x74>
    3f32:	a0 c0       	rjmp	.+320    	; 0x4074 <prvProcessReceivedCommands+0x1b4>
    3f34:	fc 01       	movw	r30, r24
    3f36:	88 27       	eor	r24, r24
    3f38:	ee 58       	subi	r30, 0x8E	; 142
    3f3a:	ff 4f       	sbci	r31, 0xFF	; 255
    3f3c:	8f 4f       	sbci	r24, 0xFF	; 255
    3f3e:	0c 94 5b 33 	jmp	0x66b6	; 0x66b6 <__tablejump2__>
                case tmrCOMMAND_START_FROM_ISR :
                case tmrCOMMAND_RESET :
                case tmrCOMMAND_RESET_FROM_ISR :
                case tmrCOMMAND_START_DONT_TRACE :
                    /* Start or restart a timer. */
                    pxTimer->ucStatus |= tmrSTATUS_IS_ACTIVE;
    3f42:	89 81       	ldd	r24, Y+1	; 0x01
    3f44:	9a 81       	ldd	r25, Y+2	; 0x02
    3f46:	fc 01       	movw	r30, r24
    3f48:	83 89       	ldd	r24, Z+19	; 0x13
    3f4a:	28 2f       	mov	r18, r24
    3f4c:	21 60       	ori	r18, 0x01	; 1
    3f4e:	89 81       	ldd	r24, Y+1	; 0x01
    3f50:	9a 81       	ldd	r25, Y+2	; 0x02
    3f52:	dc 01       	movw	r26, r24
    3f54:	53 96       	adiw	r26, 0x13	; 19
    3f56:	2c 93       	st	X, r18
                    if( prvInsertTimerInActiveList( pxTimer,  xMessage.u.xTimerParameters.xMessageValue + pxTimer->xTimerPeriodInTicks, xTimeNow, xMessage.u.xTimerParameters.xMessageValue ) != pdFALSE )
    3f58:	ef 81       	ldd	r30, Y+7	; 0x07
    3f5a:	f8 85       	ldd	r31, Y+8	; 0x08
    3f5c:	2f 81       	ldd	r18, Y+7	; 0x07
    3f5e:	38 85       	ldd	r19, Y+8	; 0x08
    3f60:	89 81       	ldd	r24, Y+1	; 0x01
    3f62:	9a 81       	ldd	r25, Y+2	; 0x02
    3f64:	dc 01       	movw	r26, r24
    3f66:	1c 96       	adiw	r26, 0x0c	; 12
    3f68:	8d 91       	ld	r24, X+
    3f6a:	9c 91       	ld	r25, X
    3f6c:	1d 97       	sbiw	r26, 0x0d	; 13
    3f6e:	b9 01       	movw	r22, r18
    3f70:	68 0f       	add	r22, r24
    3f72:	79 1f       	adc	r23, r25
    3f74:	4b 81       	ldd	r20, Y+3	; 0x03
    3f76:	5c 81       	ldd	r21, Y+4	; 0x04
    3f78:	89 81       	ldd	r24, Y+1	; 0x01
    3f7a:	9a 81       	ldd	r25, Y+2	; 0x02
    3f7c:	9f 01       	movw	r18, r30
    3f7e:	33 df       	rcall	.-410    	; 0x3de6 <prvInsertTimerInActiveList>
    3f80:	88 23       	and	r24, r24
    3f82:	09 f4       	brne	.+2      	; 0x3f86 <prvProcessReceivedCommands+0xc6>
    3f84:	78 c0       	rjmp	.+240    	; 0x4076 <prvProcessReceivedCommands+0x1b6>
                    {
                        /* The timer expired before it was added to the active
                        timer list.  Process it now. */
                        pxTimer->pxCallbackFunction( ( TimerHandle_t ) pxTimer );
    3f86:	89 81       	ldd	r24, Y+1	; 0x01
    3f88:	9a 81       	ldd	r25, Y+2	; 0x02
    3f8a:	fc 01       	movw	r30, r24
    3f8c:	20 89       	ldd	r18, Z+16	; 0x10
    3f8e:	31 89       	ldd	r19, Z+17	; 0x11
    3f90:	89 81       	ldd	r24, Y+1	; 0x01
    3f92:	9a 81       	ldd	r25, Y+2	; 0x02
    3f94:	f9 01       	movw	r30, r18
    3f96:	19 95       	eicall
                        traceTIMER_EXPIRED( pxTimer );

                        if( ( pxTimer->ucStatus & tmrSTATUS_IS_AUTORELOAD ) != 0 )
    3f98:	89 81       	ldd	r24, Y+1	; 0x01
    3f9a:	9a 81       	ldd	r25, Y+2	; 0x02
    3f9c:	dc 01       	movw	r26, r24
    3f9e:	53 96       	adiw	r26, 0x13	; 19
    3fa0:	8c 91       	ld	r24, X
    3fa2:	88 2f       	mov	r24, r24
    3fa4:	90 e0       	ldi	r25, 0x00	; 0
    3fa6:	84 70       	andi	r24, 0x04	; 4
    3fa8:	99 27       	eor	r25, r25
    3faa:	89 2b       	or	r24, r25
    3fac:	09 f4       	brne	.+2      	; 0x3fb0 <prvProcessReceivedCommands+0xf0>
    3fae:	63 c0       	rjmp	.+198    	; 0x4076 <prvProcessReceivedCommands+0x1b6>
                        {
                            xResult = xTimerGenericCommand( pxTimer, tmrCOMMAND_START_DONT_TRACE, xMessage.u.xTimerParameters.xMessageValue + pxTimer->xTimerPeriodInTicks, NULL, tmrNO_DELAY );
    3fb0:	2f 81       	ldd	r18, Y+7	; 0x07
    3fb2:	38 85       	ldd	r19, Y+8	; 0x08
    3fb4:	89 81       	ldd	r24, Y+1	; 0x01
    3fb6:	9a 81       	ldd	r25, Y+2	; 0x02
    3fb8:	fc 01       	movw	r30, r24
    3fba:	84 85       	ldd	r24, Z+12	; 0x0c
    3fbc:	95 85       	ldd	r25, Z+13	; 0x0d
    3fbe:	a9 01       	movw	r20, r18
    3fc0:	48 0f       	add	r20, r24
    3fc2:	59 1f       	adc	r21, r25
    3fc4:	89 81       	ldd	r24, Y+1	; 0x01
    3fc6:	9a 81       	ldd	r25, Y+2	; 0x02
    3fc8:	00 e0       	ldi	r16, 0x00	; 0
    3fca:	10 e0       	ldi	r17, 0x00	; 0
    3fcc:	20 e0       	ldi	r18, 0x00	; 0
    3fce:	30 e0       	ldi	r19, 0x00	; 0
    3fd0:	60 e0       	ldi	r22, 0x00	; 0
    3fd2:	86 dd       	rcall	.-1268   	; 0x3ae0 <xTimerGenericCommand>
    3fd4:	8d 83       	std	Y+5, r24	; 0x05
                    }
                    else
                    {
                        mtCOVERAGE_TEST_MARKER();
                    }
                    break;
    3fd6:	4f c0       	rjmp	.+158    	; 0x4076 <prvProcessReceivedCommands+0x1b6>

                case tmrCOMMAND_STOP :
                case tmrCOMMAND_STOP_FROM_ISR :
                    /* The timer has already been removed from the active list. */
                    pxTimer->ucStatus &= ~tmrSTATUS_IS_ACTIVE;
    3fd8:	89 81       	ldd	r24, Y+1	; 0x01
    3fda:	9a 81       	ldd	r25, Y+2	; 0x02
    3fdc:	dc 01       	movw	r26, r24
    3fde:	53 96       	adiw	r26, 0x13	; 19
    3fe0:	8c 91       	ld	r24, X
    3fe2:	28 2f       	mov	r18, r24
    3fe4:	2e 7f       	andi	r18, 0xFE	; 254
    3fe6:	89 81       	ldd	r24, Y+1	; 0x01
    3fe8:	9a 81       	ldd	r25, Y+2	; 0x02
    3fea:	fc 01       	movw	r30, r24
    3fec:	23 8b       	std	Z+19, r18	; 0x13
                    break;
    3fee:	43 c0       	rjmp	.+134    	; 0x4076 <prvProcessReceivedCommands+0x1b6>

                case tmrCOMMAND_CHANGE_PERIOD :
                case tmrCOMMAND_CHANGE_PERIOD_FROM_ISR :
                    pxTimer->ucStatus |= tmrSTATUS_IS_ACTIVE;
    3ff0:	89 81       	ldd	r24, Y+1	; 0x01
    3ff2:	9a 81       	ldd	r25, Y+2	; 0x02
    3ff4:	dc 01       	movw	r26, r24
    3ff6:	53 96       	adiw	r26, 0x13	; 19
    3ff8:	8c 91       	ld	r24, X
    3ffa:	28 2f       	mov	r18, r24
    3ffc:	21 60       	ori	r18, 0x01	; 1
    3ffe:	89 81       	ldd	r24, Y+1	; 0x01
    4000:	9a 81       	ldd	r25, Y+2	; 0x02
    4002:	fc 01       	movw	r30, r24
    4004:	23 8b       	std	Z+19, r18	; 0x13
                    pxTimer->xTimerPeriodInTicks = xMessage.u.xTimerParameters.xMessageValue;
    4006:	2f 81       	ldd	r18, Y+7	; 0x07
    4008:	38 85       	ldd	r19, Y+8	; 0x08
    400a:	89 81       	ldd	r24, Y+1	; 0x01
    400c:	9a 81       	ldd	r25, Y+2	; 0x02
    400e:	dc 01       	movw	r26, r24
    4010:	1d 96       	adiw	r26, 0x0d	; 13
    4012:	3c 93       	st	X, r19
    4014:	2e 93       	st	-X, r18
    4016:	1c 97       	sbiw	r26, 0x0c	; 12
                    be longer or shorter than the old one.  The command time is
                    therefore set to the current time, and as the period cannot
                    be zero the next expiry time can only be in the future,
                    meaning (unlike for the xTimerStart() case above) there is
                    no fail case that needs to be handled here. */
                    ( void ) prvInsertTimerInActiveList( pxTimer, ( xTimeNow + pxTimer->xTimerPeriodInTicks ), xTimeNow, xTimeNow );
    4018:	89 81       	ldd	r24, Y+1	; 0x01
    401a:	9a 81       	ldd	r25, Y+2	; 0x02
    401c:	fc 01       	movw	r30, r24
    401e:	24 85       	ldd	r18, Z+12	; 0x0c
    4020:	35 85       	ldd	r19, Z+13	; 0x0d
    4022:	8b 81       	ldd	r24, Y+3	; 0x03
    4024:	9c 81       	ldd	r25, Y+4	; 0x04
    4026:	b9 01       	movw	r22, r18
    4028:	68 0f       	add	r22, r24
    402a:	79 1f       	adc	r23, r25
    402c:	2b 81       	ldd	r18, Y+3	; 0x03
    402e:	3c 81       	ldd	r19, Y+4	; 0x04
    4030:	4b 81       	ldd	r20, Y+3	; 0x03
    4032:	5c 81       	ldd	r21, Y+4	; 0x04
    4034:	89 81       	ldd	r24, Y+1	; 0x01
    4036:	9a 81       	ldd	r25, Y+2	; 0x02
    4038:	d6 de       	rcall	.-596    	; 0x3de6 <prvInsertTimerInActiveList>
                    break;
    403a:	1d c0       	rjmp	.+58     	; 0x4076 <prvProcessReceivedCommands+0x1b6>
                    #if ( configSUPPORT_DYNAMIC_ALLOCATION == 1 )
                    {
                    /* The timer has already been removed from the active list,
                    just free up the memory if the memory was dynamically
                    allocated. */
                        if( ( pxTimer->ucStatus & tmrSTATUS_IS_STATICALLY_ALLOCATED ) == ( uint8_t ) 0 )
    403c:	89 81       	ldd	r24, Y+1	; 0x01
    403e:	9a 81       	ldd	r25, Y+2	; 0x02
    4040:	dc 01       	movw	r26, r24
    4042:	53 96       	adiw	r26, 0x13	; 19
    4044:	8c 91       	ld	r24, X
    4046:	88 2f       	mov	r24, r24
    4048:	90 e0       	ldi	r25, 0x00	; 0
    404a:	82 70       	andi	r24, 0x02	; 2
    404c:	99 27       	eor	r25, r25
    404e:	89 2b       	or	r24, r25
    4050:	29 f4       	brne	.+10     	; 0x405c <prvProcessReceivedCommands+0x19c>
                        {
                            vPortFree( pxTimer );
    4052:	89 81       	ldd	r24, Y+1	; 0x01
    4054:	9a 81       	ldd	r25, Y+2	; 0x02
    4056:	0e 94 ae 01 	call	0x35c	; 0x35c <vPortFree>
    405a:	0d c0       	rjmp	.+26     	; 0x4076 <prvProcessReceivedCommands+0x1b6>
                        }
                        else
                        {
                            pxTimer->ucStatus &= ~tmrSTATUS_IS_ACTIVE;
    405c:	89 81       	ldd	r24, Y+1	; 0x01
    405e:	9a 81       	ldd	r25, Y+2	; 0x02
    4060:	fc 01       	movw	r30, r24
    4062:	83 89       	ldd	r24, Z+19	; 0x13
    4064:	28 2f       	mov	r18, r24
    4066:	2e 7f       	andi	r18, 0xFE	; 254
    4068:	89 81       	ldd	r24, Y+1	; 0x01
    406a:	9a 81       	ldd	r25, Y+2	; 0x02
    406c:	dc 01       	movw	r26, r24
    406e:	53 96       	adiw	r26, 0x13	; 19
    4070:	2c 93       	st	X, r18
                        no need to free the memory - just mark the timer as
                        "not active". */
                        pxTimer->ucStatus &= ~tmrSTATUS_IS_ACTIVE;
                    }
                    #endif /* configSUPPORT_DYNAMIC_ALLOCATION */
                    break;
    4072:	01 c0       	rjmp	.+2      	; 0x4076 <prvProcessReceivedCommands+0x1b6>

                default    :
                    /* Don't expect to get here. */
                    break;
    4074:	00 00       	nop
DaemonTaskMessage_t xMessage;
Timer_t *pxTimer;
BaseType_t xTimerListsWereSwitched, xResult;
TickType_t xTimeNow;

    while( xQueueReceive( xTimerQueue, &xMessage, tmrNO_DELAY ) != pdFAIL ) /*lint !e603 xMessage does not have to be initialised as it is passed out, not in, and it is not used unless xQueueReceive() returns pdTRUE. */
    4076:	80 91 8e 08 	lds	r24, 0x088E	; 0x80088e <xTimerQueue>
    407a:	90 91 8f 08 	lds	r25, 0x088F	; 0x80088f <xTimerQueue+0x1>
    407e:	9e 01       	movw	r18, r28
    4080:	2a 5f       	subi	r18, 0xFA	; 250
    4082:	3f 4f       	sbci	r19, 0xFF	; 255
    4084:	40 e0       	ldi	r20, 0x00	; 0
    4086:	50 e0       	ldi	r21, 0x00	; 0
    4088:	b9 01       	movw	r22, r18
    408a:	0e 94 88 08 	call	0x1110	; 0x1110 <xQueueReceive>
    408e:	88 23       	and	r24, r24
    4090:	09 f0       	breq	.+2      	; 0x4094 <prvProcessReceivedCommands+0x1d4>
    4092:	23 cf       	rjmp	.-442    	; 0x3eda <prvProcessReceivedCommands+0x1a>
                    /* Don't expect to get here. */
                    break;
            }
        }
    }
}
    4094:	00 00       	nop
    4096:	2b 96       	adiw	r28, 0x0b	; 11
    4098:	0f b6       	in	r0, 0x3f	; 63
    409a:	f8 94       	cli
    409c:	de bf       	out	0x3e, r29	; 62
    409e:	0f be       	out	0x3f, r0	; 63
    40a0:	cd bf       	out	0x3d, r28	; 61
    40a2:	df 91       	pop	r29
    40a4:	cf 91       	pop	r28
    40a6:	1f 91       	pop	r17
    40a8:	0f 91       	pop	r16
    40aa:	08 95       	ret

000040ac <prvSwitchTimerLists>:
/*-----------------------------------------------------------*/

static void prvSwitchTimerLists( void )
{
    40ac:	0f 93       	push	r16
    40ae:	1f 93       	push	r17
    40b0:	cf 93       	push	r28
    40b2:	df 93       	push	r29
    40b4:	cd b7       	in	r28, 0x3d	; 61
    40b6:	de b7       	in	r29, 0x3e	; 62
    40b8:	29 97       	sbiw	r28, 0x09	; 9
    40ba:	0f b6       	in	r0, 0x3f	; 63
    40bc:	f8 94       	cli
    40be:	de bf       	out	0x3e, r29	; 62
    40c0:	0f be       	out	0x3f, r0	; 63
    40c2:	cd bf       	out	0x3d, r28	; 61

    /* The tick count has overflowed.  The timer lists must be switched.
    If there are any timers still referenced from the current timer list
    then they must have expired and should be processed before the lists
    are switched. */
    while( listLIST_IS_EMPTY( pxCurrentTimerList ) == pdFALSE )
    40c4:	68 c0       	rjmp	.+208    	; 0x4196 <prvSwitchTimerLists+0xea>
    {
        xNextExpireTime = listGET_ITEM_VALUE_OF_HEAD_ENTRY( pxCurrentTimerList );
    40c6:	80 91 8a 08 	lds	r24, 0x088A	; 0x80088a <pxCurrentTimerList>
    40ca:	90 91 8b 08 	lds	r25, 0x088B	; 0x80088b <pxCurrentTimerList+0x1>
    40ce:	fc 01       	movw	r30, r24
    40d0:	85 81       	ldd	r24, Z+5	; 0x05
    40d2:	96 81       	ldd	r25, Z+6	; 0x06
    40d4:	fc 01       	movw	r30, r24
    40d6:	80 81       	ld	r24, Z
    40d8:	91 81       	ldd	r25, Z+1	; 0x01
    40da:	9a 83       	std	Y+2, r25	; 0x02
    40dc:	89 83       	std	Y+1, r24	; 0x01

        /* Remove the timer from the list. */
        pxTimer = ( Timer_t * ) listGET_OWNER_OF_HEAD_ENTRY( pxCurrentTimerList ); /*lint !e9087 !e9079 void * is used as this macro is used with tasks and co-routines too.  Alignment is known to be fine as the type of the pointer stored and retrieved is the same. */
    40de:	80 91 8a 08 	lds	r24, 0x088A	; 0x80088a <pxCurrentTimerList>
    40e2:	90 91 8b 08 	lds	r25, 0x088B	; 0x80088b <pxCurrentTimerList+0x1>
    40e6:	fc 01       	movw	r30, r24
    40e8:	85 81       	ldd	r24, Z+5	; 0x05
    40ea:	96 81       	ldd	r25, Z+6	; 0x06
    40ec:	fc 01       	movw	r30, r24
    40ee:	86 81       	ldd	r24, Z+6	; 0x06
    40f0:	97 81       	ldd	r25, Z+7	; 0x07
    40f2:	9c 83       	std	Y+4, r25	; 0x04
    40f4:	8b 83       	std	Y+3, r24	; 0x03
        ( void ) uxListRemove( &( pxTimer->xTimerListItem ) );
    40f6:	8b 81       	ldd	r24, Y+3	; 0x03
    40f8:	9c 81       	ldd	r25, Y+4	; 0x04
    40fa:	02 96       	adiw	r24, 0x02	; 2
    40fc:	0e 94 d8 02 	call	0x5b0	; 0x5b0 <uxListRemove>
        traceTIMER_EXPIRED( pxTimer );

        /* Execute its callback, then send a command to restart the timer if
        it is an auto-reload timer.  It cannot be restarted here as the lists
        have not yet been switched. */
        pxTimer->pxCallbackFunction( ( TimerHandle_t ) pxTimer );
    4100:	8b 81       	ldd	r24, Y+3	; 0x03
    4102:	9c 81       	ldd	r25, Y+4	; 0x04
    4104:	fc 01       	movw	r30, r24
    4106:	20 89       	ldd	r18, Z+16	; 0x10
    4108:	31 89       	ldd	r19, Z+17	; 0x11
    410a:	8b 81       	ldd	r24, Y+3	; 0x03
    410c:	9c 81       	ldd	r25, Y+4	; 0x04
    410e:	f9 01       	movw	r30, r18
    4110:	19 95       	eicall

        if( ( pxTimer->ucStatus & tmrSTATUS_IS_AUTORELOAD ) != 0 )
    4112:	8b 81       	ldd	r24, Y+3	; 0x03
    4114:	9c 81       	ldd	r25, Y+4	; 0x04
    4116:	fc 01       	movw	r30, r24
    4118:	83 89       	ldd	r24, Z+19	; 0x13
    411a:	88 2f       	mov	r24, r24
    411c:	90 e0       	ldi	r25, 0x00	; 0
    411e:	84 70       	andi	r24, 0x04	; 4
    4120:	99 27       	eor	r25, r25
    4122:	89 2b       	or	r24, r25
    4124:	c1 f1       	breq	.+112    	; 0x4196 <prvSwitchTimerLists+0xea>
            the timer going into the same timer list then it has already expired
            and the timer should be re-inserted into the current list so it is
            processed again within this loop.  Otherwise a command should be sent
            to restart the timer to ensure it is only inserted into a list after
            the lists have been swapped. */
            xReloadTime = ( xNextExpireTime + pxTimer->xTimerPeriodInTicks );
    4126:	8b 81       	ldd	r24, Y+3	; 0x03
    4128:	9c 81       	ldd	r25, Y+4	; 0x04
    412a:	fc 01       	movw	r30, r24
    412c:	24 85       	ldd	r18, Z+12	; 0x0c
    412e:	35 85       	ldd	r19, Z+13	; 0x0d
    4130:	89 81       	ldd	r24, Y+1	; 0x01
    4132:	9a 81       	ldd	r25, Y+2	; 0x02
    4134:	82 0f       	add	r24, r18
    4136:	93 1f       	adc	r25, r19
    4138:	9e 83       	std	Y+6, r25	; 0x06
    413a:	8d 83       	std	Y+5, r24	; 0x05
            if( xReloadTime > xNextExpireTime )
    413c:	2d 81       	ldd	r18, Y+5	; 0x05
    413e:	3e 81       	ldd	r19, Y+6	; 0x06
    4140:	89 81       	ldd	r24, Y+1	; 0x01
    4142:	9a 81       	ldd	r25, Y+2	; 0x02
    4144:	82 17       	cp	r24, r18
    4146:	93 07       	cpc	r25, r19
    4148:	d8 f4       	brcc	.+54     	; 0x4180 <prvSwitchTimerLists+0xd4>
            {
                listSET_LIST_ITEM_VALUE( &( pxTimer->xTimerListItem ), xReloadTime );
    414a:	8b 81       	ldd	r24, Y+3	; 0x03
    414c:	9c 81       	ldd	r25, Y+4	; 0x04
    414e:	2d 81       	ldd	r18, Y+5	; 0x05
    4150:	3e 81       	ldd	r19, Y+6	; 0x06
    4152:	fc 01       	movw	r30, r24
    4154:	33 83       	std	Z+3, r19	; 0x03
    4156:	22 83       	std	Z+2, r18	; 0x02
                listSET_LIST_ITEM_OWNER( &( pxTimer->xTimerListItem ), pxTimer );
    4158:	8b 81       	ldd	r24, Y+3	; 0x03
    415a:	9c 81       	ldd	r25, Y+4	; 0x04
    415c:	2b 81       	ldd	r18, Y+3	; 0x03
    415e:	3c 81       	ldd	r19, Y+4	; 0x04
    4160:	fc 01       	movw	r30, r24
    4162:	31 87       	std	Z+9, r19	; 0x09
    4164:	20 87       	std	Z+8, r18	; 0x08
                vListInsert( pxCurrentTimerList, &( pxTimer->xTimerListItem ) );
    4166:	8b 81       	ldd	r24, Y+3	; 0x03
    4168:	9c 81       	ldd	r25, Y+4	; 0x04
    416a:	9c 01       	movw	r18, r24
    416c:	2e 5f       	subi	r18, 0xFE	; 254
    416e:	3f 4f       	sbci	r19, 0xFF	; 255
    4170:	80 91 8a 08 	lds	r24, 0x088A	; 0x80088a <pxCurrentTimerList>
    4174:	90 91 8b 08 	lds	r25, 0x088B	; 0x80088b <pxCurrentTimerList+0x1>
    4178:	b9 01       	movw	r22, r18
    417a:	0e 94 60 02 	call	0x4c0	; 0x4c0 <vListInsert>
    417e:	0b c0       	rjmp	.+22     	; 0x4196 <prvSwitchTimerLists+0xea>
            }
            else
            {
                xResult = xTimerGenericCommand( pxTimer, tmrCOMMAND_START_DONT_TRACE, xNextExpireTime, NULL, tmrNO_DELAY );
    4180:	49 81       	ldd	r20, Y+1	; 0x01
    4182:	5a 81       	ldd	r21, Y+2	; 0x02
    4184:	8b 81       	ldd	r24, Y+3	; 0x03
    4186:	9c 81       	ldd	r25, Y+4	; 0x04
    4188:	00 e0       	ldi	r16, 0x00	; 0
    418a:	10 e0       	ldi	r17, 0x00	; 0
    418c:	20 e0       	ldi	r18, 0x00	; 0
    418e:	30 e0       	ldi	r19, 0x00	; 0
    4190:	60 e0       	ldi	r22, 0x00	; 0
    4192:	a6 dc       	rcall	.-1716   	; 0x3ae0 <xTimerGenericCommand>
    4194:	8f 83       	std	Y+7, r24	; 0x07

    /* The tick count has overflowed.  The timer lists must be switched.
    If there are any timers still referenced from the current timer list
    then they must have expired and should be processed before the lists
    are switched. */
    while( listLIST_IS_EMPTY( pxCurrentTimerList ) == pdFALSE )
    4196:	80 91 8a 08 	lds	r24, 0x088A	; 0x80088a <pxCurrentTimerList>
    419a:	90 91 8b 08 	lds	r25, 0x088B	; 0x80088b <pxCurrentTimerList+0x1>
    419e:	fc 01       	movw	r30, r24
    41a0:	80 81       	ld	r24, Z
    41a2:	88 23       	and	r24, r24
    41a4:	09 f0       	breq	.+2      	; 0x41a8 <prvSwitchTimerLists+0xfc>
    41a6:	8f cf       	rjmp	.-226    	; 0x40c6 <prvSwitchTimerLists+0x1a>
        {
            mtCOVERAGE_TEST_MARKER();
        }
    }

    pxTemp = pxCurrentTimerList;
    41a8:	80 91 8a 08 	lds	r24, 0x088A	; 0x80088a <pxCurrentTimerList>
    41ac:	90 91 8b 08 	lds	r25, 0x088B	; 0x80088b <pxCurrentTimerList+0x1>
    41b0:	99 87       	std	Y+9, r25	; 0x09
    41b2:	88 87       	std	Y+8, r24	; 0x08
    pxCurrentTimerList = pxOverflowTimerList;
    41b4:	80 91 8c 08 	lds	r24, 0x088C	; 0x80088c <pxOverflowTimerList>
    41b8:	90 91 8d 08 	lds	r25, 0x088D	; 0x80088d <pxOverflowTimerList+0x1>
    41bc:	90 93 8b 08 	sts	0x088B, r25	; 0x80088b <pxCurrentTimerList+0x1>
    41c0:	80 93 8a 08 	sts	0x088A, r24	; 0x80088a <pxCurrentTimerList>
    pxOverflowTimerList = pxTemp;
    41c4:	88 85       	ldd	r24, Y+8	; 0x08
    41c6:	99 85       	ldd	r25, Y+9	; 0x09
    41c8:	90 93 8d 08 	sts	0x088D, r25	; 0x80088d <pxOverflowTimerList+0x1>
    41cc:	80 93 8c 08 	sts	0x088C, r24	; 0x80088c <pxOverflowTimerList>
}
    41d0:	00 00       	nop
    41d2:	29 96       	adiw	r28, 0x09	; 9
    41d4:	0f b6       	in	r0, 0x3f	; 63
    41d6:	f8 94       	cli
    41d8:	de bf       	out	0x3e, r29	; 62
    41da:	0f be       	out	0x3f, r0	; 63
    41dc:	cd bf       	out	0x3d, r28	; 61
    41de:	df 91       	pop	r29
    41e0:	cf 91       	pop	r28
    41e2:	1f 91       	pop	r17
    41e4:	0f 91       	pop	r16
    41e6:	08 95       	ret

000041e8 <prvCheckForValidListAndQueue>:
/*-----------------------------------------------------------*/

static void prvCheckForValidListAndQueue( void )
{
    41e8:	cf 93       	push	r28
    41ea:	df 93       	push	r29
    41ec:	cd b7       	in	r28, 0x3d	; 61
    41ee:	de b7       	in	r29, 0x3e	; 62
    /* Check that the list from which active timers are referenced, and the
    queue used to communicate with the timer service, have been
    initialised. */
    taskENTER_CRITICAL();
    41f0:	0f b6       	in	r0, 0x3f	; 63
    41f2:	f8 94       	cli
    41f4:	0f 92       	push	r0
    {
        if( xTimerQueue == NULL )
    41f6:	80 91 8e 08 	lds	r24, 0x088E	; 0x80088e <xTimerQueue>
    41fa:	90 91 8f 08 	lds	r25, 0x088F	; 0x80088f <xTimerQueue+0x1>
    41fe:	89 2b       	or	r24, r25
    4200:	e9 f4       	brne	.+58     	; 0x423c <prvCheckForValidListAndQueue+0x54>
        {
            vListInitialise( &xActiveTimerList1 );
    4202:	88 e7       	ldi	r24, 0x78	; 120
    4204:	98 e0       	ldi	r25, 0x08	; 8
    4206:	0e 94 c8 01 	call	0x390	; 0x390 <vListInitialise>
            vListInitialise( &xActiveTimerList2 );
    420a:	81 e8       	ldi	r24, 0x81	; 129
    420c:	98 e0       	ldi	r25, 0x08	; 8
    420e:	0e 94 c8 01 	call	0x390	; 0x390 <vListInitialise>
            pxCurrentTimerList = &xActiveTimerList1;
    4212:	88 e7       	ldi	r24, 0x78	; 120
    4214:	98 e0       	ldi	r25, 0x08	; 8
    4216:	90 93 8b 08 	sts	0x088B, r25	; 0x80088b <pxCurrentTimerList+0x1>
    421a:	80 93 8a 08 	sts	0x088A, r24	; 0x80088a <pxCurrentTimerList>
            pxOverflowTimerList = &xActiveTimerList2;
    421e:	81 e8       	ldi	r24, 0x81	; 129
    4220:	98 e0       	ldi	r25, 0x08	; 8
    4222:	90 93 8d 08 	sts	0x088D, r25	; 0x80088d <pxOverflowTimerList+0x1>
    4226:	80 93 8c 08 	sts	0x088C, r24	; 0x80088c <pxOverflowTimerList>

                xTimerQueue = xQueueCreateStatic( ( UBaseType_t ) configTIMER_QUEUE_LENGTH, ( UBaseType_t ) sizeof( DaemonTaskMessage_t ), &( ucStaticTimerQueueStorage[ 0 ] ), &xStaticTimerQueue );
            }
            #else
            {
                xTimerQueue = xQueueCreate( ( UBaseType_t ) configTIMER_QUEUE_LENGTH, sizeof( DaemonTaskMessage_t ) );
    422a:	40 e0       	ldi	r20, 0x00	; 0
    422c:	65 e0       	ldi	r22, 0x05	; 5
    422e:	8a e0       	ldi	r24, 0x0A	; 10
    4230:	0e 94 a9 06 	call	0xd52	; 0xd52 <xQueueGenericCreate>
    4234:	90 93 8f 08 	sts	0x088F, r25	; 0x80088f <xTimerQueue+0x1>
    4238:	80 93 8e 08 	sts	0x088E, r24	; 0x80088e <xTimerQueue>
        else
        {
            mtCOVERAGE_TEST_MARKER();
        }
    }
    taskEXIT_CRITICAL();
    423c:	0f 90       	pop	r0
    423e:	0f be       	out	0x3f, r0	; 63
}
    4240:	00 00       	nop
    4242:	df 91       	pop	r29
    4244:	cf 91       	pop	r28
    4246:	08 95       	ret

00004248 <vApplicationIdleHook>:
 *
 */
void vApplicationIdleHook( void ) __attribute__((weak));

void vApplicationIdleHook( void )
{
    4248:	cf 93       	push	r28
    424a:	df 93       	push	r29
    424c:	cd b7       	in	r28, 0x3d	; 61
    424e:	de b7       	in	r29, 0x3e	; 62
//     if (serialEventRun) serialEventRun();
}
    4250:	00 00       	nop
    4252:	df 91       	pop	r29
    4254:	cf 91       	pop	r28
    4256:	08 95       	ret

00004258 <vApplicationMallocFailedHook>:
    This routine is referenced in the task.c file of FreeRTOS as an extern.
\*---------------------------------------------------------------------------*/
void vApplicationMallocFailedHook( void ) __attribute__((weak));

void vApplicationMallocFailedHook( void )
{
    4258:	cf 93       	push	r28
    425a:	df 93       	push	r29
    425c:	cd b7       	in	r28, 0x3d	; 61
    425e:	de b7       	in	r29, 0x3e	; 62
    4260:	2e 97       	sbiw	r28, 0x0e	; 14
    4262:	0f b6       	in	r0, 0x3f	; 63
    4264:	f8 94       	cli
    4266:	de bf       	out	0x3e, r29	; 62
    4268:	0f be       	out	0x3f, r0	; 63
    426a:	cd bf       	out	0x3d, r28	; 61
#if defined(__AVR_ATmega640__) || defined(__AVR_ATmega1280__) || defined(__AVR_ATmega1281__) || defined(__AVR_ATmega2560__) || defined(__AVR_ATmega2561__) // Arduino Mega with 2560
    DDRB  |= _BV(DDB7);
    426c:	84 e2       	ldi	r24, 0x24	; 36
    426e:	90 e0       	ldi	r25, 0x00	; 0
    4270:	24 e2       	ldi	r18, 0x24	; 36
    4272:	30 e0       	ldi	r19, 0x00	; 0
    4274:	f9 01       	movw	r30, r18
    4276:	20 81       	ld	r18, Z
    4278:	20 68       	ori	r18, 0x80	; 128
    427a:	fc 01       	movw	r30, r24
    427c:	20 83       	st	Z, r18
    PORTB |= _BV(PORTB7);       // Main (red PB7) LED on. Main LED on.
    427e:	85 e2       	ldi	r24, 0x25	; 37
    4280:	90 e0       	ldi	r25, 0x00	; 0
    4282:	25 e2       	ldi	r18, 0x25	; 37
    4284:	30 e0       	ldi	r19, 0x00	; 0
    4286:	f9 01       	movw	r30, r18
    4288:	20 81       	ld	r18, Z
    428a:	20 68       	ori	r18, 0x80	; 128
    428c:	fc 01       	movw	r30, r24
    428e:	20 83       	st	Z, r18
    4290:	80 e0       	ldi	r24, 0x00	; 0
    4292:	90 e0       	ldi	r25, 0x00	; 0
    4294:	a8 e4       	ldi	r26, 0x48	; 72
    4296:	b2 e4       	ldi	r27, 0x42	; 66
    4298:	89 83       	std	Y+1, r24	; 0x01
    429a:	9a 83       	std	Y+2, r25	; 0x02
    429c:	ab 83       	std	Y+3, r26	; 0x03
    429e:	bc 83       	std	Y+4, r27	; 0x04

	__builtin_avr_delay_cycles(__ticks_dc);

#else
	uint16_t __ticks;
	__tmp = ((F_CPU) / 4e3) * __ms;
    42a0:	20 e0       	ldi	r18, 0x00	; 0
    42a2:	30 e0       	ldi	r19, 0x00	; 0
    42a4:	4a e7       	ldi	r20, 0x7A	; 122
    42a6:	55 e4       	ldi	r21, 0x45	; 69
    42a8:	69 81       	ldd	r22, Y+1	; 0x01
    42aa:	7a 81       	ldd	r23, Y+2	; 0x02
    42ac:	8b 81       	ldd	r24, Y+3	; 0x03
    42ae:	9c 81       	ldd	r25, Y+4	; 0x04
    42b0:	0e 94 1b 35 	call	0x6a36	; 0x6a36 <__mulsf3>
    42b4:	dc 01       	movw	r26, r24
    42b6:	cb 01       	movw	r24, r22
    42b8:	8d 83       	std	Y+5, r24	; 0x05
    42ba:	9e 83       	std	Y+6, r25	; 0x06
    42bc:	af 83       	std	Y+7, r26	; 0x07
    42be:	b8 87       	std	Y+8, r27	; 0x08
	if (__tmp < 1.0)
    42c0:	20 e0       	ldi	r18, 0x00	; 0
    42c2:	30 e0       	ldi	r19, 0x00	; 0
    42c4:	40 e8       	ldi	r20, 0x80	; 128
    42c6:	5f e3       	ldi	r21, 0x3F	; 63
    42c8:	6d 81       	ldd	r22, Y+5	; 0x05
    42ca:	7e 81       	ldd	r23, Y+6	; 0x06
    42cc:	8f 81       	ldd	r24, Y+7	; 0x07
    42ce:	98 85       	ldd	r25, Y+8	; 0x08
    42d0:	0e 94 c8 33 	call	0x6790	; 0x6790 <__cmpsf2>
    42d4:	88 23       	and	r24, r24
    42d6:	2c f4       	brge	.+10     	; 0x42e2 <vApplicationMallocFailedHook+0x8a>
		__ticks = 1;
    42d8:	81 e0       	ldi	r24, 0x01	; 1
    42da:	90 e0       	ldi	r25, 0x00	; 0
    42dc:	9a 87       	std	Y+10, r25	; 0x0a
    42de:	89 87       	std	Y+9, r24	; 0x09
    42e0:	3f c0       	rjmp	.+126    	; 0x4360 <vApplicationMallocFailedHook+0x108>
	else if (__tmp > 65535)
    42e2:	20 e0       	ldi	r18, 0x00	; 0
    42e4:	3f ef       	ldi	r19, 0xFF	; 255
    42e6:	4f e7       	ldi	r20, 0x7F	; 127
    42e8:	57 e4       	ldi	r21, 0x47	; 71
    42ea:	6d 81       	ldd	r22, Y+5	; 0x05
    42ec:	7e 81       	ldd	r23, Y+6	; 0x06
    42ee:	8f 81       	ldd	r24, Y+7	; 0x07
    42f0:	98 85       	ldd	r25, Y+8	; 0x08
    42f2:	0e 94 17 35 	call	0x6a2e	; 0x6a2e <__gesf2>
    42f6:	18 16       	cp	r1, r24
    42f8:	4c f5       	brge	.+82     	; 0x434c <vApplicationMallocFailedHook+0xf4>
	{
		//	__ticks = requested delay in 1/10 ms
		__ticks = (uint16_t) (__ms * 10.0);
    42fa:	20 e0       	ldi	r18, 0x00	; 0
    42fc:	30 e0       	ldi	r19, 0x00	; 0
    42fe:	40 e2       	ldi	r20, 0x20	; 32
    4300:	51 e4       	ldi	r21, 0x41	; 65
    4302:	69 81       	ldd	r22, Y+1	; 0x01
    4304:	7a 81       	ldd	r23, Y+2	; 0x02
    4306:	8b 81       	ldd	r24, Y+3	; 0x03
    4308:	9c 81       	ldd	r25, Y+4	; 0x04
    430a:	0e 94 1b 35 	call	0x6a36	; 0x6a36 <__mulsf3>
    430e:	dc 01       	movw	r26, r24
    4310:	cb 01       	movw	r24, r22
    4312:	bc 01       	movw	r22, r24
    4314:	cd 01       	movw	r24, r26
    4316:	0e 94 39 34 	call	0x6872	; 0x6872 <__fixunssfsi>
    431a:	dc 01       	movw	r26, r24
    431c:	cb 01       	movw	r24, r22
    431e:	9a 87       	std	Y+10, r25	; 0x0a
    4320:	89 87       	std	Y+9, r24	; 0x09
    4322:	0f c0       	rjmp	.+30     	; 0x4342 <vApplicationMallocFailedHook+0xea>
    4324:	80 e9       	ldi	r24, 0x90	; 144
    4326:	91 e0       	ldi	r25, 0x01	; 1
    4328:	9c 87       	std	Y+12, r25	; 0x0c
    432a:	8b 87       	std	Y+11, r24	; 0x0b
    milliseconds can be achieved.
 */
void
_delay_loop_2(uint16_t __count)
{
	__asm__ volatile (
    432c:	8b 85       	ldd	r24, Y+11	; 0x0b
    432e:	9c 85       	ldd	r25, Y+12	; 0x0c
    4330:	01 97       	sbiw	r24, 0x01	; 1
    4332:	f1 f7       	brne	.-4      	; 0x4330 <vApplicationMallocFailedHook+0xd8>
    4334:	9c 87       	std	Y+12, r25	; 0x0c
    4336:	8b 87       	std	Y+11, r24	; 0x0b
		while(__ticks)
		{
			// wait 1/10 ms
			_delay_loop_2(((F_CPU) / 4e3) / 10);
			__ticks --;
    4338:	89 85       	ldd	r24, Y+9	; 0x09
    433a:	9a 85       	ldd	r25, Y+10	; 0x0a
    433c:	01 97       	sbiw	r24, 0x01	; 1
    433e:	9a 87       	std	Y+10, r25	; 0x0a
    4340:	89 87       	std	Y+9, r24	; 0x09
		__ticks = 1;
	else if (__tmp > 65535)
	{
		//	__ticks = requested delay in 1/10 ms
		__ticks = (uint16_t) (__ms * 10.0);
		while(__ticks)
    4342:	89 85       	ldd	r24, Y+9	; 0x09
    4344:	9a 85       	ldd	r25, Y+10	; 0x0a
    4346:	89 2b       	or	r24, r25
    4348:	69 f7       	brne	.-38     	; 0x4324 <vApplicationMallocFailedHook+0xcc>
    434a:	14 c0       	rjmp	.+40     	; 0x4374 <vApplicationMallocFailedHook+0x11c>
			__ticks --;
		}
		return;
	}
	else
		__ticks = (uint16_t)__tmp;
    434c:	6d 81       	ldd	r22, Y+5	; 0x05
    434e:	7e 81       	ldd	r23, Y+6	; 0x06
    4350:	8f 81       	ldd	r24, Y+7	; 0x07
    4352:	98 85       	ldd	r25, Y+8	; 0x08
    4354:	0e 94 39 34 	call	0x6872	; 0x6872 <__fixunssfsi>
    4358:	dc 01       	movw	r26, r24
    435a:	cb 01       	movw	r24, r22
    435c:	9a 87       	std	Y+10, r25	; 0x0a
    435e:	89 87       	std	Y+9, r24	; 0x09
    4360:	89 85       	ldd	r24, Y+9	; 0x09
    4362:	9a 85       	ldd	r25, Y+10	; 0x0a
    4364:	9e 87       	std	Y+14, r25	; 0x0e
    4366:	8d 87       	std	Y+13, r24	; 0x0d
    4368:	8d 85       	ldd	r24, Y+13	; 0x0d
    436a:	9e 85       	ldd	r25, Y+14	; 0x0e
    436c:	01 97       	sbiw	r24, 0x01	; 1
    436e:	f1 f7       	brne	.-4      	; 0x436c <vApplicationMallocFailedHook+0x114>
    4370:	9e 87       	std	Y+14, r25	; 0x0e
    4372:	8d 87       	std	Y+13, r24	; 0x0d
    for(;;)
    {
        _delay_ms(50);

#if defined(__AVR_ATmega640__) || defined(__AVR_ATmega1280__) || defined(__AVR_ATmega1281__) || defined(__AVR_ATmega2560__) || defined(__AVR_ATmega2561__)  // Mega with 2560
        PINB  |= _BV(PINB7);       // Main (red PB7) LED toggle. Main LED fast blink.
    4374:	83 e2       	ldi	r24, 0x23	; 35
    4376:	90 e0       	ldi	r25, 0x00	; 0
    4378:	23 e2       	ldi	r18, 0x23	; 35
    437a:	30 e0       	ldi	r19, 0x00	; 0
    437c:	f9 01       	movw	r30, r18
    437e:	20 81       	ld	r18, Z
    4380:	20 68       	ori	r18, 0x80	; 128
    4382:	fc 01       	movw	r30, r24
    4384:	20 83       	st	Z, r18
#elif defined(__AVR_ATmega32U4__) || defined(__AVR_ATmega16U4__) // assume we're using an Arduino Leonardo with 32u4
        PINC  |= _BV(PINC7);       // Main (red PC7) LED toggle. Main LED fast blink.

#endif

    }
    4386:	84 cf       	rjmp	.-248    	; 0x4290 <vApplicationMallocFailedHook+0x38>

00004388 <vApplicationStackOverflowHook>:
   This routine is referenced in the task.c file of FreeRTOS as an extern.
\*---------------------------------------------------------------------------*/
void vApplicationStackOverflowHook( TaskHandle_t xTask, portCHAR *pcTaskName ) __attribute__((weak));

void vApplicationStackOverflowHook( TaskHandle_t xTask __attribute__((unused)), portCHAR *pcTaskName __attribute__((unused))  )
{
    4388:	cf 93       	push	r28
    438a:	df 93       	push	r29
    438c:	cd b7       	in	r28, 0x3d	; 61
    438e:	de b7       	in	r29, 0x3e	; 62
    4390:	62 97       	sbiw	r28, 0x12	; 18
    4392:	0f b6       	in	r0, 0x3f	; 63
    4394:	f8 94       	cli
    4396:	de bf       	out	0x3e, r29	; 62
    4398:	0f be       	out	0x3f, r0	; 63
    439a:	cd bf       	out	0x3d, r28	; 61
    439c:	98 8b       	std	Y+16, r25	; 0x10
    439e:	8f 87       	std	Y+15, r24	; 0x0f
    43a0:	7a 8b       	std	Y+18, r23	; 0x12
    43a2:	69 8b       	std	Y+17, r22	; 0x11
#if defined(__AVR_ATmega640__) || defined(__AVR_ATmega1280__) || defined(__AVR_ATmega1281__) || defined(__AVR_ATmega2560__) || defined(__AVR_ATmega2561__)  // Arduino Mega with 2560
    DDRB  |= _BV(DDB7);
    43a4:	84 e2       	ldi	r24, 0x24	; 36
    43a6:	90 e0       	ldi	r25, 0x00	; 0
    43a8:	24 e2       	ldi	r18, 0x24	; 36
    43aa:	30 e0       	ldi	r19, 0x00	; 0
    43ac:	f9 01       	movw	r30, r18
    43ae:	20 81       	ld	r18, Z
    43b0:	20 68       	ori	r18, 0x80	; 128
    43b2:	fc 01       	movw	r30, r24
    43b4:	20 83       	st	Z, r18
    PORTB |= _BV(PORTB7);       // Main (red PB7) LED on. Main LED on.
    43b6:	85 e2       	ldi	r24, 0x25	; 37
    43b8:	90 e0       	ldi	r25, 0x00	; 0
    43ba:	25 e2       	ldi	r18, 0x25	; 37
    43bc:	30 e0       	ldi	r19, 0x00	; 0
    43be:	f9 01       	movw	r30, r18
    43c0:	20 81       	ld	r18, Z
    43c2:	20 68       	ori	r18, 0x80	; 128
    43c4:	fc 01       	movw	r30, r24
    43c6:	20 83       	st	Z, r18
    43c8:	80 e0       	ldi	r24, 0x00	; 0
    43ca:	90 e0       	ldi	r25, 0x00	; 0
    43cc:	aa ef       	ldi	r26, 0xFA	; 250
    43ce:	b4 e4       	ldi	r27, 0x44	; 68
    43d0:	89 83       	std	Y+1, r24	; 0x01
    43d2:	9a 83       	std	Y+2, r25	; 0x02
    43d4:	ab 83       	std	Y+3, r26	; 0x03
    43d6:	bc 83       	std	Y+4, r27	; 0x04

	__builtin_avr_delay_cycles(__ticks_dc);

#else
	uint16_t __ticks;
	__tmp = ((F_CPU) / 4e3) * __ms;
    43d8:	20 e0       	ldi	r18, 0x00	; 0
    43da:	30 e0       	ldi	r19, 0x00	; 0
    43dc:	4a e7       	ldi	r20, 0x7A	; 122
    43de:	55 e4       	ldi	r21, 0x45	; 69
    43e0:	69 81       	ldd	r22, Y+1	; 0x01
    43e2:	7a 81       	ldd	r23, Y+2	; 0x02
    43e4:	8b 81       	ldd	r24, Y+3	; 0x03
    43e6:	9c 81       	ldd	r25, Y+4	; 0x04
    43e8:	0e 94 1b 35 	call	0x6a36	; 0x6a36 <__mulsf3>
    43ec:	dc 01       	movw	r26, r24
    43ee:	cb 01       	movw	r24, r22
    43f0:	8d 83       	std	Y+5, r24	; 0x05
    43f2:	9e 83       	std	Y+6, r25	; 0x06
    43f4:	af 83       	std	Y+7, r26	; 0x07
    43f6:	b8 87       	std	Y+8, r27	; 0x08
	if (__tmp < 1.0)
    43f8:	20 e0       	ldi	r18, 0x00	; 0
    43fa:	30 e0       	ldi	r19, 0x00	; 0
    43fc:	40 e8       	ldi	r20, 0x80	; 128
    43fe:	5f e3       	ldi	r21, 0x3F	; 63
    4400:	6d 81       	ldd	r22, Y+5	; 0x05
    4402:	7e 81       	ldd	r23, Y+6	; 0x06
    4404:	8f 81       	ldd	r24, Y+7	; 0x07
    4406:	98 85       	ldd	r25, Y+8	; 0x08
    4408:	0e 94 c8 33 	call	0x6790	; 0x6790 <__cmpsf2>
    440c:	88 23       	and	r24, r24
    440e:	2c f4       	brge	.+10     	; 0x441a <vApplicationStackOverflowHook+0x92>
		__ticks = 1;
    4410:	81 e0       	ldi	r24, 0x01	; 1
    4412:	90 e0       	ldi	r25, 0x00	; 0
    4414:	9a 87       	std	Y+10, r25	; 0x0a
    4416:	89 87       	std	Y+9, r24	; 0x09
    4418:	3f c0       	rjmp	.+126    	; 0x4498 <vApplicationStackOverflowHook+0x110>
	else if (__tmp > 65535)
    441a:	20 e0       	ldi	r18, 0x00	; 0
    441c:	3f ef       	ldi	r19, 0xFF	; 255
    441e:	4f e7       	ldi	r20, 0x7F	; 127
    4420:	57 e4       	ldi	r21, 0x47	; 71
    4422:	6d 81       	ldd	r22, Y+5	; 0x05
    4424:	7e 81       	ldd	r23, Y+6	; 0x06
    4426:	8f 81       	ldd	r24, Y+7	; 0x07
    4428:	98 85       	ldd	r25, Y+8	; 0x08
    442a:	0e 94 17 35 	call	0x6a2e	; 0x6a2e <__gesf2>
    442e:	18 16       	cp	r1, r24
    4430:	4c f5       	brge	.+82     	; 0x4484 <vApplicationStackOverflowHook+0xfc>
	{
		//	__ticks = requested delay in 1/10 ms
		__ticks = (uint16_t) (__ms * 10.0);
    4432:	20 e0       	ldi	r18, 0x00	; 0
    4434:	30 e0       	ldi	r19, 0x00	; 0
    4436:	40 e2       	ldi	r20, 0x20	; 32
    4438:	51 e4       	ldi	r21, 0x41	; 65
    443a:	69 81       	ldd	r22, Y+1	; 0x01
    443c:	7a 81       	ldd	r23, Y+2	; 0x02
    443e:	8b 81       	ldd	r24, Y+3	; 0x03
    4440:	9c 81       	ldd	r25, Y+4	; 0x04
    4442:	0e 94 1b 35 	call	0x6a36	; 0x6a36 <__mulsf3>
    4446:	dc 01       	movw	r26, r24
    4448:	cb 01       	movw	r24, r22
    444a:	bc 01       	movw	r22, r24
    444c:	cd 01       	movw	r24, r26
    444e:	0e 94 39 34 	call	0x6872	; 0x6872 <__fixunssfsi>
    4452:	dc 01       	movw	r26, r24
    4454:	cb 01       	movw	r24, r22
    4456:	9a 87       	std	Y+10, r25	; 0x0a
    4458:	89 87       	std	Y+9, r24	; 0x09
    445a:	0f c0       	rjmp	.+30     	; 0x447a <vApplicationStackOverflowHook+0xf2>
    445c:	80 e9       	ldi	r24, 0x90	; 144
    445e:	91 e0       	ldi	r25, 0x01	; 1
    4460:	9c 87       	std	Y+12, r25	; 0x0c
    4462:	8b 87       	std	Y+11, r24	; 0x0b
    4464:	8b 85       	ldd	r24, Y+11	; 0x0b
    4466:	9c 85       	ldd	r25, Y+12	; 0x0c
    4468:	01 97       	sbiw	r24, 0x01	; 1
    446a:	f1 f7       	brne	.-4      	; 0x4468 <vApplicationStackOverflowHook+0xe0>
    446c:	9c 87       	std	Y+12, r25	; 0x0c
    446e:	8b 87       	std	Y+11, r24	; 0x0b
		while(__ticks)
		{
			// wait 1/10 ms
			_delay_loop_2(((F_CPU) / 4e3) / 10);
			__ticks --;
    4470:	89 85       	ldd	r24, Y+9	; 0x09
    4472:	9a 85       	ldd	r25, Y+10	; 0x0a
    4474:	01 97       	sbiw	r24, 0x01	; 1
    4476:	9a 87       	std	Y+10, r25	; 0x0a
    4478:	89 87       	std	Y+9, r24	; 0x09
		__ticks = 1;
	else if (__tmp > 65535)
	{
		//	__ticks = requested delay in 1/10 ms
		__ticks = (uint16_t) (__ms * 10.0);
		while(__ticks)
    447a:	89 85       	ldd	r24, Y+9	; 0x09
    447c:	9a 85       	ldd	r25, Y+10	; 0x0a
    447e:	89 2b       	or	r24, r25
    4480:	69 f7       	brne	.-38     	; 0x445c <vApplicationStackOverflowHook+0xd4>
    4482:	14 c0       	rjmp	.+40     	; 0x44ac <vApplicationStackOverflowHook+0x124>
			__ticks --;
		}
		return;
	}
	else
		__ticks = (uint16_t)__tmp;
    4484:	6d 81       	ldd	r22, Y+5	; 0x05
    4486:	7e 81       	ldd	r23, Y+6	; 0x06
    4488:	8f 81       	ldd	r24, Y+7	; 0x07
    448a:	98 85       	ldd	r25, Y+8	; 0x08
    448c:	0e 94 39 34 	call	0x6872	; 0x6872 <__fixunssfsi>
    4490:	dc 01       	movw	r26, r24
    4492:	cb 01       	movw	r24, r22
    4494:	9a 87       	std	Y+10, r25	; 0x0a
    4496:	89 87       	std	Y+9, r24	; 0x09
    4498:	89 85       	ldd	r24, Y+9	; 0x09
    449a:	9a 85       	ldd	r25, Y+10	; 0x0a
    449c:	9e 87       	std	Y+14, r25	; 0x0e
    449e:	8d 87       	std	Y+13, r24	; 0x0d
    44a0:	8d 85       	ldd	r24, Y+13	; 0x0d
    44a2:	9e 85       	ldd	r25, Y+14	; 0x0e
    44a4:	01 97       	sbiw	r24, 0x01	; 1
    44a6:	f1 f7       	brne	.-4      	; 0x44a4 <vApplicationStackOverflowHook+0x11c>
    44a8:	9e 87       	std	Y+14, r25	; 0x0e
    44aa:	8d 87       	std	Y+13, r24	; 0x0d
    for(;;)
    {
        _delay_ms(2000);

#if defined(__AVR_ATmega640__) || defined(__AVR_ATmega1280__) || defined(__AVR_ATmega1281__) || defined(__AVR_ATmega2560__) || defined(__AVR_ATmega2561__)  // Arduino Mega with 2560
        PINB  |= _BV(PINB7);       // Main (red PB7) LED toggle. Main LED slow blink.
    44ac:	83 e2       	ldi	r24, 0x23	; 35
    44ae:	90 e0       	ldi	r25, 0x00	; 0
    44b0:	23 e2       	ldi	r18, 0x23	; 35
    44b2:	30 e0       	ldi	r19, 0x00	; 0
    44b4:	f9 01       	movw	r30, r18
    44b6:	20 81       	ld	r18, Z
    44b8:	20 68       	ori	r18, 0x80	; 128
    44ba:	fc 01       	movw	r30, r24
    44bc:	20 83       	st	Z, r18
#elif defined(__AVR_ATmega32U4__) || defined(__AVR_ATmega16U4__) // assume we're using an Arduino Leonardo with 32u4
        PINC  |= _BV(PINC7);       // Main (red PC7) LED toggle. Main LED slow blink.

#endif

    }
    44be:	84 cf       	rjmp	.-248    	; 0x43c8 <vApplicationStackOverflowHook+0x40>

000044c0 <m_print>:
 *  Author: drags
 */ 
#include "Headers/m_lora_includes.h"

void m_print(char message[], SemaphoreHandle_t pxSemaphore)
{
    44c0:	cf 93       	push	r28
    44c2:	df 93       	push	r29
    44c4:	00 d0       	rcall	.+0      	; 0x44c6 <m_print+0x6>
    44c6:	1f 92       	push	r1
    44c8:	cd b7       	in	r28, 0x3d	; 61
    44ca:	de b7       	in	r29, 0x3e	; 62
    44cc:	9a 83       	std	Y+2, r25	; 0x02
    44ce:	89 83       	std	Y+1, r24	; 0x01
    44d0:	7c 83       	std	Y+4, r23	; 0x04
    44d2:	6b 83       	std	Y+3, r22	; 0x03
	xSemaphoreTake(pxSemaphore, portMAX_DELAY);
    44d4:	8b 81       	ldd	r24, Y+3	; 0x03
    44d6:	9c 81       	ldd	r25, Y+4	; 0x04
    44d8:	6f ef       	ldi	r22, 0xFF	; 255
    44da:	7f ef       	ldi	r23, 0xFF	; 255
    44dc:	0e 94 31 09 	call	0x1262	; 0x1262 <xQueueSemaphoreTake>
	printf("%s\n",message);
    44e0:	89 81       	ldd	r24, Y+1	; 0x01
    44e2:	9a 81       	ldd	r25, Y+2	; 0x02
    44e4:	0e 94 0a 37 	call	0x6e14	; 0x6e14 <puts>
	xSemaphoreGive(pxSemaphore);
    44e8:	8b 81       	ldd	r24, Y+3	; 0x03
    44ea:	9c 81       	ldd	r25, Y+4	; 0x04
    44ec:	20 e0       	ldi	r18, 0x00	; 0
    44ee:	40 e0       	ldi	r20, 0x00	; 0
    44f0:	50 e0       	ldi	r21, 0x00	; 0
    44f2:	60 e0       	ldi	r22, 0x00	; 0
    44f4:	70 e0       	ldi	r23, 0x00	; 0
    44f6:	0e 94 81 07 	call	0xf02	; 0xf02 <xQueueGenericSend>
    44fa:	00 00       	nop
    44fc:	0f 90       	pop	r0
    44fe:	0f 90       	pop	r0
    4500:	0f 90       	pop	r0
    4502:	0f 90       	pop	r0
    4504:	df 91       	pop	r29
    4506:	cf 91       	pop	r28
    4508:	08 95       	ret

0000450a <create_all_tasks>:
/*
	This method creates all the tasks
*/

void create_all_tasks(UBaseType_t lora_reset_task_priority)
{
    450a:	ef 92       	push	r14
    450c:	ff 92       	push	r15
    450e:	0f 93       	push	r16
    4510:	cf 93       	push	r28
    4512:	df 93       	push	r29
    4514:	1f 92       	push	r1
    4516:	cd b7       	in	r28, 0x3d	; 61
    4518:	de b7       	in	r29, 0x3e	; 62
    451a:	89 83       	std	Y+1, r24	; 0x01
	xTaskCreate(
    451c:	e1 2c       	mov	r14, r1
    451e:	f1 2c       	mov	r15, r1
    4520:	09 81       	ldd	r16, Y+1	; 0x01
    4522:	20 e0       	ldi	r18, 0x00	; 0
    4524:	30 e0       	ldi	r19, 0x00	; 0
    4526:	48 e8       	ldi	r20, 0x88	; 136
    4528:	51 e0       	ldi	r21, 0x01	; 1
    452a:	6e e2       	ldi	r22, 0x2E	; 46
    452c:	72 e0       	ldi	r23, 0x02	; 2
    452e:	84 ef       	ldi	r24, 0xF4	; 244
    4530:	94 e2       	ldi	r25, 0x24	; 36
    4532:	0e 94 df 10 	call	0x21be	; 0x21be <xTaskCreate>
	,  configMINIMAL_STACK_SIZE+200  
	,  NULL
	,  lora_reset_task_priority  
	,  NULL );
	
	xTaskCreate(
    4536:	e1 2c       	mov	r14, r1
    4538:	f1 2c       	mov	r15, r1
    453a:	00 e0       	ldi	r16, 0x00	; 0
    453c:	20 e0       	ldi	r18, 0x00	; 0
    453e:	30 e0       	ldi	r19, 0x00	; 0
    4540:	40 ec       	ldi	r20, 0xC0	; 192
    4542:	50 e0       	ldi	r21, 0x00	; 0
    4544:	65 e3       	ldi	r22, 0x35	; 53
    4546:	72 e0       	ldi	r23, 0x02	; 2
    4548:	8b ee       	ldi	r24, 0xEB	; 235
    454a:	95 e2       	ldi	r25, 0x25	; 37
    454c:	0e 94 df 10 	call	0x21be	; 0x21be <xTaskCreate>
	, configMINIMAL_STACK_SIZE
	, NULL
	, ( tskIDLE_PRIORITY )
	, NULL );
	
	xTaskCreate(
    4550:	e1 2c       	mov	r14, r1
    4552:	f1 2c       	mov	r15, r1
    4554:	00 e0       	ldi	r16, 0x00	; 0
    4556:	20 e0       	ldi	r18, 0x00	; 0
    4558:	30 e0       	ldi	r19, 0x00	; 0
    455a:	40 ec       	ldi	r20, 0xC0	; 192
    455c:	50 e0       	ldi	r21, 0x00	; 0
    455e:	67 e4       	ldi	r22, 0x47	; 71
    4560:	72 e0       	ldi	r23, 0x02	; 2
    4562:	82 e8       	ldi	r24, 0x82	; 130
    4564:	95 e2       	ldi	r25, 0x25	; 37
    4566:	0e 94 df 10 	call	0x21be	; 0x21be <xTaskCreate>
	, "Measure CO2 Task"
	, configMINIMAL_STACK_SIZE
	, NULL
	, ( tskIDLE_PRIORITY )
	, NULL );
}
    456a:	00 00       	nop
    456c:	0f 90       	pop	r0
    456e:	df 91       	pop	r29
    4570:	cf 91       	pop	r28
    4572:	0f 91       	pop	r16
    4574:	ff 90       	pop	r15
    4576:	ef 90       	pop	r14
    4578:	08 95       	ret

0000457a <create_all_timers>:
void timer_callback(TimerHandle_t pxTimer);

TimerHandle_t xTimer;

void create_all_timers()
{
    457a:	0f 93       	push	r16
    457c:	1f 93       	push	r17
    457e:	cf 93       	push	r28
    4580:	df 93       	push	r29
    4582:	cd b7       	in	r28, 0x3d	; 61
    4584:	de b7       	in	r29, 0x3e	; 62
	xTimer = xTimerCreate("5 minutes timer",
    4586:	0d e2       	ldi	r16, 0x2D	; 45
    4588:	11 e0       	ldi	r17, 0x01	; 1
    458a:	20 e0       	ldi	r18, 0x00	; 0
    458c:	30 e0       	ldi	r19, 0x00	; 0
    458e:	41 e0       	ldi	r20, 0x01	; 1
    4590:	61 e7       	ldi	r22, 0x71	; 113
    4592:	72 e0       	ldi	r23, 0x02	; 2
    4594:	88 e5       	ldi	r24, 0x58	; 88
    4596:	92 e0       	ldi	r25, 0x02	; 2
    4598:	07 da       	rcall	.-3058   	; 0x39a8 <xTimerCreate>
    459a:	90 93 6b 0a 	sts	0x0A6B, r25	; 0x800a6b <xTimer+0x1>
    459e:	80 93 6a 0a 	sts	0x0A6A, r24	; 0x800a6a <xTimer>
			(10000/portTICK_PERIOD_MS),
			pdTRUE,
			(void *)0,
			timer_callback);
    45a2:	00 00       	nop
    45a4:	df 91       	pop	r29
    45a6:	cf 91       	pop	r28
    45a8:	1f 91       	pop	r17
    45aa:	0f 91       	pop	r16
    45ac:	08 95       	ret

000045ae <lora_reset>:


void lora_setup(void);

void lora_reset()
{
    45ae:	cf 93       	push	r28
    45b0:	df 93       	push	r29
    45b2:	cd b7       	in	r28, 0x3d	; 61
    45b4:	de b7       	in	r29, 0x3e	; 62
	lora_driver_reset_rn2483(1); // Activate reset line
    45b6:	81 e0       	ldi	r24, 0x01	; 1
    45b8:	0e 94 d7 2d 	call	0x5bae	; 0x5bae <lora_driver_reset_rn2483>
	vTaskDelay(2);
    45bc:	82 e0       	ldi	r24, 0x02	; 2
    45be:	90 e0       	ldi	r25, 0x00	; 0
    45c0:	0e 94 b0 12 	call	0x2560	; 0x2560 <vTaskDelay>
	lora_driver_reset_rn2483(0); // Release reset line
    45c4:	80 e0       	ldi	r24, 0x00	; 0
    45c6:	0e 94 d7 2d 	call	0x5bae	; 0x5bae <lora_driver_reset_rn2483>
	vTaskDelay(150); // Wait for tranceiver module to wake up after reset
    45ca:	86 e9       	ldi	r24, 0x96	; 150
    45cc:	90 e0       	ldi	r25, 0x00	; 0
    45ce:	0e 94 b0 12 	call	0x2560	; 0x2560 <vTaskDelay>
	lora_driver_flush_buffers(); // get rid of first version string from module after reset!
    45d2:	0e 94 94 2d 	call	0x5b28	; 0x5b28 <lora_driver_flush_buffers>
	
	lora_setup();
    45d6:	04 d0       	rcall	.+8      	; 0x45e0 <lora_setup>
    45d8:	00 00       	nop
    45da:	df 91       	pop	r29
    45dc:	cf 91       	pop	r28
    45de:	08 95       	ret

000045e0 <lora_setup>:
#include "../Headers/m_lora_includes.h"

static char _out_buf[100];

void lora_setup(void)
{
    45e0:	cf 93       	push	r28
    45e2:	df 93       	push	r29
    45e4:	1f 92       	push	r1
    45e6:	1f 92       	push	r1
    45e8:	cd b7       	in	r28, 0x3d	; 61
    45ea:	de b7       	in	r29, 0x3e	; 62
	/*
		Hardware reset of LoRaWAN transceiver
	*/
	

	led_slow_blink(led_ST2); // OPTIONAL: Led the green led blink slowly while we are setting up LoRa
    45ec:	81 e0       	ldi	r24, 0x01	; 1
    45ee:	0e 94 28 2c 	call	0x5850	; 0x5850 <led_slow_blink>

	// Factory reset the transceiver
	xSemaphoreTake(xSemaphore_print,portMAX_DELAY);
    45f2:	80 91 6c 0a 	lds	r24, 0x0A6C	; 0x800a6c <xSemaphore_print>
    45f6:	90 91 6d 0a 	lds	r25, 0x0A6D	; 0x800a6d <xSemaphore_print+0x1>
    45fa:	6f ef       	ldi	r22, 0xFF	; 255
    45fc:	7f ef       	ldi	r23, 0xFF	; 255
    45fe:	0e 94 31 09 	call	0x1262	; 0x1262 <xQueueSemaphoreTake>
	printf("FactoryReset >%s<\n", lora_driver_map_return_code_to_text(lora_driver_rn2483_factory_reset()));
    4602:	0e 94 eb 2d 	call	0x5bd6	; 0x5bd6 <lora_driver_rn2483_factory_reset>
    4606:	0e 94 13 30 	call	0x6026	; 0x6026 <lora_driver_map_return_code_to_text>
    460a:	29 2f       	mov	r18, r25
    460c:	2f 93       	push	r18
    460e:	8f 93       	push	r24
    4610:	88 e6       	ldi	r24, 0x68	; 104
    4612:	92 e0       	ldi	r25, 0x02	; 2
    4614:	89 2f       	mov	r24, r25
    4616:	8f 93       	push	r24
    4618:	88 e6       	ldi	r24, 0x68	; 104
    461a:	92 e0       	ldi	r25, 0x02	; 2
    461c:	8f 93       	push	r24
    461e:	0e 94 f7 36 	call	0x6dee	; 0x6dee <printf>
    4622:	0f 90       	pop	r0
    4624:	0f 90       	pop	r0
    4626:	0f 90       	pop	r0
    4628:	0f 90       	pop	r0
	xSemaphoreGive(xSemaphore_print);
    462a:	80 91 6c 0a 	lds	r24, 0x0A6C	; 0x800a6c <xSemaphore_print>
    462e:	90 91 6d 0a 	lds	r25, 0x0A6D	; 0x800a6d <xSemaphore_print+0x1>
    4632:	20 e0       	ldi	r18, 0x00	; 0
    4634:	40 e0       	ldi	r20, 0x00	; 0
    4636:	50 e0       	ldi	r21, 0x00	; 0
    4638:	60 e0       	ldi	r22, 0x00	; 0
    463a:	70 e0       	ldi	r23, 0x00	; 0
    463c:	0e 94 81 07 	call	0xf02	; 0xf02 <xQueueGenericSend>
	
	// Configure to EU868 LoRaWAN standards
	xSemaphoreTake(xSemaphore_print,portMAX_DELAY);
    4640:	80 91 6c 0a 	lds	r24, 0x0A6C	; 0x800a6c <xSemaphore_print>
    4644:	90 91 6d 0a 	lds	r25, 0x0A6D	; 0x800a6d <xSemaphore_print+0x1>
    4648:	6f ef       	ldi	r22, 0xFF	; 255
    464a:	7f ef       	ldi	r23, 0xFF	; 255
    464c:	0e 94 31 09 	call	0x1262	; 0x1262 <xQueueSemaphoreTake>
	printf("Configure to EU868 >%s<\n", lora_driver_map_return_code_to_text(lora_driver_configure_to_eu868()));
    4650:	0e 94 18 2f 	call	0x5e30	; 0x5e30 <lora_driver_configure_to_eu868>
    4654:	0e 94 13 30 	call	0x6026	; 0x6026 <lora_driver_map_return_code_to_text>
    4658:	29 2f       	mov	r18, r25
    465a:	2f 93       	push	r18
    465c:	8f 93       	push	r24
    465e:	8b e7       	ldi	r24, 0x7B	; 123
    4660:	92 e0       	ldi	r25, 0x02	; 2
    4662:	89 2f       	mov	r24, r25
    4664:	8f 93       	push	r24
    4666:	8b e7       	ldi	r24, 0x7B	; 123
    4668:	92 e0       	ldi	r25, 0x02	; 2
    466a:	8f 93       	push	r24
    466c:	0e 94 f7 36 	call	0x6dee	; 0x6dee <printf>
    4670:	0f 90       	pop	r0
    4672:	0f 90       	pop	r0
    4674:	0f 90       	pop	r0
    4676:	0f 90       	pop	r0
	xSemaphoreGive(xSemaphore_print);
    4678:	80 91 6c 0a 	lds	r24, 0x0A6C	; 0x800a6c <xSemaphore_print>
    467c:	90 91 6d 0a 	lds	r25, 0x0A6D	; 0x800a6d <xSemaphore_print+0x1>
    4680:	20 e0       	ldi	r18, 0x00	; 0
    4682:	40 e0       	ldi	r20, 0x00	; 0
    4684:	50 e0       	ldi	r21, 0x00	; 0
    4686:	60 e0       	ldi	r22, 0x00	; 0
    4688:	70 e0       	ldi	r23, 0x00	; 0
    468a:	0e 94 81 07 	call	0xf02	; 0xf02 <xQueueGenericSend>

	// Get the transceivers HW EUI
	rc = lora_driver_get_rn2483_hweui(_out_buf);
    468e:	84 e9       	ldi	r24, 0x94	; 148
    4690:	98 e0       	ldi	r25, 0x08	; 8
    4692:	0e 94 fd 2d 	call	0x5bfa	; 0x5bfa <lora_driver_get_rn2483_hweui>
    4696:	8a 83       	std	Y+2, r24	; 0x02
	xSemaphoreTake(xSemaphore_print,portMAX_DELAY);
    4698:	80 91 6c 0a 	lds	r24, 0x0A6C	; 0x800a6c <xSemaphore_print>
    469c:	90 91 6d 0a 	lds	r25, 0x0A6D	; 0x800a6d <xSemaphore_print+0x1>
    46a0:	6f ef       	ldi	r22, 0xFF	; 255
    46a2:	7f ef       	ldi	r23, 0xFF	; 255
    46a4:	0e 94 31 09 	call	0x1262	; 0x1262 <xQueueSemaphoreTake>
	printf("Get HWEUI >%s<: %s\n",lora_driver_map_return_code_to_text(rc), _out_buf);
    46a8:	8a 81       	ldd	r24, Y+2	; 0x02
    46aa:	0e 94 13 30 	call	0x6026	; 0x6026 <lora_driver_map_return_code_to_text>
    46ae:	9c 01       	movw	r18, r24
    46b0:	84 e9       	ldi	r24, 0x94	; 148
    46b2:	98 e0       	ldi	r25, 0x08	; 8
    46b4:	89 2f       	mov	r24, r25
    46b6:	8f 93       	push	r24
    46b8:	84 e9       	ldi	r24, 0x94	; 148
    46ba:	98 e0       	ldi	r25, 0x08	; 8
    46bc:	8f 93       	push	r24
    46be:	83 2f       	mov	r24, r19
    46c0:	8f 93       	push	r24
    46c2:	82 2f       	mov	r24, r18
    46c4:	8f 93       	push	r24
    46c6:	84 e9       	ldi	r24, 0x94	; 148
    46c8:	92 e0       	ldi	r25, 0x02	; 2
    46ca:	89 2f       	mov	r24, r25
    46cc:	8f 93       	push	r24
    46ce:	84 e9       	ldi	r24, 0x94	; 148
    46d0:	92 e0       	ldi	r25, 0x02	; 2
    46d2:	8f 93       	push	r24
    46d4:	0e 94 f7 36 	call	0x6dee	; 0x6dee <printf>
    46d8:	0f 90       	pop	r0
    46da:	0f 90       	pop	r0
    46dc:	0f 90       	pop	r0
    46de:	0f 90       	pop	r0
    46e0:	0f 90       	pop	r0
    46e2:	0f 90       	pop	r0
	xSemaphoreGive(xSemaphore_print);
    46e4:	80 91 6c 0a 	lds	r24, 0x0A6C	; 0x800a6c <xSemaphore_print>
    46e8:	90 91 6d 0a 	lds	r25, 0x0A6D	; 0x800a6d <xSemaphore_print+0x1>
    46ec:	20 e0       	ldi	r18, 0x00	; 0
    46ee:	40 e0       	ldi	r20, 0x00	; 0
    46f0:	50 e0       	ldi	r21, 0x00	; 0
    46f2:	60 e0       	ldi	r22, 0x00	; 0
    46f4:	70 e0       	ldi	r23, 0x00	; 0
    46f6:	0e 94 81 07 	call	0xf02	; 0xf02 <xQueueGenericSend>

	// Set the HWEUI as DevEUI in the LoRaWAN software stack in the transceiver
	xSemaphoreTake(xSemaphore_print,portMAX_DELAY);
    46fa:	80 91 6c 0a 	lds	r24, 0x0A6C	; 0x800a6c <xSemaphore_print>
    46fe:	90 91 6d 0a 	lds	r25, 0x0A6D	; 0x800a6d <xSemaphore_print+0x1>
    4702:	6f ef       	ldi	r22, 0xFF	; 255
    4704:	7f ef       	ldi	r23, 0xFF	; 255
    4706:	0e 94 31 09 	call	0x1262	; 0x1262 <xQueueSemaphoreTake>
	printf("Set DevEUI: %s >%s<\n", _out_buf, lora_driver_map_return_code_to_text(lora_driver_set_device_identifier(_out_buf)));
    470a:	84 e9       	ldi	r24, 0x94	; 148
    470c:	98 e0       	ldi	r25, 0x08	; 8
    470e:	0e 94 19 2e 	call	0x5c32	; 0x5c32 <lora_driver_set_device_identifier>
    4712:	0e 94 13 30 	call	0x6026	; 0x6026 <lora_driver_map_return_code_to_text>
    4716:	29 2f       	mov	r18, r25
    4718:	2f 93       	push	r18
    471a:	8f 93       	push	r24
    471c:	84 e9       	ldi	r24, 0x94	; 148
    471e:	98 e0       	ldi	r25, 0x08	; 8
    4720:	89 2f       	mov	r24, r25
    4722:	8f 93       	push	r24
    4724:	84 e9       	ldi	r24, 0x94	; 148
    4726:	98 e0       	ldi	r25, 0x08	; 8
    4728:	8f 93       	push	r24
    472a:	88 ea       	ldi	r24, 0xA8	; 168
    472c:	92 e0       	ldi	r25, 0x02	; 2
    472e:	89 2f       	mov	r24, r25
    4730:	8f 93       	push	r24
    4732:	88 ea       	ldi	r24, 0xA8	; 168
    4734:	92 e0       	ldi	r25, 0x02	; 2
    4736:	8f 93       	push	r24
    4738:	0e 94 f7 36 	call	0x6dee	; 0x6dee <printf>
    473c:	0f 90       	pop	r0
    473e:	0f 90       	pop	r0
    4740:	0f 90       	pop	r0
    4742:	0f 90       	pop	r0
    4744:	0f 90       	pop	r0
    4746:	0f 90       	pop	r0
	xSemaphoreGive(xSemaphore_print);
    4748:	80 91 6c 0a 	lds	r24, 0x0A6C	; 0x800a6c <xSemaphore_print>
    474c:	90 91 6d 0a 	lds	r25, 0x0A6D	; 0x800a6d <xSemaphore_print+0x1>
    4750:	20 e0       	ldi	r18, 0x00	; 0
    4752:	40 e0       	ldi	r20, 0x00	; 0
    4754:	50 e0       	ldi	r21, 0x00	; 0
    4756:	60 e0       	ldi	r22, 0x00	; 0
    4758:	70 e0       	ldi	r23, 0x00	; 0
    475a:	0e 94 81 07 	call	0xf02	; 0xf02 <xQueueGenericSend>
	
	// Set Over The Air Activation parameters to be ready to join the LoRaWAN
	xSemaphoreTake(xSemaphore_print,portMAX_DELAY);
    475e:	80 91 6c 0a 	lds	r24, 0x0A6C	; 0x800a6c <xSemaphore_print>
    4762:	90 91 6d 0a 	lds	r25, 0x0A6D	; 0x800a6d <xSemaphore_print+0x1>
    4766:	6f ef       	ldi	r22, 0xFF	; 255
    4768:	7f ef       	ldi	r23, 0xFF	; 255
    476a:	0e 94 31 09 	call	0x1262	; 0x1262 <xQueueSemaphoreTake>
	printf("Set OTAA Identity appEUI:%s appKEY:%s devEUI:%s >%s<\n", LORA_appEUI, LORA_appKEY, _out_buf, lora_driver_map_return_code_to_text(lora_driver_set_otaa_identity(LORA_appEUI,LORA_appKEY,_out_buf)));
    476e:	44 e9       	ldi	r20, 0x94	; 148
    4770:	58 e0       	ldi	r21, 0x08	; 8
    4772:	6d eb       	ldi	r22, 0xBD	; 189
    4774:	72 e0       	ldi	r23, 0x02	; 2
    4776:	8e ed       	ldi	r24, 0xDE	; 222
    4778:	92 e0       	ldi	r25, 0x02	; 2
    477a:	0e 94 f2 2f 	call	0x5fe4	; 0x5fe4 <lora_driver_set_otaa_identity>
    477e:	0e 94 13 30 	call	0x6026	; 0x6026 <lora_driver_map_return_code_to_text>
    4782:	29 2f       	mov	r18, r25
    4784:	2f 93       	push	r18
    4786:	8f 93       	push	r24
    4788:	84 e9       	ldi	r24, 0x94	; 148
    478a:	98 e0       	ldi	r25, 0x08	; 8
    478c:	89 2f       	mov	r24, r25
    478e:	8f 93       	push	r24
    4790:	84 e9       	ldi	r24, 0x94	; 148
    4792:	98 e0       	ldi	r25, 0x08	; 8
    4794:	8f 93       	push	r24
    4796:	8d eb       	ldi	r24, 0xBD	; 189
    4798:	92 e0       	ldi	r25, 0x02	; 2
    479a:	89 2f       	mov	r24, r25
    479c:	8f 93       	push	r24
    479e:	8d eb       	ldi	r24, 0xBD	; 189
    47a0:	92 e0       	ldi	r25, 0x02	; 2
    47a2:	8f 93       	push	r24
    47a4:	8e ed       	ldi	r24, 0xDE	; 222
    47a6:	92 e0       	ldi	r25, 0x02	; 2
    47a8:	89 2f       	mov	r24, r25
    47aa:	8f 93       	push	r24
    47ac:	8e ed       	ldi	r24, 0xDE	; 222
    47ae:	92 e0       	ldi	r25, 0x02	; 2
    47b0:	8f 93       	push	r24
    47b2:	8f ee       	ldi	r24, 0xEF	; 239
    47b4:	92 e0       	ldi	r25, 0x02	; 2
    47b6:	89 2f       	mov	r24, r25
    47b8:	8f 93       	push	r24
    47ba:	8f ee       	ldi	r24, 0xEF	; 239
    47bc:	92 e0       	ldi	r25, 0x02	; 2
    47be:	8f 93       	push	r24
    47c0:	0e 94 f7 36 	call	0x6dee	; 0x6dee <printf>
    47c4:	8d b7       	in	r24, 0x3d	; 61
    47c6:	9e b7       	in	r25, 0x3e	; 62
    47c8:	0a 96       	adiw	r24, 0x0a	; 10
    47ca:	0f b6       	in	r0, 0x3f	; 63
    47cc:	f8 94       	cli
    47ce:	de bf       	out	0x3e, r29	; 62
    47d0:	0f be       	out	0x3f, r0	; 63
    47d2:	cd bf       	out	0x3d, r28	; 61
	xSemaphoreGive(xSemaphore_print);
    47d4:	80 91 6c 0a 	lds	r24, 0x0A6C	; 0x800a6c <xSemaphore_print>
    47d8:	90 91 6d 0a 	lds	r25, 0x0A6D	; 0x800a6d <xSemaphore_print+0x1>
    47dc:	20 e0       	ldi	r18, 0x00	; 0
    47de:	40 e0       	ldi	r20, 0x00	; 0
    47e0:	50 e0       	ldi	r21, 0x00	; 0
    47e2:	60 e0       	ldi	r22, 0x00	; 0
    47e4:	70 e0       	ldi	r23, 0x00	; 0
    47e6:	0e 94 81 07 	call	0xf02	; 0xf02 <xQueueGenericSend>

	// Save all the MAC settings in the transceiver
	xSemaphoreTake(xSemaphore_print,portMAX_DELAY);
    47ea:	80 91 6c 0a 	lds	r24, 0x0A6C	; 0x800a6c <xSemaphore_print>
    47ee:	90 91 6d 0a 	lds	r25, 0x0A6D	; 0x800a6d <xSemaphore_print+0x1>
    47f2:	6f ef       	ldi	r22, 0xFF	; 255
    47f4:	7f ef       	ldi	r23, 0xFF	; 255
    47f6:	0e 94 31 09 	call	0x1262	; 0x1262 <xQueueSemaphoreTake>
	printf("Save mac >%s<\n",lora_driver_map_return_code_to_text(lora_driver_save_mac()));
    47fa:	0e 94 4c 2e 	call	0x5c98	; 0x5c98 <lora_driver_save_mac>
    47fe:	0e 94 13 30 	call	0x6026	; 0x6026 <lora_driver_map_return_code_to_text>
    4802:	29 2f       	mov	r18, r25
    4804:	2f 93       	push	r18
    4806:	8f 93       	push	r24
    4808:	85 e2       	ldi	r24, 0x25	; 37
    480a:	93 e0       	ldi	r25, 0x03	; 3
    480c:	89 2f       	mov	r24, r25
    480e:	8f 93       	push	r24
    4810:	85 e2       	ldi	r24, 0x25	; 37
    4812:	93 e0       	ldi	r25, 0x03	; 3
    4814:	8f 93       	push	r24
    4816:	0e 94 f7 36 	call	0x6dee	; 0x6dee <printf>
    481a:	0f 90       	pop	r0
    481c:	0f 90       	pop	r0
    481e:	0f 90       	pop	r0
    4820:	0f 90       	pop	r0
	xSemaphoreGive(xSemaphore_print);
    4822:	80 91 6c 0a 	lds	r24, 0x0A6C	; 0x800a6c <xSemaphore_print>
    4826:	90 91 6d 0a 	lds	r25, 0x0A6D	; 0x800a6d <xSemaphore_print+0x1>
    482a:	20 e0       	ldi	r18, 0x00	; 0
    482c:	40 e0       	ldi	r20, 0x00	; 0
    482e:	50 e0       	ldi	r21, 0x00	; 0
    4830:	60 e0       	ldi	r22, 0x00	; 0
    4832:	70 e0       	ldi	r23, 0x00	; 0
    4834:	0e 94 81 07 	call	0xf02	; 0xf02 <xQueueGenericSend>

	// Enable Adaptive Data Rate
	xSemaphoreTake(xSemaphore_print,portMAX_DELAY);
    4838:	80 91 6c 0a 	lds	r24, 0x0A6C	; 0x800a6c <xSemaphore_print>
    483c:	90 91 6d 0a 	lds	r25, 0x0A6D	; 0x800a6d <xSemaphore_print+0x1>
    4840:	6f ef       	ldi	r22, 0xFF	; 255
    4842:	7f ef       	ldi	r23, 0xFF	; 255
    4844:	0e 94 31 09 	call	0x1262	; 0x1262 <xQueueSemaphoreTake>
	printf("Set Adaptive Data Rate: ON >%s<\n", lora_driver_map_return_code_to_text(lora_driver_set_adaptive_data_rate(LoRa_ON)));
    4848:	81 e0       	ldi	r24, 0x01	; 1
    484a:	0e 94 0d 2f 	call	0x5e1a	; 0x5e1a <lora_driver_set_adaptive_data_rate>
    484e:	0e 94 13 30 	call	0x6026	; 0x6026 <lora_driver_map_return_code_to_text>
    4852:	29 2f       	mov	r18, r25
    4854:	2f 93       	push	r18
    4856:	8f 93       	push	r24
    4858:	84 e3       	ldi	r24, 0x34	; 52
    485a:	93 e0       	ldi	r25, 0x03	; 3
    485c:	89 2f       	mov	r24, r25
    485e:	8f 93       	push	r24
    4860:	84 e3       	ldi	r24, 0x34	; 52
    4862:	93 e0       	ldi	r25, 0x03	; 3
    4864:	8f 93       	push	r24
    4866:	0e 94 f7 36 	call	0x6dee	; 0x6dee <printf>
    486a:	0f 90       	pop	r0
    486c:	0f 90       	pop	r0
    486e:	0f 90       	pop	r0
    4870:	0f 90       	pop	r0
	xSemaphoreGive(xSemaphore_print);
    4872:	80 91 6c 0a 	lds	r24, 0x0A6C	; 0x800a6c <xSemaphore_print>
    4876:	90 91 6d 0a 	lds	r25, 0x0A6D	; 0x800a6d <xSemaphore_print+0x1>
    487a:	20 e0       	ldi	r18, 0x00	; 0
    487c:	40 e0       	ldi	r20, 0x00	; 0
    487e:	50 e0       	ldi	r21, 0x00	; 0
    4880:	60 e0       	ldi	r22, 0x00	; 0
    4882:	70 e0       	ldi	r23, 0x00	; 0
    4884:	0e 94 81 07 	call	0xf02	; 0xf02 <xQueueGenericSend>
	
	// Join the LoRaWAN
	uint8_t maxJoinTriesLeft = 5;
    4888:	85 e0       	ldi	r24, 0x05	; 5
    488a:	89 83       	std	Y+1, r24	; 0x01
	do {
		rc = lora_driver_join(LoRa_OTAA);
    488c:	80 e0       	ldi	r24, 0x00	; 0
    488e:	0e 94 52 2e 	call	0x5ca4	; 0x5ca4 <lora_driver_join>
    4892:	8a 83       	std	Y+2, r24	; 0x02
		printf("Join Network Tries Left:%d >%s<\n", maxJoinTriesLeft, lora_driver_map_return_code_to_text(rc));
    4894:	8a 81       	ldd	r24, Y+2	; 0x02
    4896:	0e 94 13 30 	call	0x6026	; 0x6026 <lora_driver_map_return_code_to_text>
    489a:	9c 01       	movw	r18, r24
    489c:	89 81       	ldd	r24, Y+1	; 0x01
    489e:	88 2f       	mov	r24, r24
    48a0:	90 e0       	ldi	r25, 0x00	; 0
    48a2:	43 2f       	mov	r20, r19
    48a4:	4f 93       	push	r20
    48a6:	2f 93       	push	r18
    48a8:	29 2f       	mov	r18, r25
    48aa:	2f 93       	push	r18
    48ac:	8f 93       	push	r24
    48ae:	85 e5       	ldi	r24, 0x55	; 85
    48b0:	93 e0       	ldi	r25, 0x03	; 3
    48b2:	89 2f       	mov	r24, r25
    48b4:	8f 93       	push	r24
    48b6:	85 e5       	ldi	r24, 0x55	; 85
    48b8:	93 e0       	ldi	r25, 0x03	; 3
    48ba:	8f 93       	push	r24
    48bc:	0e 94 f7 36 	call	0x6dee	; 0x6dee <printf>
    48c0:	0f 90       	pop	r0
    48c2:	0f 90       	pop	r0
    48c4:	0f 90       	pop	r0
    48c6:	0f 90       	pop	r0
    48c8:	0f 90       	pop	r0
    48ca:	0f 90       	pop	r0

		if ( rc != LoRa_ACCEPTED)
    48cc:	8a 81       	ldd	r24, Y+2	; 0x02
    48ce:	88 30       	cpi	r24, 0x08	; 8
    48d0:	71 f0       	breq	.+28     	; 0x48ee <lora_setup+0x30e>
		{
			// Make the red led pulse to tell something went wrong
			led_long_puls(led_ST1); // OPTIONAL
    48d2:	80 e0       	ldi	r24, 0x00	; 0
    48d4:	0e 94 94 2c 	call	0x5928	; 0x5928 <led_long_puls>
			// Wait 5 sec and lets try again
			vTaskDelay(5000/portTICK_PERIOD_MS);
    48d8:	88 e3       	ldi	r24, 0x38	; 56
    48da:	91 e0       	ldi	r25, 0x01	; 1
    48dc:	0e 94 b0 12 	call	0x2560	; 0x2560 <vTaskDelay>
		}
		else
		{
			break;
		}
	} while (--maxJoinTriesLeft);
    48e0:	89 81       	ldd	r24, Y+1	; 0x01
    48e2:	81 50       	subi	r24, 0x01	; 1
    48e4:	89 83       	std	Y+1, r24	; 0x01
    48e6:	89 81       	ldd	r24, Y+1	; 0x01
    48e8:	88 23       	and	r24, r24
    48ea:	81 f6       	brne	.-96     	; 0x488c <lora_setup+0x2ac>
    48ec:	01 c0       	rjmp	.+2      	; 0x48f0 <lora_setup+0x310>
			// Wait 5 sec and lets try again
			vTaskDelay(5000/portTICK_PERIOD_MS);
		}
		else
		{
			break;
    48ee:	00 00       	nop
		}
	} while (--maxJoinTriesLeft);

	if (rc == LoRa_ACCEPTED)
    48f0:	8a 81       	ldd	r24, Y+2	; 0x02
    48f2:	88 30       	cpi	r24, 0x08	; 8
    48f4:	19 f4       	brne	.+6      	; 0x48fc <lora_setup+0x31c>
	{
		// Connected to LoRaWAN :-)
		// Make the green led steady
		led_led_on(led_ST2); // OPTIONAL
    48f6:	81 e0       	ldi	r24, 0x01	; 1
    48f8:	f9 d7       	rcall	.+4082   	; 0x58ec <led_led_on>
		while (1)
		{
			taskYIELD();
		}
	}
    48fa:	08 c0       	rjmp	.+16     	; 0x490c <lora_setup+0x32c>
	}
	else
	{
		// Something went wrong
		// Turn off the green led
		led_led_off(led_ST2); // OPTIONAL
    48fc:	81 e0       	ldi	r24, 0x01	; 1
    48fe:	0e 94 85 2c 	call	0x590a	; 0x590a <led_led_off>
		// Make the red led blink fast to tell something went wrong
		led_fast_blink(led_ST1); // OPTIONAL
    4902:	80 e0       	ldi	r24, 0x00	; 0
    4904:	cc d7       	rcall	.+3992   	; 0x589e <led_fast_blink>

		// Lets stay here
		while (1)
		{
			taskYIELD();
    4906:	0e 94 2b 05 	call	0xa56	; 0xa56 <vPortYield>
		}
    490a:	fd cf       	rjmp	.-6      	; 0x4906 <lora_setup+0x326>
	}
    490c:	0f 90       	pop	r0
    490e:	0f 90       	pop	r0
    4910:	df 91       	pop	r29
    4912:	cf 91       	pop	r28
    4914:	08 95       	ret

00004916 <global_init>:
SemaphoreHandle_t xSemaphore_temperature;
SemaphoreHandle_t xSemaphore_send_data;
SemaphoreHandle_t xSemaphore_buffer;

void global_init()
{
    4916:	cf 93       	push	r28
    4918:	df 93       	push	r29
    491a:	cd b7       	in	r28, 0x3d	; 61
    491c:	de b7       	in	r29, 0x3e	; 62
	stdioCreate(0);
    491e:	80 e0       	ldi	r24, 0x00	; 0
    4920:	e1 d1       	rcall	.+962    	; 0x4ce4 <stdioCreate>
	
	sei(); // enables interrupts
    4922:	78 94       	sei
	
	xSemaphore_print = xSemaphoreCreateBinary();
    4924:	43 e0       	ldi	r20, 0x03	; 3
    4926:	60 e0       	ldi	r22, 0x00	; 0
    4928:	81 e0       	ldi	r24, 0x01	; 1
    492a:	0e 94 a9 06 	call	0xd52	; 0xd52 <xQueueGenericCreate>
    492e:	90 93 6d 0a 	sts	0x0A6D, r25	; 0x800a6d <xSemaphore_print+0x1>
    4932:	80 93 6c 0a 	sts	0x0A6C, r24	; 0x800a6c <xSemaphore_print>
	
	xSemaphore_co2 = xSemaphoreCreateMutex();
    4936:	81 e0       	ldi	r24, 0x01	; 1
    4938:	0e 94 63 07 	call	0xec6	; 0xec6 <xQueueCreateMutex>
    493c:	90 93 73 0a 	sts	0x0A73, r25	; 0x800a73 <xSemaphore_co2+0x1>
    4940:	80 93 72 0a 	sts	0x0A72, r24	; 0x800a72 <xSemaphore_co2>
	xSemaphore_temperature = xSemaphoreCreateMutex();
    4944:	81 e0       	ldi	r24, 0x01	; 1
    4946:	0e 94 63 07 	call	0xec6	; 0xec6 <xQueueCreateMutex>
    494a:	90 93 71 0a 	sts	0x0A71, r25	; 0x800a71 <xSemaphore_temperature+0x1>
    494e:	80 93 70 0a 	sts	0x0A70, r24	; 0x800a70 <xSemaphore_temperature>
	xSemaphore_send_data = xSemaphoreCreateMutex();
    4952:	81 e0       	ldi	r24, 0x01	; 1
    4954:	0e 94 63 07 	call	0xec6	; 0xec6 <xQueueCreateMutex>
    4958:	90 93 75 0a 	sts	0x0A75, r25	; 0x800a75 <xSemaphore_send_data+0x1>
    495c:	80 93 74 0a 	sts	0x0A74, r24	; 0x800a74 <xSemaphore_send_data>
	xSemaphore_buffer = xSemaphoreCreateMutex();
    4960:	81 e0       	ldi	r24, 0x01	; 1
    4962:	0e 94 63 07 	call	0xec6	; 0xec6 <xQueueCreateMutex>
    4966:	90 93 6f 0a 	sts	0x0A6F, r25	; 0x800a6f <xSemaphore_buffer+0x1>
    496a:	80 93 6e 0a 	sts	0x0A6E, r24	; 0x800a6e <xSemaphore_buffer>
	
	xSemaphoreGive(xSemaphore_print);
    496e:	80 91 6c 0a 	lds	r24, 0x0A6C	; 0x800a6c <xSemaphore_print>
    4972:	90 91 6d 0a 	lds	r25, 0x0A6D	; 0x800a6d <xSemaphore_print+0x1>
    4976:	20 e0       	ldi	r18, 0x00	; 0
    4978:	40 e0       	ldi	r20, 0x00	; 0
    497a:	50 e0       	ldi	r21, 0x00	; 0
    497c:	60 e0       	ldi	r22, 0x00	; 0
    497e:	70 e0       	ldi	r23, 0x00	; 0
    4980:	0e 94 81 07 	call	0xf02	; 0xf02 <xQueueGenericSend>
	
	xQueue = xQueueCreate(2,sizeof (m_data));
    4984:	40 e0       	ldi	r20, 0x00	; 0
    4986:	64 e0       	ldi	r22, 0x04	; 4
    4988:	82 e0       	ldi	r24, 0x02	; 2
    498a:	0e 94 a9 06 	call	0xd52	; 0xd52 <xQueueGenericCreate>
    498e:	90 93 77 0a 	sts	0x0A77, r25	; 0x800a77 <xQueue+0x1>
    4992:	80 93 76 0a 	sts	0x0A76, r24	; 0x800a76 <xQueue>
	
	/*
		Initialize LoRa Driver
	*/

	hal_create(LED_TASK_PRIORITY);
    4996:	82 e0       	ldi	r24, 0x02	; 2
    4998:	76 d5       	rcall	.+2796   	; 0x5486 <hal_create>
	lora_driver_create(ser_USART1);
    499a:	81 e0       	ldi	r24, 0x01	; 1
    499c:	0e 94 9b 2d 	call	0x5b36	; 0x5b36 <lora_driver_create>
	m_print("LoRa driver created.\n",xSemaphore_print);
    49a0:	80 91 6c 0a 	lds	r24, 0x0A6C	; 0x800a6c <xSemaphore_print>
    49a4:	90 91 6d 0a 	lds	r25, 0x0A6D	; 0x800a6d <xSemaphore_print+0x1>
    49a8:	bc 01       	movw	r22, r24
    49aa:	86 e7       	ldi	r24, 0x76	; 118
    49ac:	93 e0       	ldi	r25, 0x03	; 3
	
	/*
		Initialize the Temperature Driver
	*/
	if ( HIH8120_OK == hih8120Create() )
    49ae:	88 dd       	rcall	.-1264   	; 0x44c0 <m_print>
    49b0:	c9 d5       	rcall	.+2962   	; 0x5544 <hih8120Create>
    49b2:	88 23       	and	r24, r24
    49b4:	41 f4       	brne	.+16     	; 0x49c6 <global_init+0xb0>
	{
		m_print("Temp/Humidity driver created.\n",xSemaphore_print);
    49b6:	80 91 6c 0a 	lds	r24, 0x0A6C	; 0x800a6c <xSemaphore_print>
    49ba:	90 91 6d 0a 	lds	r25, 0x0A6D	; 0x800a6d <xSemaphore_print+0x1>
    49be:	bc 01       	movw	r22, r24
    49c0:	8c e8       	ldi	r24, 0x8C	; 140
    49c2:	93 e0       	ldi	r25, 0x03	; 3
    49c4:	7d dd       	rcall	.-1286   	; 0x44c0 <m_print>
	}
	
	/* 
		Initialize MH-Z19 CO2 Driver
	*/
	mh_z19_create(ser_USART3, measure_co2_callback);
    49c6:	69 e1       	ldi	r22, 0x19	; 25
    49c8:	71 e0       	ldi	r23, 0x01	; 1
    49ca:	83 e0       	ldi	r24, 0x03	; 3
    49cc:	0e 94 3c 31 	call	0x6278	; 0x6278 <mh_z19_create>
	m_print("CO2 driver created.\n",xSemaphore_print);
    49d0:	80 91 6c 0a 	lds	r24, 0x0A6C	; 0x800a6c <xSemaphore_print>
    49d4:	90 91 6d 0a 	lds	r25, 0x0A6D	; 0x800a6d <xSemaphore_print+0x1>
    49d8:	bc 01       	movw	r22, r24
    49da:	8b ea       	ldi	r24, 0xAB	; 171
    49dc:	93 e0       	ldi	r25, 0x03	; 3
    49de:	70 dd       	rcall	.-1312   	; 0x44c0 <m_print>
	
}
    49e0:	00 00       	nop
    49e2:	df 91       	pop	r29
    49e4:	cf 91       	pop	r28
    49e6:	08 95       	ret

000049e8 <lora_send_data_task>:

/*
	Task that sends data to the server
*/
void lora_send_data_task(void *pvParameters)
{
    49e8:	cf 93       	push	r28
    49ea:	df 93       	push	r29
    49ec:	00 d0       	rcall	.+0      	; 0x49ee <lora_send_data_task+0x6>
    49ee:	00 d0       	rcall	.+0      	; 0x49f0 <lora_send_data_task+0x8>
    49f0:	cd b7       	in	r28, 0x3d	; 61
    49f2:	de b7       	in	r29, 0x3e	; 62
    49f4:	9e 83       	std	Y+6, r25	; 0x06
    49f6:	8d 83       	std	Y+5, r24	; 0x05
	m_data data;

	lora_reset();
    49f8:	da dd       	rcall	.-1100   	; 0x45ae <lora_reset>

	_uplink_payload.len = 4;
    49fa:	84 e0       	ldi	r24, 0x04	; 4
    49fc:	80 93 f9 08 	sts	0x08F9, r24	; 0x8008f9 <_uplink_payload+0x1>
	_uplink_payload.port_no = 2;
    4a00:	82 e0       	ldi	r24, 0x02	; 2
    4a02:	80 93 f8 08 	sts	0x08F8, r24	; 0x8008f8 <_uplink_payload>


	while (1)
	{
		//vTaskDelay(1000/portTICK_PERIOD_MS);
		xSemaphoreTake(xSemaphore_send_data, portMAX_DELAY);
    4a06:	80 91 74 0a 	lds	r24, 0x0A74	; 0x800a74 <xSemaphore_send_data>
    4a0a:	90 91 75 0a 	lds	r25, 0x0A75	; 0x800a75 <xSemaphore_send_data+0x1>
    4a0e:	6f ef       	ldi	r22, 0xFF	; 255
    4a10:	7f ef       	ldi	r23, 0xFF	; 255
    4a12:	0e 94 31 09 	call	0x1262	; 0x1262 <xQueueSemaphoreTake>

		vTaskDelay(1000/portTICK_PERIOD_MS);
    4a16:	8e e3       	ldi	r24, 0x3E	; 62
    4a18:	90 e0       	ldi	r25, 0x00	; 0
    4a1a:	0e 94 b0 12 	call	0x2560	; 0x2560 <vTaskDelay>

		if (xQueueReceive(xQueue, &(data), 0) != pdTRUE)
    4a1e:	80 91 76 0a 	lds	r24, 0x0A76	; 0x800a76 <xQueue>
    4a22:	90 91 77 0a 	lds	r25, 0x0A77	; 0x800a77 <xQueue+0x1>
    4a26:	40 e0       	ldi	r20, 0x00	; 0
    4a28:	50 e0       	ldi	r21, 0x00	; 0
    4a2a:	9e 01       	movw	r18, r28
    4a2c:	2f 5f       	subi	r18, 0xFF	; 255
    4a2e:	3f 4f       	sbci	r19, 0xFF	; 255
    4a30:	b9 01       	movw	r22, r18
    4a32:	0e 94 88 08 	call	0x1110	; 0x1110 <xQueueReceive>
    4a36:	81 30       	cpi	r24, 0x01	; 1
    4a38:	49 f0       	breq	.+18     	; 0x4a4c <lora_send_data_task+0x64>
		{
			m_print("Unable to receive data from queue!\n",xSemaphore_print);
    4a3a:	80 91 6c 0a 	lds	r24, 0x0A6C	; 0x800a6c <xSemaphore_print>
    4a3e:	90 91 6d 0a 	lds	r25, 0x0A6D	; 0x800a6d <xSemaphore_print+0x1>
    4a42:	bc 01       	movw	r22, r24
    4a44:	80 ec       	ldi	r24, 0xC0	; 192
    4a46:	93 e0       	ldi	r25, 0x03	; 3
    4a48:	3b dd       	rcall	.-1418   	; 0x44c0 <m_print>
    4a4a:	dd cf       	rjmp	.-70     	; 0x4a06 <lora_send_data_task+0x1e>
		}
		else 
		{	
			xSemaphoreTake(xSemaphore_print,portMAX_DELAY);
    4a4c:	80 91 6c 0a 	lds	r24, 0x0A6C	; 0x800a6c <xSemaphore_print>
    4a50:	90 91 6d 0a 	lds	r25, 0x0A6D	; 0x800a6d <xSemaphore_print+0x1>
    4a54:	6f ef       	ldi	r22, 0xFF	; 255
    4a56:	7f ef       	ldi	r23, 0xFF	; 255
    4a58:	0e 94 31 09 	call	0x1262	; 0x1262 <xQueueSemaphoreTake>
			printf("Received measurement for sending: type: %d, val: %d\n\n",data.type, data.value);
    4a5c:	2b 81       	ldd	r18, Y+3	; 0x03
    4a5e:	3c 81       	ldd	r19, Y+4	; 0x04
    4a60:	89 81       	ldd	r24, Y+1	; 0x01
    4a62:	9a 81       	ldd	r25, Y+2	; 0x02
    4a64:	43 2f       	mov	r20, r19
    4a66:	4f 93       	push	r20
    4a68:	2f 93       	push	r18
    4a6a:	29 2f       	mov	r18, r25
    4a6c:	2f 93       	push	r18
    4a6e:	8f 93       	push	r24
    4a70:	84 ee       	ldi	r24, 0xE4	; 228
    4a72:	93 e0       	ldi	r25, 0x03	; 3
    4a74:	89 2f       	mov	r24, r25
    4a76:	8f 93       	push	r24
    4a78:	84 ee       	ldi	r24, 0xE4	; 228
    4a7a:	93 e0       	ldi	r25, 0x03	; 3
    4a7c:	8f 93       	push	r24
    4a7e:	0e 94 f7 36 	call	0x6dee	; 0x6dee <printf>
    4a82:	0f 90       	pop	r0
    4a84:	0f 90       	pop	r0
    4a86:	0f 90       	pop	r0
    4a88:	0f 90       	pop	r0
    4a8a:	0f 90       	pop	r0
    4a8c:	0f 90       	pop	r0
			xSemaphoreGive(xSemaphore_print);
    4a8e:	80 91 6c 0a 	lds	r24, 0x0A6C	; 0x800a6c <xSemaphore_print>
    4a92:	90 91 6d 0a 	lds	r25, 0x0A6D	; 0x800a6d <xSemaphore_print+0x1>
    4a96:	20 e0       	ldi	r18, 0x00	; 0
    4a98:	40 e0       	ldi	r20, 0x00	; 0
    4a9a:	50 e0       	ldi	r21, 0x00	; 0
    4a9c:	60 e0       	ldi	r22, 0x00	; 0
    4a9e:	70 e0       	ldi	r23, 0x00	; 0
    4aa0:	0e 94 81 07 	call	0xf02	; 0xf02 <xQueueGenericSend>
			
			_uplink_payload.bytes[0] = data.type >> 8;
    4aa4:	89 81       	ldd	r24, Y+1	; 0x01
    4aa6:	9a 81       	ldd	r25, Y+2	; 0x02
    4aa8:	89 2f       	mov	r24, r25
    4aaa:	99 0f       	add	r25, r25
    4aac:	99 0b       	sbc	r25, r25
    4aae:	80 93 fa 08 	sts	0x08FA, r24	; 0x8008fa <_uplink_payload+0x2>
			_uplink_payload.bytes[1] = data.type & 0xFF;
    4ab2:	89 81       	ldd	r24, Y+1	; 0x01
    4ab4:	9a 81       	ldd	r25, Y+2	; 0x02
    4ab6:	80 93 fb 08 	sts	0x08FB, r24	; 0x8008fb <_uplink_payload+0x3>
			_uplink_payload.bytes[2] = data.value >> 8;
    4aba:	8b 81       	ldd	r24, Y+3	; 0x03
    4abc:	9c 81       	ldd	r25, Y+4	; 0x04
    4abe:	89 2f       	mov	r24, r25
    4ac0:	99 0f       	add	r25, r25
    4ac2:	99 0b       	sbc	r25, r25
    4ac4:	80 93 fc 08 	sts	0x08FC, r24	; 0x8008fc <_uplink_payload+0x4>
			_uplink_payload.bytes[3] = data.value & 0xFF;
    4ac8:	8b 81       	ldd	r24, Y+3	; 0x03
    4aca:	9c 81       	ldd	r25, Y+4	; 0x04
    4acc:	80 93 fd 08 	sts	0x08FD, r24	; 0x8008fd <_uplink_payload+0x5>

			led_short_puls(led_ST4);  
    4ad0:	83 e0       	ldi	r24, 0x03	; 3
    4ad2:	3c d7       	rcall	.+3704   	; 0x594c <led_short_puls>
			printf("Upload Message >%s<\n", lora_driver_map_return_code_to_text(lora_driver_sent_upload_message(true, &_uplink_payload)));
    4ad4:	68 ef       	ldi	r22, 0xF8	; 248
    4ad6:	78 e0       	ldi	r23, 0x08	; 8
    4ad8:	81 e0       	ldi	r24, 0x01	; 1
    4ada:	0e 94 75 2e 	call	0x5cea	; 0x5cea <lora_driver_sent_upload_message>
    4ade:	0e 94 13 30 	call	0x6026	; 0x6026 <lora_driver_map_return_code_to_text>
    4ae2:	29 2f       	mov	r18, r25
    4ae4:	2f 93       	push	r18
    4ae6:	8f 93       	push	r24
    4ae8:	8a e1       	ldi	r24, 0x1A	; 26
    4aea:	94 e0       	ldi	r25, 0x04	; 4
    4aec:	89 2f       	mov	r24, r25
    4aee:	8f 93       	push	r24
    4af0:	8a e1       	ldi	r24, 0x1A	; 26
    4af2:	94 e0       	ldi	r25, 0x04	; 4
    4af4:	8f 93       	push	r24
    4af6:	0e 94 f7 36 	call	0x6dee	; 0x6dee <printf>
    4afa:	0f 90       	pop	r0
    4afc:	0f 90       	pop	r0
    4afe:	0f 90       	pop	r0
    4b00:	0f 90       	pop	r0
		}
	}
    4b02:	81 cf       	rjmp	.-254    	; 0x4a06 <lora_send_data_task+0x1e>

00004b04 <measure_co2_task>:
 */ 
#include "../Headers/m_lora_includes.h"


void measure_co2_task(void *pvParameters)
{
    4b04:	cf 93       	push	r28
    4b06:	df 93       	push	r29
    4b08:	00 d0       	rcall	.+0      	; 0x4b0a <measure_co2_task+0x6>
    4b0a:	00 d0       	rcall	.+0      	; 0x4b0c <measure_co2_task+0x8>
    4b0c:	cd b7       	in	r28, 0x3d	; 61
    4b0e:	de b7       	in	r29, 0x3e	; 62
    4b10:	9e 83       	std	Y+6, r25	; 0x06
    4b12:	8d 83       	std	Y+5, r24	; 0x05
	m_data co2; 
	
	while (1)
	{
		
		xSemaphoreTake(xSemaphore_co2,portMAX_DELAY);
    4b14:	80 91 72 0a 	lds	r24, 0x0A72	; 0x800a72 <xSemaphore_co2>
    4b18:	90 91 73 0a 	lds	r25, 0x0A73	; 0x800a73 <xSemaphore_co2+0x1>
    4b1c:	6f ef       	ldi	r22, 0xFF	; 255
    4b1e:	7f ef       	ldi	r23, 0xFF	; 255
    4b20:	0e 94 31 09 	call	0x1262	; 0x1262 <xQueueSemaphoreTake>
		
		if (mh_z19_take_meassuring() != MHZ19_OK)
    4b24:	0e 94 6b 31 	call	0x62d6	; 0x62d6 <mh_z19_take_meassuring>
    4b28:	88 23       	and	r24, r24
    4b2a:	41 f0       	breq	.+16     	; 0x4b3c <measure_co2_task+0x38>
		{
			m_print("Error measuring CO2 value!\n",xSemaphore_print);
    4b2c:	80 91 6c 0a 	lds	r24, 0x0A6C	; 0x800a6c <xSemaphore_print>
    4b30:	90 91 6d 0a 	lds	r25, 0x0A6D	; 0x800a6d <xSemaphore_print+0x1>
    4b34:	bc 01       	movw	r22, r24
    4b36:	8f e2       	ldi	r24, 0x2F	; 47
    4b38:	94 e0       	ldi	r25, 0x04	; 4
    4b3a:	c2 dc       	rcall	.-1660   	; 0x44c0 <m_print>
		}
	
		vTaskDelay(1000/portTICK_PERIOD_MS);
    4b3c:	8e e3       	ldi	r24, 0x3E	; 62
    4b3e:	90 e0       	ldi	r25, 0x00	; 0
    4b40:	0e 94 b0 12 	call	0x2560	; 0x2560 <vTaskDelay>
		
		co2.type = 1;
    4b44:	81 e0       	ldi	r24, 0x01	; 1
    4b46:	90 e0       	ldi	r25, 0x00	; 0
    4b48:	9a 83       	std	Y+2, r25	; 0x02
    4b4a:	89 83       	std	Y+1, r24	; 0x01
		co2.value = co2_value;
    4b4c:	80 91 68 0a 	lds	r24, 0x0A68	; 0x800a68 <co2_value>
    4b50:	90 91 69 0a 	lds	r25, 0x0A69	; 0x800a69 <co2_value+0x1>
    4b54:	9c 83       	std	Y+4, r25	; 0x04
    4b56:	8b 83       	std	Y+3, r24	; 0x03
		
		xSemaphoreTake(xSemaphore_print,portMAX_DELAY);
    4b58:	80 91 6c 0a 	lds	r24, 0x0A6C	; 0x800a6c <xSemaphore_print>
    4b5c:	90 91 6d 0a 	lds	r25, 0x0A6D	; 0x800a6d <xSemaphore_print+0x1>
    4b60:	6f ef       	ldi	r22, 0xFF	; 255
    4b62:	7f ef       	ldi	r23, 0xFF	; 255
    4b64:	0e 94 31 09 	call	0x1262	; 0x1262 <xQueueSemaphoreTake>
		printf("CO2 in task: %d\n",co2_value);
    4b68:	80 91 68 0a 	lds	r24, 0x0A68	; 0x800a68 <co2_value>
    4b6c:	90 91 69 0a 	lds	r25, 0x0A69	; 0x800a69 <co2_value+0x1>
    4b70:	29 2f       	mov	r18, r25
    4b72:	2f 93       	push	r18
    4b74:	8f 93       	push	r24
    4b76:	8b e4       	ldi	r24, 0x4B	; 75
    4b78:	94 e0       	ldi	r25, 0x04	; 4
    4b7a:	89 2f       	mov	r24, r25
    4b7c:	8f 93       	push	r24
    4b7e:	8b e4       	ldi	r24, 0x4B	; 75
    4b80:	94 e0       	ldi	r25, 0x04	; 4
    4b82:	8f 93       	push	r24
    4b84:	0e 94 f7 36 	call	0x6dee	; 0x6dee <printf>
    4b88:	0f 90       	pop	r0
    4b8a:	0f 90       	pop	r0
    4b8c:	0f 90       	pop	r0
    4b8e:	0f 90       	pop	r0
		xSemaphoreGive(xSemaphore_print);
    4b90:	80 91 6c 0a 	lds	r24, 0x0A6C	; 0x800a6c <xSemaphore_print>
    4b94:	90 91 6d 0a 	lds	r25, 0x0A6D	; 0x800a6d <xSemaphore_print+0x1>
    4b98:	20 e0       	ldi	r18, 0x00	; 0
    4b9a:	40 e0       	ldi	r20, 0x00	; 0
    4b9c:	50 e0       	ldi	r21, 0x00	; 0
    4b9e:	60 e0       	ldi	r22, 0x00	; 0
    4ba0:	70 e0       	ldi	r23, 0x00	; 0
    4ba2:	0e 94 81 07 	call	0xf02	; 0xf02 <xQueueGenericSend>
		
		if (xQueueSend(xQueue, (void *) &co2, portMAX_DELAY) != pdPASS)
    4ba6:	80 91 76 0a 	lds	r24, 0x0A76	; 0x800a76 <xQueue>
    4baa:	90 91 77 0a 	lds	r25, 0x0A77	; 0x800a77 <xQueue+0x1>
    4bae:	20 e0       	ldi	r18, 0x00	; 0
    4bb0:	4f ef       	ldi	r20, 0xFF	; 255
    4bb2:	5f ef       	ldi	r21, 0xFF	; 255
    4bb4:	be 01       	movw	r22, r28
    4bb6:	6f 5f       	subi	r22, 0xFF	; 255
    4bb8:	7f 4f       	sbci	r23, 0xFF	; 255
    4bba:	0e 94 81 07 	call	0xf02	; 0xf02 <xQueueGenericSend>
    4bbe:	81 30       	cpi	r24, 0x01	; 1
    4bc0:	09 f4       	brne	.+2      	; 0x4bc4 <measure_co2_task+0xc0>
    4bc2:	a8 cf       	rjmp	.-176    	; 0x4b14 <measure_co2_task+0x10>
		{
			m_print("Queue is full! Failed to send CO2!\n",xSemaphore_print);
    4bc4:	80 91 6c 0a 	lds	r24, 0x0A6C	; 0x800a6c <xSemaphore_print>
    4bc8:	90 91 6d 0a 	lds	r25, 0x0A6D	; 0x800a6d <xSemaphore_print+0x1>
    4bcc:	bc 01       	movw	r22, r24
    4bce:	8c e5       	ldi	r24, 0x5C	; 92
    4bd0:	94 e0       	ldi	r25, 0x04	; 4
    4bd2:	76 dc       	rcall	.-1812   	; 0x44c0 <m_print>
		}
		
		//vTaskDelay(10000/portTICK_PERIOD_MS);
	}
    4bd4:	9f cf       	rjmp	.-194    	; 0x4b14 <measure_co2_task+0x10>

00004bd6 <measure_temp_task>:
#include "../Headers/m_lora_includes.h"

void lora_reset();

void measure_temp_task(void *pvParameters)
{
    4bd6:	cf 93       	push	r28
    4bd8:	df 93       	push	r29
    4bda:	00 d0       	rcall	.+0      	; 0x4bdc <measure_temp_task+0x6>
    4bdc:	00 d0       	rcall	.+0      	; 0x4bde <measure_temp_task+0x8>
    4bde:	cd b7       	in	r28, 0x3d	; 61
    4be0:	de b7       	in	r29, 0x3e	; 62
    4be2:	9e 83       	std	Y+6, r25	; 0x06
    4be4:	8d 83       	std	Y+5, r24	; 0x05
	m_data temperature; 
	
	while (1)
	{
		xSemaphoreTake(xSemaphore_temperature, portMAX_DELAY);
    4be6:	80 91 70 0a 	lds	r24, 0x0A70	; 0x800a70 <xSemaphore_temperature>
    4bea:	90 91 71 0a 	lds	r25, 0x0A71	; 0x800a71 <xSemaphore_temperature+0x1>
    4bee:	6f ef       	ldi	r22, 0xFF	; 255
    4bf0:	7f ef       	ldi	r23, 0xFF	; 255
    4bf2:	0e 94 31 09 	call	0x1262	; 0x1262 <xQueueSemaphoreTake>

		if ( HIH8120_OK != hih8120Wakeup() )
    4bf6:	bd d4       	rcall	.+2426   	; 0x5572 <hih8120Wakeup>
    4bf8:	88 23       	and	r24, r24
    4bfa:	41 f0       	breq	.+16     	; 0x4c0c <measure_temp_task+0x36>
		{
			m_print("Error in waking up the sensors!",xSemaphore_print);
    4bfc:	80 91 6c 0a 	lds	r24, 0x0A6C	; 0x800a6c <xSemaphore_print>
    4c00:	90 91 6d 0a 	lds	r25, 0x0A6D	; 0x800a6d <xSemaphore_print+0x1>
    4c04:	bc 01       	movw	r22, r24
    4c06:	80 e8       	ldi	r24, 0x80	; 128
    4c08:	94 e0       	ldi	r25, 0x04	; 4
    4c0a:	5a dc       	rcall	.-1868   	; 0x44c0 <m_print>
		}
		
		vTaskDelay(100/portTICK_PERIOD_MS);
    4c0c:	86 e0       	ldi	r24, 0x06	; 6
    4c0e:	90 e0       	ldi	r25, 0x00	; 0
    4c10:	0e 94 b0 12 	call	0x2560	; 0x2560 <vTaskDelay>
		
	
		if ( HIH8120_OK !=  hih8120Meassure() )
    4c14:	c2 d4       	rcall	.+2436   	; 0x559a <hih8120Meassure>
    4c16:	88 23       	and	r24, r24
    4c18:	49 f0       	breq	.+18     	; 0x4c2c <measure_temp_task+0x56>
		{
			m_print("Error in measuring the temperature!",xSemaphore_print);			
    4c1a:	80 91 6c 0a 	lds	r24, 0x0A6C	; 0x800a6c <xSemaphore_print>
    4c1e:	90 91 6d 0a 	lds	r25, 0x0A6D	; 0x800a6d <xSemaphore_print+0x1>
    4c22:	bc 01       	movw	r22, r24
    4c24:	80 ea       	ldi	r24, 0xA0	; 160
    4c26:	94 e0       	ldi	r25, 0x04	; 4
    4c28:	4b dc       	rcall	.-1898   	; 0x44c0 <m_print>
    4c2a:	dd cf       	rjmp	.-70     	; 0x4be6 <measure_temp_task+0x10>
		}
		else
		{	
			vTaskDelay(50/portTICK_PERIOD_MS);
    4c2c:	83 e0       	ldi	r24, 0x03	; 3
    4c2e:	90 e0       	ldi	r25, 0x00	; 0
    4c30:	0e 94 b0 12 	call	0x2560	; 0x2560 <vTaskDelay>
			temperature.type = 2;
    4c34:	82 e0       	ldi	r24, 0x02	; 2
    4c36:	90 e0       	ldi	r25, 0x00	; 0
    4c38:	9a 83       	std	Y+2, r25	; 0x02
			temperature.value = hih8120GetTemperature_x10();
    4c3a:	89 83       	std	Y+1, r24	; 0x01
    4c3c:	d9 d4       	rcall	.+2482   	; 0x55f0 <hih8120GetTemperature_x10>
    4c3e:	9c 83       	std	Y+4, r25	; 0x04
    4c40:	8b 83       	std	Y+3, r24	; 0x03
				
			if (xQueueSend(xQueue, (void *) &temperature, portMAX_DELAY) != pdPASS)
    4c42:	80 91 76 0a 	lds	r24, 0x0A76	; 0x800a76 <xQueue>
    4c46:	90 91 77 0a 	lds	r25, 0x0A77	; 0x800a77 <xQueue+0x1>
    4c4a:	20 e0       	ldi	r18, 0x00	; 0
    4c4c:	4f ef       	ldi	r20, 0xFF	; 255
    4c4e:	5f ef       	ldi	r21, 0xFF	; 255
    4c50:	be 01       	movw	r22, r28
    4c52:	6f 5f       	subi	r22, 0xFF	; 255
    4c54:	7f 4f       	sbci	r23, 0xFF	; 255
    4c56:	0e 94 81 07 	call	0xf02	; 0xf02 <xQueueGenericSend>
    4c5a:	81 30       	cpi	r24, 0x01	; 1
    4c5c:	09 f4       	brne	.+2      	; 0x4c60 <measure_temp_task+0x8a>
    4c5e:	c3 cf       	rjmp	.-122    	; 0x4be6 <measure_temp_task+0x10>
			{
				m_print("Queue is full! Failed to send temperature!\n",xSemaphore_print);
    4c60:	80 91 6c 0a 	lds	r24, 0x0A6C	; 0x800a6c <xSemaphore_print>
    4c64:	90 91 6d 0a 	lds	r25, 0x0A6D	; 0x800a6d <xSemaphore_print+0x1>
    4c68:	bc 01       	movw	r22, r24
    4c6a:	84 ec       	ldi	r24, 0xC4	; 196
    4c6c:	94 e0       	ldi	r25, 0x04	; 4
    4c6e:	28 dc       	rcall	.-1968   	; 0x44c0 <m_print>
			}
		}
		//vTaskDelay(10000/portTICK_PERIOD_MS);
	}
    4c70:	ba cf       	rjmp	.-140    	; 0x4be6 <measure_temp_task+0x10>

00004c72 <main>:
void create_all_tasks(UBaseType_t lora_handler_task_priority);
void create_all_timers();
void lora_setup(void);

int main(void)
{				
    4c72:	0f 93       	push	r16
    4c74:	1f 93       	push	r17
    4c76:	cf 93       	push	r28
    4c78:	df 93       	push	r29
    4c7a:	cd b7       	in	r28, 0x3d	; 61
    4c7c:	de b7       	in	r29, 0x3e	; 62
	global_init();
    4c7e:	4b de       	rcall	.-874    	; 0x4916 <global_init>
	
	create_all_timers();
    4c80:	7c dc       	rcall	.-1800   	; 0x457a <create_all_timers>
	
	create_all_tasks(LORA_RESET_TASK_PRIORITY);
    4c82:	81 e0       	ldi	r24, 0x01	; 1
    4c84:	42 dc       	rcall	.-1916   	; 0x450a <create_all_tasks>
    4c86:	0e 94 b5 13 	call	0x276a	; 0x276a <xTaskGetTickCount>
	
	xTimerStart(xTimer,0);
    4c8a:	ac 01       	movw	r20, r24
    4c8c:	80 91 6a 0a 	lds	r24, 0x0A6A	; 0x800a6a <xTimer>
    4c90:	90 91 6b 0a 	lds	r25, 0x0A6B	; 0x800a6b <xTimer+0x1>
    4c94:	00 e0       	ldi	r16, 0x00	; 0
    4c96:	10 e0       	ldi	r17, 0x00	; 0
    4c98:	20 e0       	ldi	r18, 0x00	; 0
    4c9a:	30 e0       	ldi	r19, 0x00	; 0
    4c9c:	61 e0       	ldi	r22, 0x01	; 1
    4c9e:	0e 94 70 1d 	call	0x3ae0	; 0x3ae0 <xTimerGenericCommand>
    4ca2:	0e 94 d0 12 	call	0x25a0	; 0x25a0 <vTaskStartScheduler>
					
	vTaskStartScheduler();
    4ca6:	ff cf       	rjmp	.-2      	; 0x4ca6 <main+0x34>

00004ca8 <usart_getchar>:
    4ca8:	cf 93       	push	r28
    4caa:	df 93       	push	r29
    4cac:	1f 92       	push	r1
    4cae:	cd b7       	in	r28, 0x3d	; 61
    4cb0:	de b7       	in	r29, 0x3e	; 62
    4cb2:	be 01       	movw	r22, r28
    4cb4:	6f 5f       	subi	r22, 0xFF	; 255
    4cb6:	7f 4f       	sbci	r23, 0xFF	; 255
    4cb8:	80 91 0e 09 	lds	r24, 0x090E	; 0x80090e <_com_serial_instance>
    4cbc:	90 91 0f 09 	lds	r25, 0x090F	; 0x80090f <_com_serial_instance+0x1>
    4cc0:	4f d1       	rcall	.+670    	; 0x4f60 <serial_get_byte>
    4cc2:	81 11       	cpse	r24, r1
    4cc4:	f6 cf       	rjmp	.-20     	; 0x4cb2 <usart_getchar+0xa>
    4cc6:	89 81       	ldd	r24, Y+1	; 0x01
    4cc8:	90 e0       	ldi	r25, 0x00	; 0
    4cca:	0f 90       	pop	r0
    4ccc:	df 91       	pop	r29
    4cce:	cf 91       	pop	r28
    4cd0:	08 95       	ret

00004cd2 <usart_putchar>:
    4cd2:	68 2f       	mov	r22, r24
    4cd4:	80 91 0e 09 	lds	r24, 0x090E	; 0x80090e <_com_serial_instance>
    4cd8:	90 91 0f 09 	lds	r25, 0x090F	; 0x80090f <_com_serial_instance+0x1>
    4cdc:	cc d0       	rcall	.+408    	; 0x4e76 <serial_send_byte>
    4cde:	80 e0       	ldi	r24, 0x00	; 0
    4ce0:	90 e0       	ldi	r25, 0x00	; 0
    4ce2:	08 95       	ret

00004ce4 <stdioCreate>:
    4ce4:	8f 92       	push	r8
    4ce6:	9f 92       	push	r9
    4ce8:	af 92       	push	r10
    4cea:	cf 92       	push	r12
    4cec:	ef 92       	push	r14
    4cee:	0f 93       	push	r16
    4cf0:	81 2c       	mov	r8, r1
    4cf2:	91 2c       	mov	r9, r1
    4cf4:	68 94       	set
    4cf6:	aa 24       	eor	r10, r10
    4cf8:	a7 f8       	bld	r10, 7
    4cfa:	68 94       	set
    4cfc:	cc 24       	eor	r12, r12
    4cfe:	c7 f8       	bld	r12, 7
    4d00:	e1 2c       	mov	r14, r1
    4d02:	00 e0       	ldi	r16, 0x00	; 0
    4d04:	23 e0       	ldi	r18, 0x03	; 3
    4d06:	40 e0       	ldi	r20, 0x00	; 0
    4d08:	51 ee       	ldi	r21, 0xE1	; 225
    4d0a:	60 e0       	ldi	r22, 0x00	; 0
    4d0c:	70 e0       	ldi	r23, 0x00	; 0
    4d0e:	13 d0       	rcall	.+38     	; 0x4d36 <serial_new_instance>
    4d10:	90 93 0f 09 	sts	0x090F, r25	; 0x80090f <_com_serial_instance+0x1>
    4d14:	80 93 0e 09 	sts	0x090E, r24	; 0x80090e <_com_serial_instance>
    4d18:	e2 e9       	ldi	r30, 0x92	; 146
    4d1a:	fa e0       	ldi	r31, 0x0A	; 10
    4d1c:	86 e0       	ldi	r24, 0x06	; 6
    4d1e:	92 e0       	ldi	r25, 0x02	; 2
    4d20:	91 83       	std	Z+1, r25	; 0x01
    4d22:	80 83       	st	Z, r24
    4d24:	93 83       	std	Z+3, r25	; 0x03
    4d26:	82 83       	std	Z+2, r24	; 0x02
    4d28:	0f 91       	pop	r16
    4d2a:	ef 90       	pop	r14
    4d2c:	cf 90       	pop	r12
    4d2e:	af 90       	pop	r10
    4d30:	9f 90       	pop	r9
    4d32:	8f 90       	pop	r8
    4d34:	08 95       	ret

00004d36 <serial_new_instance>:
    4d36:	2f 92       	push	r2
    4d38:	3f 92       	push	r3
    4d3a:	4f 92       	push	r4
    4d3c:	5f 92       	push	r5
    4d3e:	6f 92       	push	r6
    4d40:	7f 92       	push	r7
    4d42:	8f 92       	push	r8
    4d44:	9f 92       	push	r9
    4d46:	af 92       	push	r10
    4d48:	cf 92       	push	r12
    4d4a:	ef 92       	push	r14
    4d4c:	ff 92       	push	r15
    4d4e:	0f 93       	push	r16
    4d50:	1f 93       	push	r17
    4d52:	cf 93       	push	r28
    4d54:	df 93       	push	r29
    4d56:	cd b7       	in	r28, 0x3d	; 61
    4d58:	de b7       	in	r29, 0x3e	; 62
    4d5a:	f8 2e       	mov	r15, r24
    4d5c:	2a 01       	movw	r4, r20
    4d5e:	3b 01       	movw	r6, r22
    4d60:	88 e0       	ldi	r24, 0x08	; 8
    4d62:	90 e0       	ldi	r25, 0x00	; 0
    4d64:	0e 94 98 35 	call	0x6b30	; 0x6b30 <malloc>
    4d68:	8c 01       	movw	r16, r24
    4d6a:	8f 2d       	mov	r24, r15
    4d6c:	90 e0       	ldi	r25, 0x00	; 0
    4d6e:	88 0f       	add	r24, r24
    4d70:	99 1f       	adc	r25, r25
    4d72:	fc 01       	movw	r30, r24
    4d74:	e0 5f       	subi	r30, 0xF0	; 240
    4d76:	f6 4f       	sbci	r31, 0xF6	; 246
    4d78:	11 83       	std	Z+1, r17	; 0x01
    4d7a:	00 83       	st	Z, r16
    4d7c:	fc 01       	movw	r30, r24
    4d7e:	ec 5e       	subi	r30, 0xEC	; 236
    4d80:	fd 4f       	sbci	r31, 0xFD	; 253
    4d82:	80 81       	ld	r24, Z
    4d84:	91 81       	ldd	r25, Z+1	; 0x01
    4d86:	d8 01       	movw	r26, r16
    4d88:	8d 93       	st	X+, r24
    4d8a:	9c 93       	st	X, r25
    4d8c:	6c 2d       	mov	r22, r12
    4d8e:	70 e0       	ldi	r23, 0x00	; 0
    4d90:	84 e0       	ldi	r24, 0x04	; 4
    4d92:	90 e0       	ldi	r25, 0x00	; 0
    4d94:	0e 94 7e 35 	call	0x6afc	; 0x6afc <calloc>
    4d98:	1c 01       	movw	r2, r24
    4d9a:	61 e0       	ldi	r22, 0x01	; 1
    4d9c:	70 e0       	ldi	r23, 0x00	; 0
    4d9e:	86 e0       	ldi	r24, 0x06	; 6
    4da0:	90 e0       	ldi	r25, 0x00	; 0
    4da2:	0e 94 7e 35 	call	0x6afc	; 0x6afc <calloc>
    4da6:	7c 01       	movw	r14, r24
    4da8:	4c 2d       	mov	r20, r12
    4daa:	b1 01       	movw	r22, r2
    4dac:	4d d3       	rcall	.+1690   	; 0x5448 <fifo_init>
    4dae:	f8 01       	movw	r30, r16
    4db0:	f5 82       	std	Z+5, r15	; 0x05
    4db2:	e4 82       	std	Z+4, r14	; 0x04
    4db4:	6a 2d       	mov	r22, r10
    4db6:	70 e0       	ldi	r23, 0x00	; 0
    4db8:	84 e0       	ldi	r24, 0x04	; 4
    4dba:	90 e0       	ldi	r25, 0x00	; 0
    4dbc:	0e 94 7e 35 	call	0x6afc	; 0x6afc <calloc>
    4dc0:	1c 01       	movw	r2, r24
    4dc2:	61 e0       	ldi	r22, 0x01	; 1
    4dc4:	70 e0       	ldi	r23, 0x00	; 0
    4dc6:	86 e0       	ldi	r24, 0x06	; 6
    4dc8:	90 e0       	ldi	r25, 0x00	; 0
    4dca:	0e 94 7e 35 	call	0x6afc	; 0x6afc <calloc>
    4dce:	7c 01       	movw	r14, r24
    4dd0:	4a 2d       	mov	r20, r10
    4dd2:	b1 01       	movw	r22, r2
    4dd4:	39 d3       	rcall	.+1650   	; 0x5448 <fifo_init>
    4dd6:	d8 01       	movw	r26, r16
    4dd8:	13 96       	adiw	r26, 0x03	; 3
    4dda:	fc 92       	st	X, r15
    4ddc:	ee 92       	st	-X, r14
    4dde:	12 97       	sbiw	r26, 0x02	; 2
    4de0:	17 96       	adiw	r26, 0x07	; 7
    4de2:	9c 92       	st	X, r9
    4de4:	8e 92       	st	-X, r8
    4de6:	16 97       	sbiw	r26, 0x06	; 6
    4de8:	ff b6       	in	r15, 0x3f	; 63
    4dea:	f8 94       	cli
    4dec:	ed 91       	ld	r30, X+
    4dee:	fc 91       	ld	r31, X
    4df0:	11 97       	sbiw	r26, 0x01	; 1
    4df2:	36 97       	sbiw	r30, 0x06	; 6
    4df4:	80 81       	ld	r24, Z
    4df6:	82 60       	ori	r24, 0x02	; 2
    4df8:	80 83       	st	Z, r24
    4dfa:	8d 90       	ld	r8, X+
    4dfc:	9c 90       	ld	r9, X
    4dfe:	c3 01       	movw	r24, r6
    4e00:	b2 01       	movw	r22, r4
    4e02:	0e 94 65 34 	call	0x68ca	; 0x68ca <__floatunsisf>
    4e06:	20 e0       	ldi	r18, 0x00	; 0
    4e08:	30 e0       	ldi	r19, 0x00	; 0
    4e0a:	40 e0       	ldi	r20, 0x00	; 0
    4e0c:	51 e4       	ldi	r21, 0x41	; 65
    4e0e:	0e 94 1b 35 	call	0x6a36	; 0x6a36 <__mulsf3>
    4e12:	9b 01       	movw	r18, r22
    4e14:	ac 01       	movw	r20, r24
    4e16:	60 e0       	ldi	r22, 0x00	; 0
    4e18:	74 e2       	ldi	r23, 0x24	; 36
    4e1a:	84 e7       	ldi	r24, 0x74	; 116
    4e1c:	9b e4       	ldi	r25, 0x4B	; 75
    4e1e:	0e 94 cc 33 	call	0x6798	; 0x6798 <__divsf3>
    4e22:	20 e0       	ldi	r18, 0x00	; 0
    4e24:	30 e0       	ldi	r19, 0x00	; 0
    4e26:	40 e8       	ldi	r20, 0x80	; 128
    4e28:	5f e3       	ldi	r21, 0x3F	; 63
    4e2a:	0e 94 63 33 	call	0x66c6	; 0x66c6 <__subsf3>
    4e2e:	0e 94 39 34 	call	0x6872	; 0x6872 <__fixunssfsi>
    4e32:	f4 01       	movw	r30, r8
    4e34:	32 97       	sbiw	r30, 0x02	; 2
    4e36:	60 83       	st	Z, r22
    4e38:	d8 01       	movw	r26, r16
    4e3a:	ed 91       	ld	r30, X+
    4e3c:	fc 91       	ld	r31, X
    4e3e:	11 97       	sbiw	r26, 0x01	; 1
    4e40:	35 97       	sbiw	r30, 0x05	; 5
    4e42:	88 e9       	ldi	r24, 0x98	; 152
    4e44:	80 83       	st	Z, r24
    4e46:	ed 91       	ld	r30, X+
    4e48:	fc 91       	ld	r31, X
    4e4a:	34 97       	sbiw	r30, 0x04	; 4
    4e4c:	86 e0       	ldi	r24, 0x06	; 6
    4e4e:	80 83       	st	Z, r24
    4e50:	ff be       	out	0x3f, r15	; 63
    4e52:	c8 01       	movw	r24, r16
    4e54:	df 91       	pop	r29
    4e56:	cf 91       	pop	r28
    4e58:	1f 91       	pop	r17
    4e5a:	0f 91       	pop	r16
    4e5c:	ff 90       	pop	r15
    4e5e:	ef 90       	pop	r14
    4e60:	cf 90       	pop	r12
    4e62:	af 90       	pop	r10
    4e64:	9f 90       	pop	r9
    4e66:	8f 90       	pop	r8
    4e68:	7f 90       	pop	r7
    4e6a:	6f 90       	pop	r6
    4e6c:	5f 90       	pop	r5
    4e6e:	4f 90       	pop	r4
    4e70:	3f 90       	pop	r3
    4e72:	2f 90       	pop	r2
    4e74:	08 95       	ret

00004e76 <serial_send_byte>:
    4e76:	cf 93       	push	r28
    4e78:	df 93       	push	r29
    4e7a:	ec 01       	movw	r28, r24
    4e7c:	ea 81       	ldd	r30, Y+2	; 0x02
    4e7e:	fb 81       	ldd	r31, Y+3	; 0x03
    4e80:	93 81       	ldd	r25, Z+3	; 0x03
    4e82:	82 81       	ldd	r24, Z+2	; 0x02
    4e84:	25 81       	ldd	r18, Z+5	; 0x05
    4e86:	98 1b       	sub	r25, r24
    4e88:	92 23       	and	r25, r18
    4e8a:	84 81       	ldd	r24, Z+4	; 0x04
    4e8c:	98 17       	cp	r25, r24
    4e8e:	a1 f0       	breq	.+40     	; 0x4eb8 <serial_send_byte+0x42>
    4e90:	93 81       	ldd	r25, Z+3	; 0x03
    4e92:	26 95       	lsr	r18
    4e94:	29 23       	and	r18, r25
    4e96:	a0 81       	ld	r26, Z
    4e98:	b1 81       	ldd	r27, Z+1	; 0x01
    4e9a:	a2 0f       	add	r26, r18
    4e9c:	b1 1d       	adc	r27, r1
    4e9e:	6c 93       	st	X, r22
    4ea0:	9f 5f       	subi	r25, 0xFF	; 255
    4ea2:	25 81       	ldd	r18, Z+5	; 0x05
    4ea4:	92 23       	and	r25, r18
    4ea6:	93 83       	std	Z+3, r25	; 0x03
    4ea8:	e8 81       	ld	r30, Y
    4eaa:	f9 81       	ldd	r31, Y+1	; 0x01
    4eac:	35 97       	sbiw	r30, 0x05	; 5
    4eae:	80 81       	ld	r24, Z
    4eb0:	80 62       	ori	r24, 0x20	; 32
    4eb2:	80 83       	st	Z, r24
    4eb4:	80 e0       	ldi	r24, 0x00	; 0
    4eb6:	01 c0       	rjmp	.+2      	; 0x4eba <serial_send_byte+0x44>
    4eb8:	82 e0       	ldi	r24, 0x02	; 2
    4eba:	df 91       	pop	r29
    4ebc:	cf 91       	pop	r28
    4ebe:	08 95       	ret

00004ec0 <serial_send_bytes>:
    4ec0:	ef 92       	push	r14
    4ec2:	ff 92       	push	r15
    4ec4:	0f 93       	push	r16
    4ec6:	1f 93       	push	r17
    4ec8:	cf 93       	push	r28
    4eca:	df 93       	push	r29
    4ecc:	7c 01       	movw	r14, r24
    4ece:	dc 01       	movw	r26, r24
    4ed0:	12 96       	adiw	r26, 0x02	; 2
    4ed2:	ed 91       	ld	r30, X+
    4ed4:	fc 91       	ld	r31, X
    4ed6:	13 97       	sbiw	r26, 0x03	; 3
    4ed8:	93 81       	ldd	r25, Z+3	; 0x03
    4eda:	82 81       	ldd	r24, Z+2	; 0x02
    4edc:	98 1b       	sub	r25, r24
    4ede:	85 81       	ldd	r24, Z+5	; 0x05
    4ee0:	98 23       	and	r25, r24
    4ee2:	84 81       	ldd	r24, Z+4	; 0x04
    4ee4:	89 1b       	sub	r24, r25
    4ee6:	86 17       	cp	r24, r22
    4ee8:	98 f1       	brcs	.+102    	; 0x4f50 <serial_send_bytes+0x90>
    4eea:	66 23       	and	r22, r22
    4eec:	41 f1       	breq	.+80     	; 0x4f3e <serial_send_bytes+0x7e>
    4eee:	84 2f       	mov	r24, r20
    4ef0:	95 2f       	mov	r25, r21
    4ef2:	dc 01       	movw	r26, r24
    4ef4:	61 50       	subi	r22, 0x01	; 1
    4ef6:	46 2f       	mov	r20, r22
    4ef8:	50 e0       	ldi	r21, 0x00	; 0
    4efa:	4f 5f       	subi	r20, 0xFF	; 255
    4efc:	5f 4f       	sbci	r21, 0xFF	; 255
    4efe:	48 0f       	add	r20, r24
    4f00:	59 1f       	adc	r21, r25
    4f02:	e7 01       	movw	r28, r14
    4f04:	ea 81       	ldd	r30, Y+2	; 0x02
    4f06:	fb 81       	ldd	r31, Y+3	; 0x03
    4f08:	93 81       	ldd	r25, Z+3	; 0x03
    4f0a:	82 81       	ldd	r24, Z+2	; 0x02
    4f0c:	25 81       	ldd	r18, Z+5	; 0x05
    4f0e:	98 1b       	sub	r25, r24
    4f10:	92 23       	and	r25, r18
    4f12:	84 81       	ldd	r24, Z+4	; 0x04
    4f14:	98 17       	cp	r25, r24
    4f16:	79 f0       	breq	.+30     	; 0x4f36 <serial_send_bytes+0x76>
    4f18:	8c 91       	ld	r24, X
    4f1a:	93 81       	ldd	r25, Z+3	; 0x03
    4f1c:	26 95       	lsr	r18
    4f1e:	29 23       	and	r18, r25
    4f20:	60 81       	ld	r22, Z
    4f22:	71 81       	ldd	r23, Z+1	; 0x01
    4f24:	8b 01       	movw	r16, r22
    4f26:	02 0f       	add	r16, r18
    4f28:	11 1d       	adc	r17, r1
    4f2a:	e8 01       	movw	r28, r16
    4f2c:	88 83       	st	Y, r24
    4f2e:	9f 5f       	subi	r25, 0xFF	; 255
    4f30:	85 81       	ldd	r24, Z+5	; 0x05
    4f32:	98 23       	and	r25, r24
    4f34:	93 83       	std	Z+3, r25	; 0x03
    4f36:	11 96       	adiw	r26, 0x01	; 1
    4f38:	a4 17       	cp	r26, r20
    4f3a:	b5 07       	cpc	r27, r21
    4f3c:	11 f7       	brne	.-60     	; 0x4f02 <serial_send_bytes+0x42>
    4f3e:	d7 01       	movw	r26, r14
    4f40:	ed 91       	ld	r30, X+
    4f42:	fc 91       	ld	r31, X
    4f44:	35 97       	sbiw	r30, 0x05	; 5
    4f46:	80 81       	ld	r24, Z
    4f48:	80 62       	ori	r24, 0x20	; 32
    4f4a:	80 83       	st	Z, r24
    4f4c:	80 e0       	ldi	r24, 0x00	; 0
    4f4e:	01 c0       	rjmp	.+2      	; 0x4f52 <serial_send_bytes+0x92>
    4f50:	82 e0       	ldi	r24, 0x02	; 2
    4f52:	df 91       	pop	r29
    4f54:	cf 91       	pop	r28
    4f56:	1f 91       	pop	r17
    4f58:	0f 91       	pop	r16
    4f5a:	ff 90       	pop	r15
    4f5c:	ef 90       	pop	r14
    4f5e:	08 95       	ret

00004f60 <serial_get_byte>:
    4f60:	dc 01       	movw	r26, r24
    4f62:	14 96       	adiw	r26, 0x04	; 4
    4f64:	ed 91       	ld	r30, X+
    4f66:	fc 91       	ld	r31, X
    4f68:	15 97       	sbiw	r26, 0x05	; 5
    4f6a:	93 81       	ldd	r25, Z+3	; 0x03
    4f6c:	82 81       	ldd	r24, Z+2	; 0x02
    4f6e:	98 17       	cp	r25, r24
    4f70:	89 f0       	breq	.+34     	; 0x4f94 <serial_get_byte+0x34>
    4f72:	92 81       	ldd	r25, Z+2	; 0x02
    4f74:	85 81       	ldd	r24, Z+5	; 0x05
    4f76:	86 95       	lsr	r24
    4f78:	89 23       	and	r24, r25
    4f7a:	a0 81       	ld	r26, Z
    4f7c:	b1 81       	ldd	r27, Z+1	; 0x01
    4f7e:	a8 0f       	add	r26, r24
    4f80:	b1 1d       	adc	r27, r1
    4f82:	8c 91       	ld	r24, X
    4f84:	db 01       	movw	r26, r22
    4f86:	8c 93       	st	X, r24
    4f88:	9f 5f       	subi	r25, 0xFF	; 255
    4f8a:	85 81       	ldd	r24, Z+5	; 0x05
    4f8c:	98 23       	and	r25, r24
    4f8e:	92 83       	std	Z+2, r25	; 0x02
    4f90:	80 e0       	ldi	r24, 0x00	; 0
    4f92:	08 95       	ret
    4f94:	83 e0       	ldi	r24, 0x03	; 3
    4f96:	08 95       	ret

00004f98 <__vector_25>:
    4f98:	1f 92       	push	r1
    4f9a:	0f 92       	push	r0
    4f9c:	0f b6       	in	r0, 0x3f	; 63
    4f9e:	0f 92       	push	r0
    4fa0:	11 24       	eor	r1, r1
    4fa2:	0b b6       	in	r0, 0x3b	; 59
    4fa4:	0f 92       	push	r0
    4fa6:	2f 93       	push	r18
    4fa8:	3f 93       	push	r19
    4faa:	4f 93       	push	r20
    4fac:	5f 93       	push	r21
    4fae:	6f 93       	push	r22
    4fb0:	7f 93       	push	r23
    4fb2:	8f 93       	push	r24
    4fb4:	9f 93       	push	r25
    4fb6:	af 93       	push	r26
    4fb8:	bf 93       	push	r27
    4fba:	cf 93       	push	r28
    4fbc:	df 93       	push	r29
    4fbe:	ef 93       	push	r30
    4fc0:	ff 93       	push	r31
    4fc2:	a0 91 10 09 	lds	r26, 0x0910	; 0x800910 <_ser_handle>
    4fc6:	b0 91 11 09 	lds	r27, 0x0911	; 0x800911 <_ser_handle+0x1>
    4fca:	10 97       	sbiw	r26, 0x00	; 0
    4fcc:	11 f1       	breq	.+68     	; 0x5012 <__vector_25+0x7a>
    4fce:	60 91 c6 00 	lds	r22, 0x00C6	; 0x8000c6 <__TEXT_REGION_LENGTH__+0x7000c6>
    4fd2:	14 96       	adiw	r26, 0x04	; 4
    4fd4:	ed 91       	ld	r30, X+
    4fd6:	fc 91       	ld	r31, X
    4fd8:	15 97       	sbiw	r26, 0x05	; 5
    4fda:	93 81       	ldd	r25, Z+3	; 0x03
    4fdc:	82 81       	ldd	r24, Z+2	; 0x02
    4fde:	25 81       	ldd	r18, Z+5	; 0x05
    4fe0:	98 1b       	sub	r25, r24
    4fe2:	92 23       	and	r25, r18
    4fe4:	84 81       	ldd	r24, Z+4	; 0x04
    4fe6:	98 17       	cp	r25, r24
    4fe8:	61 f0       	breq	.+24     	; 0x5002 <__vector_25+0x6a>
    4fea:	83 81       	ldd	r24, Z+3	; 0x03
    4fec:	26 95       	lsr	r18
    4fee:	28 23       	and	r18, r24
    4ff0:	c0 81       	ld	r28, Z
    4ff2:	d1 81       	ldd	r29, Z+1	; 0x01
    4ff4:	c2 0f       	add	r28, r18
    4ff6:	d1 1d       	adc	r29, r1
    4ff8:	68 83       	st	Y, r22
    4ffa:	8f 5f       	subi	r24, 0xFF	; 255
    4ffc:	95 81       	ldd	r25, Z+5	; 0x05
    4ffe:	89 23       	and	r24, r25
    5000:	83 83       	std	Z+3, r24	; 0x03
    5002:	16 96       	adiw	r26, 0x06	; 6
    5004:	ed 91       	ld	r30, X+
    5006:	fc 91       	ld	r31, X
    5008:	17 97       	sbiw	r26, 0x07	; 7
    500a:	30 97       	sbiw	r30, 0x00	; 0
    500c:	11 f0       	breq	.+4      	; 0x5012 <__vector_25+0x7a>
    500e:	cd 01       	movw	r24, r26
    5010:	19 95       	eicall
    5012:	ff 91       	pop	r31
    5014:	ef 91       	pop	r30
    5016:	df 91       	pop	r29
    5018:	cf 91       	pop	r28
    501a:	bf 91       	pop	r27
    501c:	af 91       	pop	r26
    501e:	9f 91       	pop	r25
    5020:	8f 91       	pop	r24
    5022:	7f 91       	pop	r23
    5024:	6f 91       	pop	r22
    5026:	5f 91       	pop	r21
    5028:	4f 91       	pop	r20
    502a:	3f 91       	pop	r19
    502c:	2f 91       	pop	r18
    502e:	0f 90       	pop	r0
    5030:	0b be       	out	0x3b, r0	; 59
    5032:	0f 90       	pop	r0
    5034:	0f be       	out	0x3f, r0	; 63
    5036:	0f 90       	pop	r0
    5038:	1f 90       	pop	r1
    503a:	18 95       	reti

0000503c <__vector_26>:
    503c:	1f 92       	push	r1
    503e:	0f 92       	push	r0
    5040:	0f b6       	in	r0, 0x3f	; 63
    5042:	0f 92       	push	r0
    5044:	11 24       	eor	r1, r1
    5046:	0b b6       	in	r0, 0x3b	; 59
    5048:	0f 92       	push	r0
    504a:	2f 93       	push	r18
    504c:	8f 93       	push	r24
    504e:	9f 93       	push	r25
    5050:	af 93       	push	r26
    5052:	bf 93       	push	r27
    5054:	ef 93       	push	r30
    5056:	ff 93       	push	r31
    5058:	e0 91 10 09 	lds	r30, 0x0910	; 0x800910 <_ser_handle>
    505c:	f0 91 11 09 	lds	r31, 0x0911	; 0x800911 <_ser_handle+0x1>
    5060:	30 97       	sbiw	r30, 0x00	; 0
    5062:	b9 f0       	breq	.+46     	; 0x5092 <__vector_26+0x56>
    5064:	02 80       	ldd	r0, Z+2	; 0x02
    5066:	f3 81       	ldd	r31, Z+3	; 0x03
    5068:	e0 2d       	mov	r30, r0
    506a:	93 81       	ldd	r25, Z+3	; 0x03
    506c:	82 81       	ldd	r24, Z+2	; 0x02
    506e:	98 17       	cp	r25, r24
    5070:	b1 f0       	breq	.+44     	; 0x509e <__vector_26+0x62>
    5072:	92 81       	ldd	r25, Z+2	; 0x02
    5074:	85 81       	ldd	r24, Z+5	; 0x05
    5076:	28 2f       	mov	r18, r24
    5078:	26 95       	lsr	r18
    507a:	29 23       	and	r18, r25
    507c:	a0 81       	ld	r26, Z
    507e:	b1 81       	ldd	r27, Z+1	; 0x01
    5080:	a2 0f       	add	r26, r18
    5082:	b1 1d       	adc	r27, r1
    5084:	2c 91       	ld	r18, X
    5086:	9f 5f       	subi	r25, 0xFF	; 255
    5088:	89 23       	and	r24, r25
    508a:	82 83       	std	Z+2, r24	; 0x02
    508c:	20 93 c6 00 	sts	0x00C6, r18	; 0x8000c6 <__TEXT_REGION_LENGTH__+0x7000c6>
    5090:	0b c0       	rjmp	.+22     	; 0x50a8 <__vector_26+0x6c>
    5092:	e1 ec       	ldi	r30, 0xC1	; 193
    5094:	f0 e0       	ldi	r31, 0x00	; 0
    5096:	80 81       	ld	r24, Z
    5098:	8f 7d       	andi	r24, 0xDF	; 223
    509a:	80 83       	st	Z, r24
    509c:	05 c0       	rjmp	.+10     	; 0x50a8 <__vector_26+0x6c>
    509e:	e1 ec       	ldi	r30, 0xC1	; 193
    50a0:	f0 e0       	ldi	r31, 0x00	; 0
    50a2:	80 81       	ld	r24, Z
    50a4:	8f 7d       	andi	r24, 0xDF	; 223
    50a6:	80 83       	st	Z, r24
    50a8:	ff 91       	pop	r31
    50aa:	ef 91       	pop	r30
    50ac:	bf 91       	pop	r27
    50ae:	af 91       	pop	r26
    50b0:	9f 91       	pop	r25
    50b2:	8f 91       	pop	r24
    50b4:	2f 91       	pop	r18
    50b6:	0f 90       	pop	r0
    50b8:	0b be       	out	0x3b, r0	; 59
    50ba:	0f 90       	pop	r0
    50bc:	0f be       	out	0x3f, r0	; 63
    50be:	0f 90       	pop	r0
    50c0:	1f 90       	pop	r1
    50c2:	18 95       	reti

000050c4 <__vector_36>:
    50c4:	1f 92       	push	r1
    50c6:	0f 92       	push	r0
    50c8:	0f b6       	in	r0, 0x3f	; 63
    50ca:	0f 92       	push	r0
    50cc:	11 24       	eor	r1, r1
    50ce:	0b b6       	in	r0, 0x3b	; 59
    50d0:	0f 92       	push	r0
    50d2:	2f 93       	push	r18
    50d4:	3f 93       	push	r19
    50d6:	4f 93       	push	r20
    50d8:	5f 93       	push	r21
    50da:	6f 93       	push	r22
    50dc:	7f 93       	push	r23
    50de:	8f 93       	push	r24
    50e0:	9f 93       	push	r25
    50e2:	af 93       	push	r26
    50e4:	bf 93       	push	r27
    50e6:	cf 93       	push	r28
    50e8:	df 93       	push	r29
    50ea:	ef 93       	push	r30
    50ec:	ff 93       	push	r31
    50ee:	a0 91 12 09 	lds	r26, 0x0912	; 0x800912 <_ser_handle+0x2>
    50f2:	b0 91 13 09 	lds	r27, 0x0913	; 0x800913 <_ser_handle+0x3>
    50f6:	10 97       	sbiw	r26, 0x00	; 0
    50f8:	11 f1       	breq	.+68     	; 0x513e <__vector_36+0x7a>
    50fa:	60 91 ce 00 	lds	r22, 0x00CE	; 0x8000ce <__TEXT_REGION_LENGTH__+0x7000ce>
    50fe:	14 96       	adiw	r26, 0x04	; 4
    5100:	ed 91       	ld	r30, X+
    5102:	fc 91       	ld	r31, X
    5104:	15 97       	sbiw	r26, 0x05	; 5
    5106:	93 81       	ldd	r25, Z+3	; 0x03
    5108:	82 81       	ldd	r24, Z+2	; 0x02
    510a:	25 81       	ldd	r18, Z+5	; 0x05
    510c:	98 1b       	sub	r25, r24
    510e:	92 23       	and	r25, r18
    5110:	84 81       	ldd	r24, Z+4	; 0x04
    5112:	98 17       	cp	r25, r24
    5114:	61 f0       	breq	.+24     	; 0x512e <__vector_36+0x6a>
    5116:	83 81       	ldd	r24, Z+3	; 0x03
    5118:	26 95       	lsr	r18
    511a:	28 23       	and	r18, r24
    511c:	c0 81       	ld	r28, Z
    511e:	d1 81       	ldd	r29, Z+1	; 0x01
    5120:	c2 0f       	add	r28, r18
    5122:	d1 1d       	adc	r29, r1
    5124:	68 83       	st	Y, r22
    5126:	8f 5f       	subi	r24, 0xFF	; 255
    5128:	95 81       	ldd	r25, Z+5	; 0x05
    512a:	89 23       	and	r24, r25
    512c:	83 83       	std	Z+3, r24	; 0x03
    512e:	16 96       	adiw	r26, 0x06	; 6
    5130:	ed 91       	ld	r30, X+
    5132:	fc 91       	ld	r31, X
    5134:	17 97       	sbiw	r26, 0x07	; 7
    5136:	30 97       	sbiw	r30, 0x00	; 0
    5138:	11 f0       	breq	.+4      	; 0x513e <__vector_36+0x7a>
    513a:	cd 01       	movw	r24, r26
    513c:	19 95       	eicall
    513e:	ff 91       	pop	r31
    5140:	ef 91       	pop	r30
    5142:	df 91       	pop	r29
    5144:	cf 91       	pop	r28
    5146:	bf 91       	pop	r27
    5148:	af 91       	pop	r26
    514a:	9f 91       	pop	r25
    514c:	8f 91       	pop	r24
    514e:	7f 91       	pop	r23
    5150:	6f 91       	pop	r22
    5152:	5f 91       	pop	r21
    5154:	4f 91       	pop	r20
    5156:	3f 91       	pop	r19
    5158:	2f 91       	pop	r18
    515a:	0f 90       	pop	r0
    515c:	0b be       	out	0x3b, r0	; 59
    515e:	0f 90       	pop	r0
    5160:	0f be       	out	0x3f, r0	; 63
    5162:	0f 90       	pop	r0
    5164:	1f 90       	pop	r1
    5166:	18 95       	reti

00005168 <__vector_37>:
    5168:	1f 92       	push	r1
    516a:	0f 92       	push	r0
    516c:	0f b6       	in	r0, 0x3f	; 63
    516e:	0f 92       	push	r0
    5170:	11 24       	eor	r1, r1
    5172:	0b b6       	in	r0, 0x3b	; 59
    5174:	0f 92       	push	r0
    5176:	2f 93       	push	r18
    5178:	8f 93       	push	r24
    517a:	9f 93       	push	r25
    517c:	af 93       	push	r26
    517e:	bf 93       	push	r27
    5180:	ef 93       	push	r30
    5182:	ff 93       	push	r31
    5184:	e0 91 12 09 	lds	r30, 0x0912	; 0x800912 <_ser_handle+0x2>
    5188:	f0 91 13 09 	lds	r31, 0x0913	; 0x800913 <_ser_handle+0x3>
    518c:	30 97       	sbiw	r30, 0x00	; 0
    518e:	b9 f0       	breq	.+46     	; 0x51be <__vector_37+0x56>
    5190:	02 80       	ldd	r0, Z+2	; 0x02
    5192:	f3 81       	ldd	r31, Z+3	; 0x03
    5194:	e0 2d       	mov	r30, r0
    5196:	93 81       	ldd	r25, Z+3	; 0x03
    5198:	82 81       	ldd	r24, Z+2	; 0x02
    519a:	98 17       	cp	r25, r24
    519c:	b1 f0       	breq	.+44     	; 0x51ca <__vector_37+0x62>
    519e:	92 81       	ldd	r25, Z+2	; 0x02
    51a0:	85 81       	ldd	r24, Z+5	; 0x05
    51a2:	28 2f       	mov	r18, r24
    51a4:	26 95       	lsr	r18
    51a6:	29 23       	and	r18, r25
    51a8:	a0 81       	ld	r26, Z
    51aa:	b1 81       	ldd	r27, Z+1	; 0x01
    51ac:	a2 0f       	add	r26, r18
    51ae:	b1 1d       	adc	r27, r1
    51b0:	2c 91       	ld	r18, X
    51b2:	9f 5f       	subi	r25, 0xFF	; 255
    51b4:	89 23       	and	r24, r25
    51b6:	82 83       	std	Z+2, r24	; 0x02
    51b8:	20 93 ce 00 	sts	0x00CE, r18	; 0x8000ce <__TEXT_REGION_LENGTH__+0x7000ce>
    51bc:	0b c0       	rjmp	.+22     	; 0x51d4 <__vector_37+0x6c>
    51be:	e9 ec       	ldi	r30, 0xC9	; 201
    51c0:	f0 e0       	ldi	r31, 0x00	; 0
    51c2:	80 81       	ld	r24, Z
    51c4:	8f 7d       	andi	r24, 0xDF	; 223
    51c6:	80 83       	st	Z, r24
    51c8:	05 c0       	rjmp	.+10     	; 0x51d4 <__vector_37+0x6c>
    51ca:	e9 ec       	ldi	r30, 0xC9	; 201
    51cc:	f0 e0       	ldi	r31, 0x00	; 0
    51ce:	80 81       	ld	r24, Z
    51d0:	8f 7d       	andi	r24, 0xDF	; 223
    51d2:	80 83       	st	Z, r24
    51d4:	ff 91       	pop	r31
    51d6:	ef 91       	pop	r30
    51d8:	bf 91       	pop	r27
    51da:	af 91       	pop	r26
    51dc:	9f 91       	pop	r25
    51de:	8f 91       	pop	r24
    51e0:	2f 91       	pop	r18
    51e2:	0f 90       	pop	r0
    51e4:	0b be       	out	0x3b, r0	; 59
    51e6:	0f 90       	pop	r0
    51e8:	0f be       	out	0x3f, r0	; 63
    51ea:	0f 90       	pop	r0
    51ec:	1f 90       	pop	r1
    51ee:	18 95       	reti

000051f0 <__vector_51>:
    51f0:	1f 92       	push	r1
    51f2:	0f 92       	push	r0
    51f4:	0f b6       	in	r0, 0x3f	; 63
    51f6:	0f 92       	push	r0
    51f8:	11 24       	eor	r1, r1
    51fa:	0b b6       	in	r0, 0x3b	; 59
    51fc:	0f 92       	push	r0
    51fe:	2f 93       	push	r18
    5200:	3f 93       	push	r19
    5202:	4f 93       	push	r20
    5204:	5f 93       	push	r21
    5206:	6f 93       	push	r22
    5208:	7f 93       	push	r23
    520a:	8f 93       	push	r24
    520c:	9f 93       	push	r25
    520e:	af 93       	push	r26
    5210:	bf 93       	push	r27
    5212:	cf 93       	push	r28
    5214:	df 93       	push	r29
    5216:	ef 93       	push	r30
    5218:	ff 93       	push	r31
    521a:	a0 91 14 09 	lds	r26, 0x0914	; 0x800914 <_ser_handle+0x4>
    521e:	b0 91 15 09 	lds	r27, 0x0915	; 0x800915 <_ser_handle+0x5>
    5222:	10 97       	sbiw	r26, 0x00	; 0
    5224:	11 f1       	breq	.+68     	; 0x526a <__vector_51+0x7a>
    5226:	60 91 d6 00 	lds	r22, 0x00D6	; 0x8000d6 <__TEXT_REGION_LENGTH__+0x7000d6>
    522a:	14 96       	adiw	r26, 0x04	; 4
    522c:	ed 91       	ld	r30, X+
    522e:	fc 91       	ld	r31, X
    5230:	15 97       	sbiw	r26, 0x05	; 5
    5232:	93 81       	ldd	r25, Z+3	; 0x03
    5234:	82 81       	ldd	r24, Z+2	; 0x02
    5236:	25 81       	ldd	r18, Z+5	; 0x05
    5238:	98 1b       	sub	r25, r24
    523a:	92 23       	and	r25, r18
    523c:	84 81       	ldd	r24, Z+4	; 0x04
    523e:	98 17       	cp	r25, r24
    5240:	61 f0       	breq	.+24     	; 0x525a <__vector_51+0x6a>
    5242:	83 81       	ldd	r24, Z+3	; 0x03
    5244:	26 95       	lsr	r18
    5246:	28 23       	and	r18, r24
    5248:	c0 81       	ld	r28, Z
    524a:	d1 81       	ldd	r29, Z+1	; 0x01
    524c:	c2 0f       	add	r28, r18
    524e:	d1 1d       	adc	r29, r1
    5250:	68 83       	st	Y, r22
    5252:	8f 5f       	subi	r24, 0xFF	; 255
    5254:	95 81       	ldd	r25, Z+5	; 0x05
    5256:	89 23       	and	r24, r25
    5258:	83 83       	std	Z+3, r24	; 0x03
    525a:	16 96       	adiw	r26, 0x06	; 6
    525c:	ed 91       	ld	r30, X+
    525e:	fc 91       	ld	r31, X
    5260:	17 97       	sbiw	r26, 0x07	; 7
    5262:	30 97       	sbiw	r30, 0x00	; 0
    5264:	11 f0       	breq	.+4      	; 0x526a <__vector_51+0x7a>
    5266:	cd 01       	movw	r24, r26
    5268:	19 95       	eicall
    526a:	ff 91       	pop	r31
    526c:	ef 91       	pop	r30
    526e:	df 91       	pop	r29
    5270:	cf 91       	pop	r28
    5272:	bf 91       	pop	r27
    5274:	af 91       	pop	r26
    5276:	9f 91       	pop	r25
    5278:	8f 91       	pop	r24
    527a:	7f 91       	pop	r23
    527c:	6f 91       	pop	r22
    527e:	5f 91       	pop	r21
    5280:	4f 91       	pop	r20
    5282:	3f 91       	pop	r19
    5284:	2f 91       	pop	r18
    5286:	0f 90       	pop	r0
    5288:	0b be       	out	0x3b, r0	; 59
    528a:	0f 90       	pop	r0
    528c:	0f be       	out	0x3f, r0	; 63
    528e:	0f 90       	pop	r0
    5290:	1f 90       	pop	r1
    5292:	18 95       	reti

00005294 <__vector_52>:
    5294:	1f 92       	push	r1
    5296:	0f 92       	push	r0
    5298:	0f b6       	in	r0, 0x3f	; 63
    529a:	0f 92       	push	r0
    529c:	11 24       	eor	r1, r1
    529e:	0b b6       	in	r0, 0x3b	; 59
    52a0:	0f 92       	push	r0
    52a2:	2f 93       	push	r18
    52a4:	8f 93       	push	r24
    52a6:	9f 93       	push	r25
    52a8:	af 93       	push	r26
    52aa:	bf 93       	push	r27
    52ac:	ef 93       	push	r30
    52ae:	ff 93       	push	r31
    52b0:	e0 91 14 09 	lds	r30, 0x0914	; 0x800914 <_ser_handle+0x4>
    52b4:	f0 91 15 09 	lds	r31, 0x0915	; 0x800915 <_ser_handle+0x5>
    52b8:	30 97       	sbiw	r30, 0x00	; 0
    52ba:	b9 f0       	breq	.+46     	; 0x52ea <__vector_52+0x56>
    52bc:	02 80       	ldd	r0, Z+2	; 0x02
    52be:	f3 81       	ldd	r31, Z+3	; 0x03
    52c0:	e0 2d       	mov	r30, r0
    52c2:	93 81       	ldd	r25, Z+3	; 0x03
    52c4:	82 81       	ldd	r24, Z+2	; 0x02
    52c6:	98 17       	cp	r25, r24
    52c8:	b1 f0       	breq	.+44     	; 0x52f6 <__vector_52+0x62>
    52ca:	92 81       	ldd	r25, Z+2	; 0x02
    52cc:	85 81       	ldd	r24, Z+5	; 0x05
    52ce:	28 2f       	mov	r18, r24
    52d0:	26 95       	lsr	r18
    52d2:	29 23       	and	r18, r25
    52d4:	a0 81       	ld	r26, Z
    52d6:	b1 81       	ldd	r27, Z+1	; 0x01
    52d8:	a2 0f       	add	r26, r18
    52da:	b1 1d       	adc	r27, r1
    52dc:	2c 91       	ld	r18, X
    52de:	9f 5f       	subi	r25, 0xFF	; 255
    52e0:	89 23       	and	r24, r25
    52e2:	82 83       	std	Z+2, r24	; 0x02
    52e4:	20 93 d6 00 	sts	0x00D6, r18	; 0x8000d6 <__TEXT_REGION_LENGTH__+0x7000d6>
    52e8:	0b c0       	rjmp	.+22     	; 0x5300 <__vector_52+0x6c>
    52ea:	e1 ed       	ldi	r30, 0xD1	; 209
    52ec:	f0 e0       	ldi	r31, 0x00	; 0
    52ee:	80 81       	ld	r24, Z
    52f0:	8f 7d       	andi	r24, 0xDF	; 223
    52f2:	80 83       	st	Z, r24
    52f4:	05 c0       	rjmp	.+10     	; 0x5300 <__vector_52+0x6c>
    52f6:	e1 ed       	ldi	r30, 0xD1	; 209
    52f8:	f0 e0       	ldi	r31, 0x00	; 0
    52fa:	80 81       	ld	r24, Z
    52fc:	8f 7d       	andi	r24, 0xDF	; 223
    52fe:	80 83       	st	Z, r24
    5300:	ff 91       	pop	r31
    5302:	ef 91       	pop	r30
    5304:	bf 91       	pop	r27
    5306:	af 91       	pop	r26
    5308:	9f 91       	pop	r25
    530a:	8f 91       	pop	r24
    530c:	2f 91       	pop	r18
    530e:	0f 90       	pop	r0
    5310:	0b be       	out	0x3b, r0	; 59
    5312:	0f 90       	pop	r0
    5314:	0f be       	out	0x3f, r0	; 63
    5316:	0f 90       	pop	r0
    5318:	1f 90       	pop	r1
    531a:	18 95       	reti

0000531c <__vector_54>:
    531c:	1f 92       	push	r1
    531e:	0f 92       	push	r0
    5320:	0f b6       	in	r0, 0x3f	; 63
    5322:	0f 92       	push	r0
    5324:	11 24       	eor	r1, r1
    5326:	0b b6       	in	r0, 0x3b	; 59
    5328:	0f 92       	push	r0
    532a:	2f 93       	push	r18
    532c:	3f 93       	push	r19
    532e:	4f 93       	push	r20
    5330:	5f 93       	push	r21
    5332:	6f 93       	push	r22
    5334:	7f 93       	push	r23
    5336:	8f 93       	push	r24
    5338:	9f 93       	push	r25
    533a:	af 93       	push	r26
    533c:	bf 93       	push	r27
    533e:	cf 93       	push	r28
    5340:	df 93       	push	r29
    5342:	ef 93       	push	r30
    5344:	ff 93       	push	r31
    5346:	a0 91 16 09 	lds	r26, 0x0916	; 0x800916 <_ser_handle+0x6>
    534a:	b0 91 17 09 	lds	r27, 0x0917	; 0x800917 <_ser_handle+0x7>
    534e:	10 97       	sbiw	r26, 0x00	; 0
    5350:	11 f1       	breq	.+68     	; 0x5396 <__vector_54+0x7a>
    5352:	60 91 36 01 	lds	r22, 0x0136	; 0x800136 <__TEXT_REGION_LENGTH__+0x700136>
    5356:	14 96       	adiw	r26, 0x04	; 4
    5358:	ed 91       	ld	r30, X+
    535a:	fc 91       	ld	r31, X
    535c:	15 97       	sbiw	r26, 0x05	; 5
    535e:	93 81       	ldd	r25, Z+3	; 0x03
    5360:	82 81       	ldd	r24, Z+2	; 0x02
    5362:	25 81       	ldd	r18, Z+5	; 0x05
    5364:	98 1b       	sub	r25, r24
    5366:	92 23       	and	r25, r18
    5368:	84 81       	ldd	r24, Z+4	; 0x04
    536a:	98 17       	cp	r25, r24
    536c:	61 f0       	breq	.+24     	; 0x5386 <__vector_54+0x6a>
    536e:	83 81       	ldd	r24, Z+3	; 0x03
    5370:	26 95       	lsr	r18
    5372:	28 23       	and	r18, r24
    5374:	c0 81       	ld	r28, Z
    5376:	d1 81       	ldd	r29, Z+1	; 0x01
    5378:	c2 0f       	add	r28, r18
    537a:	d1 1d       	adc	r29, r1
    537c:	68 83       	st	Y, r22
    537e:	8f 5f       	subi	r24, 0xFF	; 255
    5380:	95 81       	ldd	r25, Z+5	; 0x05
    5382:	89 23       	and	r24, r25
    5384:	83 83       	std	Z+3, r24	; 0x03
    5386:	16 96       	adiw	r26, 0x06	; 6
    5388:	ed 91       	ld	r30, X+
    538a:	fc 91       	ld	r31, X
    538c:	17 97       	sbiw	r26, 0x07	; 7
    538e:	30 97       	sbiw	r30, 0x00	; 0
    5390:	11 f0       	breq	.+4      	; 0x5396 <__vector_54+0x7a>
    5392:	cd 01       	movw	r24, r26
    5394:	19 95       	eicall
    5396:	ff 91       	pop	r31
    5398:	ef 91       	pop	r30
    539a:	df 91       	pop	r29
    539c:	cf 91       	pop	r28
    539e:	bf 91       	pop	r27
    53a0:	af 91       	pop	r26
    53a2:	9f 91       	pop	r25
    53a4:	8f 91       	pop	r24
    53a6:	7f 91       	pop	r23
    53a8:	6f 91       	pop	r22
    53aa:	5f 91       	pop	r21
    53ac:	4f 91       	pop	r20
    53ae:	3f 91       	pop	r19
    53b0:	2f 91       	pop	r18
    53b2:	0f 90       	pop	r0
    53b4:	0b be       	out	0x3b, r0	; 59
    53b6:	0f 90       	pop	r0
    53b8:	0f be       	out	0x3f, r0	; 63
    53ba:	0f 90       	pop	r0
    53bc:	1f 90       	pop	r1
    53be:	18 95       	reti

000053c0 <__vector_55>:
    53c0:	1f 92       	push	r1
    53c2:	0f 92       	push	r0
    53c4:	0f b6       	in	r0, 0x3f	; 63
    53c6:	0f 92       	push	r0
    53c8:	11 24       	eor	r1, r1
    53ca:	0b b6       	in	r0, 0x3b	; 59
    53cc:	0f 92       	push	r0
    53ce:	2f 93       	push	r18
    53d0:	8f 93       	push	r24
    53d2:	9f 93       	push	r25
    53d4:	af 93       	push	r26
    53d6:	bf 93       	push	r27
    53d8:	ef 93       	push	r30
    53da:	ff 93       	push	r31
    53dc:	e0 91 16 09 	lds	r30, 0x0916	; 0x800916 <_ser_handle+0x6>
    53e0:	f0 91 17 09 	lds	r31, 0x0917	; 0x800917 <_ser_handle+0x7>
    53e4:	30 97       	sbiw	r30, 0x00	; 0
    53e6:	b9 f0       	breq	.+46     	; 0x5416 <__vector_55+0x56>
    53e8:	02 80       	ldd	r0, Z+2	; 0x02
    53ea:	f3 81       	ldd	r31, Z+3	; 0x03
    53ec:	e0 2d       	mov	r30, r0
    53ee:	93 81       	ldd	r25, Z+3	; 0x03
    53f0:	82 81       	ldd	r24, Z+2	; 0x02
    53f2:	98 17       	cp	r25, r24
    53f4:	b1 f0       	breq	.+44     	; 0x5422 <__vector_55+0x62>
    53f6:	92 81       	ldd	r25, Z+2	; 0x02
    53f8:	85 81       	ldd	r24, Z+5	; 0x05
    53fa:	28 2f       	mov	r18, r24
    53fc:	26 95       	lsr	r18
    53fe:	29 23       	and	r18, r25
    5400:	a0 81       	ld	r26, Z
    5402:	b1 81       	ldd	r27, Z+1	; 0x01
    5404:	a2 0f       	add	r26, r18
    5406:	b1 1d       	adc	r27, r1
    5408:	2c 91       	ld	r18, X
    540a:	9f 5f       	subi	r25, 0xFF	; 255
    540c:	89 23       	and	r24, r25
    540e:	82 83       	std	Z+2, r24	; 0x02
    5410:	20 93 36 01 	sts	0x0136, r18	; 0x800136 <__TEXT_REGION_LENGTH__+0x700136>
    5414:	0b c0       	rjmp	.+22     	; 0x542c <__vector_55+0x6c>
    5416:	e1 e3       	ldi	r30, 0x31	; 49
    5418:	f1 e0       	ldi	r31, 0x01	; 1
    541a:	80 81       	ld	r24, Z
    541c:	8f 7d       	andi	r24, 0xDF	; 223
    541e:	80 83       	st	Z, r24
    5420:	05 c0       	rjmp	.+10     	; 0x542c <__vector_55+0x6c>
    5422:	e1 e3       	ldi	r30, 0x31	; 49
    5424:	f1 e0       	ldi	r31, 0x01	; 1
    5426:	80 81       	ld	r24, Z
    5428:	8f 7d       	andi	r24, 0xDF	; 223
    542a:	80 83       	st	Z, r24
    542c:	ff 91       	pop	r31
    542e:	ef 91       	pop	r30
    5430:	bf 91       	pop	r27
    5432:	af 91       	pop	r26
    5434:	9f 91       	pop	r25
    5436:	8f 91       	pop	r24
    5438:	2f 91       	pop	r18
    543a:	0f 90       	pop	r0
    543c:	0b be       	out	0x3b, r0	; 59
    543e:	0f 90       	pop	r0
    5440:	0f be       	out	0x3f, r0	; 63
    5442:	0f 90       	pop	r0
    5444:	1f 90       	pop	r1
    5446:	18 95       	reti

00005448 <fifo_init>:
    5448:	fc 01       	movw	r30, r24
    544a:	41 11       	cpse	r20, r1
    544c:	02 c0       	rjmp	.+4      	; 0x5452 <fifo_init+0xa>
    544e:	0e 94 b9 36 	call	0x6d72	; 0x6d72 <abort>
    5452:	84 2f       	mov	r24, r20
    5454:	90 e0       	ldi	r25, 0x00	; 0
    5456:	9c 01       	movw	r18, r24
    5458:	21 50       	subi	r18, 0x01	; 1
    545a:	31 09       	sbc	r19, r1
    545c:	82 23       	and	r24, r18
    545e:	93 23       	and	r25, r19
    5460:	89 2b       	or	r24, r25
    5462:	11 f0       	breq	.+4      	; 0x5468 <fifo_init+0x20>
    5464:	0e 94 b9 36 	call	0x6d72	; 0x6d72 <abort>
    5468:	41 38       	cpi	r20, 0x81	; 129
    546a:	10 f0       	brcs	.+4      	; 0x5470 <fifo_init+0x28>
    546c:	0e 94 b9 36 	call	0x6d72	; 0x6d72 <abort>
    5470:	12 82       	std	Z+2, r1	; 0x02
    5472:	13 82       	std	Z+3, r1	; 0x03
    5474:	44 83       	std	Z+4, r20	; 0x04
    5476:	44 0f       	add	r20, r20
    5478:	41 50       	subi	r20, 0x01	; 1
    547a:	45 83       	std	Z+5, r20	; 0x05
    547c:	71 83       	std	Z+1, r23	; 0x01
    547e:	60 83       	st	Z, r22
    5480:	80 e0       	ldi	r24, 0x00	; 0
    5482:	90 e0       	ldi	r25, 0x00	; 0
    5484:	08 95       	ret

00005486 <hal_create>:
    5486:	e8 e7       	ldi	r30, 0x78	; 120
    5488:	fa e0       	ldi	r31, 0x0A	; 10
    548a:	24 e9       	ldi	r18, 0x94	; 148
    548c:	30 e3       	ldi	r19, 0x30	; 48
    548e:	31 83       	std	Z+1, r19	; 0x01
    5490:	20 83       	st	Z, r18
    5492:	27 e9       	ldi	r18, 0x97	; 151
    5494:	30 e3       	ldi	r19, 0x30	; 48
    5496:	33 83       	std	Z+3, r19	; 0x03
    5498:	22 83       	std	Z+2, r18	; 0x02
    549a:	22 ea       	ldi	r18, 0xA2	; 162
    549c:	30 e3       	ldi	r19, 0x30	; 48
    549e:	35 83       	std	Z+5, r19	; 0x05
    54a0:	24 83       	std	Z+4, r18	; 0x04
    54a2:	26 ea       	ldi	r18, 0xA6	; 166
    54a4:	30 e3       	ldi	r19, 0x30	; 48
    54a6:	37 83       	std	Z+7, r19	; 0x07
    54a8:	26 83       	std	Z+6, r18	; 0x06
    54aa:	2c ea       	ldi	r18, 0xAC	; 172
    54ac:	30 e3       	ldi	r19, 0x30	; 48
    54ae:	31 87       	std	Z+9, r19	; 0x09
    54b0:	20 87       	std	Z+8, r18	; 0x08
    54b2:	28 eb       	ldi	r18, 0xB8	; 184
    54b4:	30 e3       	ldi	r19, 0x30	; 48
    54b6:	33 87       	std	Z+11, r19	; 0x0b
    54b8:	22 87       	std	Z+10, r18	; 0x0a
    54ba:	2d eb       	ldi	r18, 0xBD	; 189
    54bc:	30 e3       	ldi	r19, 0x30	; 48
    54be:	35 87       	std	Z+13, r19	; 0x0d
    54c0:	24 87       	std	Z+12, r18	; 0x0c
    54c2:	29 ec       	ldi	r18, 0xC9	; 201
    54c4:	30 e3       	ldi	r19, 0x30	; 48
    54c6:	37 87       	std	Z+15, r19	; 0x0f
    54c8:	26 87       	std	Z+14, r18	; 0x0e
    54ca:	29 ea       	ldi	r18, 0xA9	; 169
    54cc:	30 e3       	ldi	r19, 0x30	; 48
    54ce:	31 8b       	std	Z+17, r19	; 0x11
    54d0:	20 8b       	std	Z+16, r18	; 0x10
    54d2:	2e ec       	ldi	r18, 0xCE	; 206
    54d4:	30 e3       	ldi	r19, 0x30	; 48
    54d6:	33 8b       	std	Z+19, r19	; 0x13
    54d8:	22 8b       	std	Z+18, r18	; 0x12
    54da:	2b ed       	ldi	r18, 0xDB	; 219
    54dc:	30 e3       	ldi	r19, 0x30	; 48
    54de:	35 8b       	std	Z+21, r19	; 0x15
    54e0:	24 8b       	std	Z+20, r18	; 0x14
    54e2:	68 2f       	mov	r22, r24
    54e4:	cf 01       	movw	r24, r30
    54e6:	2f c1       	rjmp	.+606    	; 0x5746 <led_create>
    54e8:	08 95       	ret

000054ea <_hihTwiCallback>:
    54ea:	65 30       	cpi	r22, 0x05	; 5
    54ec:	f1 f4       	brne	.+60     	; 0x552a <_hihTwiCallback+0x40>
    54ee:	fa 01       	movw	r30, r20
    54f0:	80 81       	ld	r24, Z
    54f2:	8f 73       	andi	r24, 0x3F	; 63
    54f4:	90 e0       	ldi	r25, 0x00	; 0
    54f6:	98 2f       	mov	r25, r24
    54f8:	88 27       	eor	r24, r24
    54fa:	21 81       	ldd	r18, Z+1	; 0x01
    54fc:	82 2b       	or	r24, r18
    54fe:	90 93 1f 02 	sts	0x021F, r25	; 0x80021f <_hum+0x1>
    5502:	80 93 1e 02 	sts	0x021E, r24	; 0x80021e <_hum>
    5506:	82 81       	ldd	r24, Z+2	; 0x02
    5508:	f0 e4       	ldi	r31, 0x40	; 64
    550a:	8f 9f       	mul	r24, r31
    550c:	c0 01       	movw	r24, r0
    550e:	11 24       	eor	r1, r1
    5510:	fa 01       	movw	r30, r20
    5512:	23 81       	ldd	r18, Z+3	; 0x03
    5514:	26 95       	lsr	r18
    5516:	26 95       	lsr	r18
    5518:	82 2b       	or	r24, r18
    551a:	90 93 1d 02 	sts	0x021D, r25	; 0x80021d <_temp+0x1>
    551e:	80 93 1c 02 	sts	0x021C, r24	; 0x80021c <_temp>
    5522:	81 e0       	ldi	r24, 0x01	; 1
    5524:	80 93 18 09 	sts	0x0918, r24	; 0x800918 <_measuringIsReady>
    5528:	08 95       	ret
    552a:	64 30       	cpi	r22, 0x04	; 4
    552c:	51 f0       	breq	.+20     	; 0x5542 <_hihTwiCallback+0x58>
    552e:	80 e0       	ldi	r24, 0x00	; 0
    5530:	90 e4       	ldi	r25, 0x40	; 64
    5532:	90 93 1d 02 	sts	0x021D, r25	; 0x80021d <_temp+0x1>
    5536:	80 93 1c 02 	sts	0x021C, r24	; 0x80021c <_temp>
    553a:	90 93 1f 02 	sts	0x021F, r25	; 0x80021f <_hum+0x1>
    553e:	80 93 1e 02 	sts	0x021E, r24	; 0x80021e <_hum>
    5542:	08 95       	ret

00005544 <hih8120Create>:
    5544:	0f 93       	push	r16
    5546:	1f 93       	push	r17
    5548:	05 e7       	ldi	r16, 0x75	; 117
    554a:	1a e2       	ldi	r17, 0x2A	; 42
    554c:	20 e0       	ldi	r18, 0x00	; 0
    554e:	34 e2       	ldi	r19, 0x24	; 36
    5550:	44 ef       	ldi	r20, 0xF4	; 244
    5552:	50 e0       	ldi	r21, 0x00	; 0
    5554:	60 e0       	ldi	r22, 0x00	; 0
    5556:	87 e2       	ldi	r24, 0x27	; 39
    5558:	ff d6       	rcall	.+3582   	; 0x6358 <twiCreate>
    555a:	90 93 1a 09 	sts	0x091A, r25	; 0x80091a <_hih8120Handler+0x1>
    555e:	80 93 19 09 	sts	0x0919, r24	; 0x800919 <_hih8120Handler>
    5562:	21 e0       	ldi	r18, 0x01	; 1
    5564:	89 2b       	or	r24, r25
    5566:	09 f0       	breq	.+2      	; 0x556a <hih8120Create+0x26>
    5568:	20 e0       	ldi	r18, 0x00	; 0
    556a:	82 2f       	mov	r24, r18
    556c:	1f 91       	pop	r17
    556e:	0f 91       	pop	r16
    5570:	08 95       	ret

00005572 <hih8120Wakeup>:
    5572:	80 91 19 09 	lds	r24, 0x0919	; 0x800919 <_hih8120Handler>
    5576:	90 91 1a 09 	lds	r25, 0x091A	; 0x80091a <_hih8120Handler+0x1>
    557a:	00 97       	sbiw	r24, 0x00	; 0
    557c:	51 f0       	breq	.+20     	; 0x5592 <hih8120Wakeup+0x20>
    557e:	40 e0       	ldi	r20, 0x00	; 0
    5580:	60 e0       	ldi	r22, 0x00	; 0
    5582:	70 e0       	ldi	r23, 0x00	; 0
    5584:	3a d7       	rcall	.+3700   	; 0x63fa <twiTransmit>
    5586:	84 30       	cpi	r24, 0x04	; 4
    5588:	31 f4       	brne	.+12     	; 0x5596 <hih8120Wakeup+0x24>
    558a:	10 92 18 09 	sts	0x0918, r1	; 0x800918 <_measuringIsReady>
    558e:	80 e0       	ldi	r24, 0x00	; 0
    5590:	08 95       	ret
    5592:	82 e0       	ldi	r24, 0x02	; 2
    5594:	08 95       	ret
    5596:	83 e0       	ldi	r24, 0x03	; 3
    5598:	08 95       	ret

0000559a <hih8120Meassure>:
    559a:	80 91 19 09 	lds	r24, 0x0919	; 0x800919 <_hih8120Handler>
    559e:	90 91 1a 09 	lds	r25, 0x091A	; 0x80091a <_hih8120Handler+0x1>
    55a2:	00 97       	sbiw	r24, 0x00	; 0
    55a4:	31 f0       	breq	.+12     	; 0x55b2 <hih8120Meassure+0x18>
    55a6:	64 e0       	ldi	r22, 0x04	; 4
    55a8:	74 d7       	rcall	.+3816   	; 0x6492 <twiReceive>
    55aa:	85 30       	cpi	r24, 0x05	; 5
    55ac:	21 f0       	breq	.+8      	; 0x55b6 <hih8120Meassure+0x1c>
    55ae:	83 e0       	ldi	r24, 0x03	; 3
    55b0:	08 95       	ret
    55b2:	82 e0       	ldi	r24, 0x02	; 2
    55b4:	08 95       	ret
    55b6:	80 e0       	ldi	r24, 0x00	; 0
    55b8:	08 95       	ret

000055ba <hih8120GetTemperature>:
    55ba:	60 91 1c 02 	lds	r22, 0x021C	; 0x80021c <_temp>
    55be:	70 91 1d 02 	lds	r23, 0x021D	; 0x80021d <_temp+0x1>
    55c2:	80 e0       	ldi	r24, 0x00	; 0
    55c4:	90 e0       	ldi	r25, 0x00	; 0
    55c6:	0e 94 65 34 	call	0x68ca	; 0x68ca <__floatunsisf>
    55ca:	20 e0       	ldi	r18, 0x00	; 0
    55cc:	30 e0       	ldi	r19, 0x00	; 0
    55ce:	45 e2       	ldi	r20, 0x25	; 37
    55d0:	53 e4       	ldi	r21, 0x43	; 67
    55d2:	0e 94 1b 35 	call	0x6a36	; 0x6a36 <__mulsf3>
    55d6:	20 e0       	ldi	r18, 0x00	; 0
    55d8:	38 ef       	ldi	r19, 0xF8	; 248
    55da:	4f e7       	ldi	r20, 0x7F	; 127
    55dc:	56 e4       	ldi	r21, 0x46	; 70
    55de:	0e 94 cc 33 	call	0x6798	; 0x6798 <__divsf3>
    55e2:	20 e0       	ldi	r18, 0x00	; 0
    55e4:	30 e0       	ldi	r19, 0x00	; 0
    55e6:	40 e2       	ldi	r20, 0x20	; 32
    55e8:	52 e4       	ldi	r21, 0x42	; 66
    55ea:	0c 94 63 33 	jmp	0x66c6	; 0x66c6 <__subsf3>
    55ee:	08 95       	ret

000055f0 <hih8120GetTemperature_x10>:
    55f0:	e4 df       	rcall	.-56     	; 0x55ba <hih8120GetTemperature>
    55f2:	20 e0       	ldi	r18, 0x00	; 0
    55f4:	30 e0       	ldi	r19, 0x00	; 0
    55f6:	40 e2       	ldi	r20, 0x20	; 32
    55f8:	51 e4       	ldi	r21, 0x41	; 65
    55fa:	0e 94 1b 35 	call	0x6a36	; 0x6a36 <__mulsf3>
    55fe:	0e 94 34 34 	call	0x6868	; 0x6868 <__fixsfsi>
    5602:	cb 01       	movw	r24, r22
    5604:	08 95       	ret

00005606 <_turn_off>:
    5606:	cf 93       	push	r28
    5608:	df 93       	push	r29
    560a:	90 e0       	ldi	r25, 0x00	; 0
    560c:	fc 01       	movw	r30, r24
    560e:	ee 0f       	add	r30, r30
    5610:	ff 1f       	adc	r31, r31
    5612:	e8 0f       	add	r30, r24
    5614:	f9 1f       	adc	r31, r25
    5616:	ee 0f       	add	r30, r30
    5618:	ff 1f       	adc	r31, r31
    561a:	e5 5e       	subi	r30, 0xE5	; 229
    561c:	f6 4f       	sbci	r31, 0xF6	; 246
    561e:	23 81       	ldd	r18, Z+3	; 0x03
    5620:	21 11       	cpse	r18, r1
    5622:	0a c0       	rjmp	.+20     	; 0x5638 <_turn_off+0x32>
    5624:	ef 01       	movw	r28, r30
    5626:	e0 91 80 0a 	lds	r30, 0x0A80	; 0x800a80 <register_access+0x8>
    562a:	f0 91 81 0a 	lds	r31, 0x0A81	; 0x800a81 <register_access+0x9>
    562e:	6a 81       	ldd	r22, Y+2	; 0x02
    5630:	88 81       	ld	r24, Y
    5632:	99 81       	ldd	r25, Y+1	; 0x01
    5634:	19 95       	eicall
    5636:	12 c0       	rjmp	.+36     	; 0x565c <_turn_off+0x56>
    5638:	dc 01       	movw	r26, r24
    563a:	aa 0f       	add	r26, r26
    563c:	bb 1f       	adc	r27, r27
    563e:	ed 01       	movw	r28, r26
    5640:	c8 0f       	add	r28, r24
    5642:	d9 1f       	adc	r29, r25
    5644:	cc 0f       	add	r28, r28
    5646:	dd 1f       	adc	r29, r29
    5648:	c5 5e       	subi	r28, 0xE5	; 229
    564a:	d6 4f       	sbci	r29, 0xF6	; 246
    564c:	e0 91 8a 0a 	lds	r30, 0x0A8A	; 0x800a8a <register_access+0x12>
    5650:	f0 91 8b 0a 	lds	r31, 0x0A8B	; 0x800a8b <register_access+0x13>
    5654:	6a 81       	ldd	r22, Y+2	; 0x02
    5656:	88 81       	ld	r24, Y
    5658:	99 81       	ldd	r25, Y+1	; 0x01
    565a:	19 95       	eicall
    565c:	df 91       	pop	r29
    565e:	cf 91       	pop	r28
    5660:	08 95       	ret

00005662 <_turn_on>:
    5662:	cf 93       	push	r28
    5664:	df 93       	push	r29
    5666:	90 e0       	ldi	r25, 0x00	; 0
    5668:	fc 01       	movw	r30, r24
    566a:	ee 0f       	add	r30, r30
    566c:	ff 1f       	adc	r31, r31
    566e:	e8 0f       	add	r30, r24
    5670:	f9 1f       	adc	r31, r25
    5672:	ee 0f       	add	r30, r30
    5674:	ff 1f       	adc	r31, r31
    5676:	e5 5e       	subi	r30, 0xE5	; 229
    5678:	f6 4f       	sbci	r31, 0xF6	; 246
    567a:	23 81       	ldd	r18, Z+3	; 0x03
    567c:	21 11       	cpse	r18, r1
    567e:	0a c0       	rjmp	.+20     	; 0x5694 <_turn_on+0x32>
    5680:	ef 01       	movw	r28, r30
    5682:	e0 91 8a 0a 	lds	r30, 0x0A8A	; 0x800a8a <register_access+0x12>
    5686:	f0 91 8b 0a 	lds	r31, 0x0A8B	; 0x800a8b <register_access+0x13>
    568a:	6a 81       	ldd	r22, Y+2	; 0x02
    568c:	88 81       	ld	r24, Y
    568e:	99 81       	ldd	r25, Y+1	; 0x01
    5690:	19 95       	eicall
    5692:	12 c0       	rjmp	.+36     	; 0x56b8 <_turn_on+0x56>
    5694:	dc 01       	movw	r26, r24
    5696:	aa 0f       	add	r26, r26
    5698:	bb 1f       	adc	r27, r27
    569a:	ed 01       	movw	r28, r26
    569c:	c8 0f       	add	r28, r24
    569e:	d9 1f       	adc	r29, r25
    56a0:	cc 0f       	add	r28, r28
    56a2:	dd 1f       	adc	r29, r29
    56a4:	c5 5e       	subi	r28, 0xE5	; 229
    56a6:	d6 4f       	sbci	r29, 0xF6	; 246
    56a8:	e0 91 80 0a 	lds	r30, 0x0A80	; 0x800a80 <register_access+0x8>
    56ac:	f0 91 81 0a 	lds	r31, 0x0A81	; 0x800a81 <register_access+0x9>
    56b0:	6a 81       	ldd	r22, Y+2	; 0x02
    56b2:	88 81       	ld	r24, Y
    56b4:	99 81       	ldd	r25, Y+1	; 0x01
    56b6:	19 95       	eicall
    56b8:	df 91       	pop	r29
    56ba:	cf 91       	pop	r28
    56bc:	08 95       	ret

000056be <_hal_led_task>:
    56be:	8d e3       	ldi	r24, 0x3D	; 61
    56c0:	95 e0       	ldi	r25, 0x05	; 5
    56c2:	0e 94 0a 37 	call	0x6e14	; 0x6e14 <puts>
    56c6:	0f 2e       	mov	r0, r31
    56c8:	f8 e7       	ldi	r31, 0x78	; 120
    56ca:	cf 2e       	mov	r12, r31
    56cc:	fa e0       	ldi	r31, 0x0A	; 10
    56ce:	df 2e       	mov	r13, r31
    56d0:	f0 2d       	mov	r31, r0
    56d2:	04 e0       	ldi	r16, 0x04	; 4
    56d4:	cb e1       	ldi	r28, 0x1B	; 27
    56d6:	d9 e0       	ldi	r29, 0x09	; 9
    56d8:	10 e0       	ldi	r17, 0x00	; 0
    56da:	8c 81       	ldd	r24, Y+4	; 0x04
    56dc:	81 30       	cpi	r24, 0x01	; 1
    56de:	69 f0       	breq	.+26     	; 0x56fa <_hal_led_task+0x3c>
    56e0:	e8 f0       	brcs	.+58     	; 0x571c <_hal_led_task+0x5e>
    56e2:	82 30       	cpi	r24, 0x02	; 2
    56e4:	39 f5       	brne	.+78     	; 0x5734 <_hal_led_task+0x76>
    56e6:	d6 01       	movw	r26, r12
    56e8:	1c 96       	adiw	r26, 0x0c	; 12
    56ea:	ed 91       	ld	r30, X+
    56ec:	fc 91       	ld	r31, X
    56ee:	1d 97       	sbiw	r26, 0x0d	; 13
    56f0:	6a 81       	ldd	r22, Y+2	; 0x02
    56f2:	88 81       	ld	r24, Y
    56f4:	99 81       	ldd	r25, Y+1	; 0x01
    56f6:	19 95       	eicall
    56f8:	1d c0       	rjmp	.+58     	; 0x5734 <_hal_led_task+0x76>
    56fa:	8d 81       	ldd	r24, Y+5	; 0x05
    56fc:	8f 5f       	subi	r24, 0xFF	; 255
    56fe:	8a 30       	cpi	r24, 0x0A	; 10
    5700:	10 f4       	brcc	.+4      	; 0x5706 <_hal_led_task+0x48>
    5702:	8d 83       	std	Y+5, r24	; 0x05
    5704:	17 c0       	rjmp	.+46     	; 0x5734 <_hal_led_task+0x76>
    5706:	1d 82       	std	Y+5, r1	; 0x05
    5708:	d6 01       	movw	r26, r12
    570a:	1c 96       	adiw	r26, 0x0c	; 12
    570c:	ed 91       	ld	r30, X+
    570e:	fc 91       	ld	r31, X
    5710:	1d 97       	sbiw	r26, 0x0d	; 13
    5712:	6a 81       	ldd	r22, Y+2	; 0x02
    5714:	88 81       	ld	r24, Y
    5716:	99 81       	ldd	r25, Y+1	; 0x01
    5718:	19 95       	eicall
    571a:	0c c0       	rjmp	.+24     	; 0x5734 <_hal_led_task+0x76>
    571c:	8d 81       	ldd	r24, Y+5	; 0x05
    571e:	88 23       	and	r24, r24
    5720:	31 f0       	breq	.+12     	; 0x572e <_hal_led_task+0x70>
    5722:	81 2f       	mov	r24, r17
    5724:	9e df       	rcall	.-196    	; 0x5662 <_turn_on>
    5726:	8d 81       	ldd	r24, Y+5	; 0x05
    5728:	81 50       	subi	r24, 0x01	; 1
    572a:	8d 83       	std	Y+5, r24	; 0x05
    572c:	03 c0       	rjmp	.+6      	; 0x5734 <_hal_led_task+0x76>
    572e:	0c 83       	std	Y+4, r16	; 0x04
    5730:	81 2f       	mov	r24, r17
    5732:	69 df       	rcall	.-302    	; 0x5606 <_turn_off>
    5734:	1f 5f       	subi	r17, 0xFF	; 255
    5736:	26 96       	adiw	r28, 0x06	; 6
    5738:	14 30       	cpi	r17, 0x04	; 4
    573a:	79 f6       	brne	.-98     	; 0x56da <_hal_led_task+0x1c>
    573c:	85 e0       	ldi	r24, 0x05	; 5
    573e:	90 e0       	ldi	r25, 0x00	; 0
    5740:	0e 94 b0 12 	call	0x2560	; 0x2560 <vTaskDelay>
    5744:	c7 cf       	rjmp	.-114    	; 0x56d4 <_hal_led_task+0x16>

00005746 <led_create>:
    5746:	cf 92       	push	r12
    5748:	df 92       	push	r13
    574a:	ef 92       	push	r14
    574c:	ff 92       	push	r15
    574e:	0f 93       	push	r16
    5750:	1f 93       	push	r17
    5752:	cf 93       	push	r28
    5754:	df 93       	push	r29
    5756:	06 2f       	mov	r16, r22
    5758:	0f 2e       	mov	r0, r31
    575a:	f8 e7       	ldi	r31, 0x78	; 120
    575c:	ef 2e       	mov	r14, r31
    575e:	fa e0       	ldi	r31, 0x0A	; 10
    5760:	ff 2e       	mov	r15, r31
    5762:	f0 2d       	mov	r31, r0
    5764:	d7 01       	movw	r26, r14
    5766:	18 96       	adiw	r26, 0x08	; 8
    5768:	ed 91       	ld	r30, X+
    576a:	fc 91       	ld	r31, X
    576c:	19 97       	sbiw	r26, 0x09	; 9
    576e:	66 e0       	ldi	r22, 0x06	; 6
    5770:	87 e2       	ldi	r24, 0x27	; 39
    5772:	90 e0       	ldi	r25, 0x00	; 0
    5774:	19 95       	eicall
    5776:	cb e1       	ldi	r28, 0x1B	; 27
    5778:	d9 e0       	ldi	r29, 0x09	; 9
    577a:	0f 2e       	mov	r0, r31
    577c:	f8 e2       	ldi	r31, 0x28	; 40
    577e:	cf 2e       	mov	r12, r31
    5780:	d1 2c       	mov	r13, r1
    5782:	f0 2d       	mov	r31, r0
    5784:	d9 82       	std	Y+1, r13	; 0x01
    5786:	c8 82       	st	Y, r12
    5788:	86 e0       	ldi	r24, 0x06	; 6
    578a:	8a 83       	std	Y+2, r24	; 0x02
    578c:	1b 82       	std	Y+3, r1	; 0x03
    578e:	14 e0       	ldi	r17, 0x04	; 4
    5790:	1c 83       	std	Y+4, r17	; 0x04
    5792:	80 e0       	ldi	r24, 0x00	; 0
    5794:	38 df       	rcall	.-400    	; 0x5606 <_turn_off>
    5796:	d7 01       	movw	r26, r14
    5798:	18 96       	adiw	r26, 0x08	; 8
    579a:	ed 91       	ld	r30, X+
    579c:	fc 91       	ld	r31, X
    579e:	19 97       	sbiw	r26, 0x09	; 9
    57a0:	67 e0       	ldi	r22, 0x07	; 7
    57a2:	87 e2       	ldi	r24, 0x27	; 39
    57a4:	90 e0       	ldi	r25, 0x00	; 0
    57a6:	19 95       	eicall
    57a8:	df 82       	std	Y+7, r13	; 0x07
    57aa:	ce 82       	std	Y+6, r12	; 0x06
    57ac:	87 e0       	ldi	r24, 0x07	; 7
    57ae:	88 87       	std	Y+8, r24	; 0x08
    57b0:	19 86       	std	Y+9, r1	; 0x09
    57b2:	1a 87       	std	Y+10, r17	; 0x0a
    57b4:	81 e0       	ldi	r24, 0x01	; 1
    57b6:	27 df       	rcall	.-434    	; 0x5606 <_turn_off>
    57b8:	d7 01       	movw	r26, r14
    57ba:	18 96       	adiw	r26, 0x08	; 8
    57bc:	ed 91       	ld	r30, X+
    57be:	fc 91       	ld	r31, X
    57c0:	19 97       	sbiw	r26, 0x09	; 9
    57c2:	65 e0       	ldi	r22, 0x05	; 5
    57c4:	83 e3       	ldi	r24, 0x33	; 51
    57c6:	90 e0       	ldi	r25, 0x00	; 0
    57c8:	19 95       	eicall
    57ca:	d7 01       	movw	r26, r14
    57cc:	18 96       	adiw	r26, 0x08	; 8
    57ce:	ed 91       	ld	r30, X+
    57d0:	fc 91       	ld	r31, X
    57d2:	19 97       	sbiw	r26, 0x09	; 9
    57d4:	61 e0       	ldi	r22, 0x01	; 1
    57d6:	84 e3       	ldi	r24, 0x34	; 52
    57d8:	90 e0       	ldi	r25, 0x00	; 0
    57da:	19 95       	eicall
    57dc:	84 e3       	ldi	r24, 0x34	; 52
    57de:	90 e0       	ldi	r25, 0x00	; 0
    57e0:	9d 87       	std	Y+13, r25	; 0x0d
    57e2:	8c 87       	std	Y+12, r24	; 0x0c
    57e4:	85 e0       	ldi	r24, 0x05	; 5
    57e6:	8e 87       	std	Y+14, r24	; 0x0e
    57e8:	1f 86       	std	Y+15, r1	; 0x0f
    57ea:	18 8b       	std	Y+16, r17	; 0x10
    57ec:	82 e0       	ldi	r24, 0x02	; 2
    57ee:	0b df       	rcall	.-490    	; 0x5606 <_turn_off>
    57f0:	d7 01       	movw	r26, r14
    57f2:	18 96       	adiw	r26, 0x08	; 8
    57f4:	ed 91       	ld	r30, X+
    57f6:	fc 91       	ld	r31, X
    57f8:	19 97       	sbiw	r26, 0x09	; 9
    57fa:	64 e0       	ldi	r22, 0x04	; 4
    57fc:	81 e0       	ldi	r24, 0x01	; 1
    57fe:	91 e0       	ldi	r25, 0x01	; 1
    5800:	19 95       	eicall
    5802:	d7 01       	movw	r26, r14
    5804:	18 96       	adiw	r26, 0x08	; 8
    5806:	ed 91       	ld	r30, X+
    5808:	fc 91       	ld	r31, X
    580a:	19 97       	sbiw	r26, 0x09	; 9
    580c:	61 e0       	ldi	r22, 0x01	; 1
    580e:	82 e0       	ldi	r24, 0x02	; 2
    5810:	91 e0       	ldi	r25, 0x01	; 1
    5812:	19 95       	eicall
    5814:	82 e0       	ldi	r24, 0x02	; 2
    5816:	91 e0       	ldi	r25, 0x01	; 1
    5818:	9b 8b       	std	Y+19, r25	; 0x13
    581a:	8a 8b       	std	Y+18, r24	; 0x12
    581c:	1c 8b       	std	Y+20, r17	; 0x14
    581e:	1d 8a       	std	Y+21, r1	; 0x15
    5820:	1e 8b       	std	Y+22, r17	; 0x16
    5822:	83 e0       	ldi	r24, 0x03	; 3
    5824:	f0 de       	rcall	.-544    	; 0x5606 <_turn_off>
    5826:	e1 2c       	mov	r14, r1
    5828:	f1 2c       	mov	r15, r1
    582a:	20 e0       	ldi	r18, 0x00	; 0
    582c:	30 e0       	ldi	r19, 0x00	; 0
    582e:	40 ec       	ldi	r20, 0xC0	; 192
    5830:	50 e0       	ldi	r21, 0x00	; 0
    5832:	64 e5       	ldi	r22, 0x54	; 84
    5834:	75 e0       	ldi	r23, 0x05	; 5
    5836:	8f e5       	ldi	r24, 0x5F	; 95
    5838:	9b e2       	ldi	r25, 0x2B	; 43
    583a:	0e 94 df 10 	call	0x21be	; 0x21be <xTaskCreate>
    583e:	df 91       	pop	r29
    5840:	cf 91       	pop	r28
    5842:	1f 91       	pop	r17
    5844:	0f 91       	pop	r16
    5846:	ff 90       	pop	r15
    5848:	ef 90       	pop	r14
    584a:	df 90       	pop	r13
    584c:	cf 90       	pop	r12
    584e:	08 95       	ret

00005850 <led_slow_blink>:
    5850:	0f 93       	push	r16
    5852:	1f 93       	push	r17
    5854:	cf 93       	push	r28
    5856:	df 93       	push	r29
    5858:	c8 2f       	mov	r28, r24
    585a:	d0 e0       	ldi	r29, 0x00	; 0
    585c:	8e 01       	movw	r16, r28
    585e:	00 0f       	add	r16, r16
    5860:	11 1f       	adc	r17, r17
    5862:	d8 01       	movw	r26, r16
    5864:	ac 0f       	add	r26, r28
    5866:	bd 1f       	adc	r27, r29
    5868:	aa 0f       	add	r26, r26
    586a:	bb 1f       	adc	r27, r27
    586c:	a5 5e       	subi	r26, 0xE5	; 229
    586e:	b6 4f       	sbci	r27, 0xF6	; 246
    5870:	e0 91 84 0a 	lds	r30, 0x0A84	; 0x800a84 <register_access+0xc>
    5874:	f0 91 85 0a 	lds	r31, 0x0A85	; 0x800a85 <register_access+0xd>
    5878:	12 96       	adiw	r26, 0x02	; 2
    587a:	6c 91       	ld	r22, X
    587c:	12 97       	sbiw	r26, 0x02	; 2
    587e:	8d 91       	ld	r24, X+
    5880:	9c 91       	ld	r25, X
    5882:	19 95       	eicall
    5884:	c0 0f       	add	r28, r16
    5886:	d1 1f       	adc	r29, r17
    5888:	cc 0f       	add	r28, r28
    588a:	dd 1f       	adc	r29, r29
    588c:	c5 5e       	subi	r28, 0xE5	; 229
    588e:	d6 4f       	sbci	r29, 0xF6	; 246
    5890:	81 e0       	ldi	r24, 0x01	; 1
    5892:	8c 83       	std	Y+4, r24	; 0x04
    5894:	df 91       	pop	r29
    5896:	cf 91       	pop	r28
    5898:	1f 91       	pop	r17
    589a:	0f 91       	pop	r16
    589c:	08 95       	ret

0000589e <led_fast_blink>:
    589e:	0f 93       	push	r16
    58a0:	1f 93       	push	r17
    58a2:	cf 93       	push	r28
    58a4:	df 93       	push	r29
    58a6:	c8 2f       	mov	r28, r24
    58a8:	d0 e0       	ldi	r29, 0x00	; 0
    58aa:	8e 01       	movw	r16, r28
    58ac:	00 0f       	add	r16, r16
    58ae:	11 1f       	adc	r17, r17
    58b0:	d8 01       	movw	r26, r16
    58b2:	ac 0f       	add	r26, r28
    58b4:	bd 1f       	adc	r27, r29
    58b6:	aa 0f       	add	r26, r26
    58b8:	bb 1f       	adc	r27, r27
    58ba:	a5 5e       	subi	r26, 0xE5	; 229
    58bc:	b6 4f       	sbci	r27, 0xF6	; 246
    58be:	e0 91 84 0a 	lds	r30, 0x0A84	; 0x800a84 <register_access+0xc>
    58c2:	f0 91 85 0a 	lds	r31, 0x0A85	; 0x800a85 <register_access+0xd>
    58c6:	12 96       	adiw	r26, 0x02	; 2
    58c8:	6c 91       	ld	r22, X
    58ca:	12 97       	sbiw	r26, 0x02	; 2
    58cc:	8d 91       	ld	r24, X+
    58ce:	9c 91       	ld	r25, X
    58d0:	19 95       	eicall
    58d2:	c0 0f       	add	r28, r16
    58d4:	d1 1f       	adc	r29, r17
    58d6:	cc 0f       	add	r28, r28
    58d8:	dd 1f       	adc	r29, r29
    58da:	c5 5e       	subi	r28, 0xE5	; 229
    58dc:	d6 4f       	sbci	r29, 0xF6	; 246
    58de:	82 e0       	ldi	r24, 0x02	; 2
    58e0:	8c 83       	std	Y+4, r24	; 0x04
    58e2:	df 91       	pop	r29
    58e4:	cf 91       	pop	r28
    58e6:	1f 91       	pop	r17
    58e8:	0f 91       	pop	r16
    58ea:	08 95       	ret

000058ec <led_led_on>:
    58ec:	28 2f       	mov	r18, r24
    58ee:	30 e0       	ldi	r19, 0x00	; 0
    58f0:	f9 01       	movw	r30, r18
    58f2:	ee 0f       	add	r30, r30
    58f4:	ff 1f       	adc	r31, r31
    58f6:	e2 0f       	add	r30, r18
    58f8:	f3 1f       	adc	r31, r19
    58fa:	ee 0f       	add	r30, r30
    58fc:	ff 1f       	adc	r31, r31
    58fe:	e5 5e       	subi	r30, 0xE5	; 229
    5900:	f6 4f       	sbci	r31, 0xF6	; 246
    5902:	93 e0       	ldi	r25, 0x03	; 3
    5904:	94 83       	std	Z+4, r25	; 0x04
    5906:	ad ce       	rjmp	.-678    	; 0x5662 <_turn_on>
    5908:	08 95       	ret

0000590a <led_led_off>:
    590a:	28 2f       	mov	r18, r24
    590c:	30 e0       	ldi	r19, 0x00	; 0
    590e:	f9 01       	movw	r30, r18
    5910:	ee 0f       	add	r30, r30
    5912:	ff 1f       	adc	r31, r31
    5914:	e2 0f       	add	r30, r18
    5916:	f3 1f       	adc	r31, r19
    5918:	ee 0f       	add	r30, r30
    591a:	ff 1f       	adc	r31, r31
    591c:	e5 5e       	subi	r30, 0xE5	; 229
    591e:	f6 4f       	sbci	r31, 0xF6	; 246
    5920:	94 e0       	ldi	r25, 0x04	; 4
    5922:	94 83       	std	Z+4, r25	; 0x04
    5924:	70 ce       	rjmp	.-800    	; 0x5606 <_turn_off>
    5926:	08 95       	ret

00005928 <led_long_puls>:
    5928:	90 e0       	ldi	r25, 0x00	; 0
    592a:	fc 01       	movw	r30, r24
    592c:	ee 0f       	add	r30, r30
    592e:	ff 1f       	adc	r31, r31
    5930:	df 01       	movw	r26, r30
    5932:	a8 0f       	add	r26, r24
    5934:	b9 1f       	adc	r27, r25
    5936:	aa 0f       	add	r26, r26
    5938:	bb 1f       	adc	r27, r27
    593a:	a5 5e       	subi	r26, 0xE5	; 229
    593c:	b6 4f       	sbci	r27, 0xF6	; 246
    593e:	24 e0       	ldi	r18, 0x04	; 4
    5940:	15 96       	adiw	r26, 0x05	; 5
    5942:	2c 93       	st	X, r18
    5944:	15 97       	sbiw	r26, 0x05	; 5
    5946:	fd 01       	movw	r30, r26
    5948:	14 82       	std	Z+4, r1	; 0x04
    594a:	08 95       	ret

0000594c <led_short_puls>:
    594c:	90 e0       	ldi	r25, 0x00	; 0
    594e:	fc 01       	movw	r30, r24
    5950:	ee 0f       	add	r30, r30
    5952:	ff 1f       	adc	r31, r31
    5954:	df 01       	movw	r26, r30
    5956:	a8 0f       	add	r26, r24
    5958:	b9 1f       	adc	r27, r25
    595a:	aa 0f       	add	r26, r26
    595c:	bb 1f       	adc	r27, r27
    595e:	a5 5e       	subi	r26, 0xE5	; 229
    5960:	b6 4f       	sbci	r27, 0xF6	; 246
    5962:	21 e0       	ldi	r18, 0x01	; 1
    5964:	15 96       	adiw	r26, 0x05	; 5
    5966:	2c 93       	st	X, r18
    5968:	15 97       	sbiw	r26, 0x05	; 5
    596a:	fd 01       	movw	r30, r26
    596c:	14 82       	std	Z+4, r1	; 0x04
    596e:	08 95       	ret

00005970 <_serial_call_back>:
    5970:	0f 93       	push	r16
    5972:	1f 93       	push	r17
    5974:	cf 93       	push	r28
    5976:	df 93       	push	r29
    5978:	1f 92       	push	r1
    597a:	1f 92       	push	r1
    597c:	cd b7       	in	r28, 0x3d	; 61
    597e:	de b7       	in	r29, 0x3e	; 62
    5980:	8c 01       	movw	r16, r24
    5982:	19 82       	std	Y+1, r1	; 0x01
    5984:	2d c0       	rjmp	.+90     	; 0x59e0 <_serial_call_back+0x70>
    5986:	e0 91 97 09 	lds	r30, 0x0997	; 0x800997 <rec_buf_inp.2926>
    598a:	ec 32       	cpi	r30, 0x2C	; 44
    598c:	50 f4       	brcc	.+20     	; 0x59a2 <_serial_call_back+0x32>
    598e:	81 e0       	ldi	r24, 0x01	; 1
    5990:	8e 0f       	add	r24, r30
    5992:	80 93 97 09 	sts	0x0997, r24	; 0x800997 <rec_buf_inp.2926>
    5996:	f0 e0       	ldi	r31, 0x00	; 0
    5998:	e9 53       	subi	r30, 0x39	; 57
    599a:	f6 4f       	sbci	r31, 0xF6	; 246
    599c:	8a 81       	ldd	r24, Y+2	; 0x02
    599e:	80 83       	st	Z, r24
    59a0:	02 c0       	rjmp	.+4      	; 0x59a6 <_serial_call_back+0x36>
    59a2:	10 92 97 09 	sts	0x0997, r1	; 0x800997 <rec_buf_inp.2926>
    59a6:	8a 81       	ldd	r24, Y+2	; 0x02
    59a8:	8a 30       	cpi	r24, 0x0A	; 10
    59aa:	d1 f4       	brne	.+52     	; 0x59e0 <_serial_call_back+0x70>
    59ac:	40 91 97 09 	lds	r20, 0x0997	; 0x800997 <rec_buf_inp.2926>
    59b0:	50 e0       	ldi	r21, 0x00	; 0
    59b2:	fa 01       	movw	r30, r20
    59b4:	eb 53       	subi	r30, 0x3B	; 59
    59b6:	f6 4f       	sbci	r31, 0xF6	; 246
    59b8:	10 82       	st	Z, r1
    59ba:	41 50       	subi	r20, 0x01	; 1
    59bc:	51 09       	sbc	r21, r1
    59be:	9e 01       	movw	r18, r28
    59c0:	2f 5f       	subi	r18, 0xFF	; 255
    59c2:	3f 4f       	sbci	r19, 0xFF	; 255
    59c4:	67 ec       	ldi	r22, 0xC7	; 199
    59c6:	79 e0       	ldi	r23, 0x09	; 9
    59c8:	80 91 98 09 	lds	r24, 0x0998	; 0x800998 <_reply_buffer_handle>
    59cc:	90 91 99 09 	lds	r25, 0x0999	; 0x800999 <_reply_buffer_handle+0x1>
    59d0:	0e 94 21 0d 	call	0x1a42	; 0x1a42 <xStreamBufferSendFromISR>
    59d4:	89 81       	ldd	r24, Y+1	; 0x01
    59d6:	81 11       	cpse	r24, r1
    59d8:	0e 94 2b 05 	call	0xa56	; 0xa56 <vPortYield>
    59dc:	10 92 97 09 	sts	0x0997, r1	; 0x800997 <rec_buf_inp.2926>
    59e0:	be 01       	movw	r22, r28
    59e2:	6e 5f       	subi	r22, 0xFE	; 254
    59e4:	7f 4f       	sbci	r23, 0xFF	; 255
    59e6:	c8 01       	movw	r24, r16
    59e8:	bb da       	rcall	.-2698   	; 0x4f60 <serial_get_byte>
    59ea:	88 23       	and	r24, r24
    59ec:	61 f2       	breq	.-104    	; 0x5986 <_serial_call_back+0x16>
    59ee:	0f 90       	pop	r0
    59f0:	0f 90       	pop	r0
    59f2:	df 91       	pop	r29
    59f4:	cf 91       	pop	r28
    59f6:	1f 91       	pop	r17
    59f8:	0f 91       	pop	r16
    59fa:	08 95       	ret

000059fc <_upload_message>:
    59fc:	0f 93       	push	r16
    59fe:	1f 93       	push	r17
    5a00:	cf 93       	push	r28
    5a02:	df 93       	push	r29
    5a04:	8c 01       	movw	r16, r24
    5a06:	eb 01       	movw	r28, r22
    5a08:	80 91 98 09 	lds	r24, 0x0998	; 0x800998 <_reply_buffer_handle>
    5a0c:	90 91 99 09 	lds	r25, 0x0999	; 0x800999 <_reply_buffer_handle+0x1>
    5a10:	0e 94 7a 0c 	call	0x18f4	; 0x18f4 <xStreamBufferReset>
    5a14:	b8 01       	movw	r22, r16
    5a16:	83 e3       	ldi	r24, 0x33	; 51
    5a18:	99 e0       	ldi	r25, 0x09	; 9
    5a1a:	0e 94 d8 36 	call	0x6db0	; 0x6db0 <strcpy>
    5a1e:	20 97       	sbiw	r28, 0x00	; 0
    5a20:	79 f0       	breq	.+30     	; 0x5a40 <_upload_message+0x44>
    5a22:	e3 e3       	ldi	r30, 0x33	; 51
    5a24:	f9 e0       	ldi	r31, 0x09	; 9
    5a26:	01 90       	ld	r0, Z+
    5a28:	00 20       	and	r0, r0
    5a2a:	e9 f7       	brne	.-6      	; 0x5a26 <_upload_message+0x2a>
    5a2c:	31 97       	sbiw	r30, 0x01	; 1
    5a2e:	80 e2       	ldi	r24, 0x20	; 32
    5a30:	90 e0       	ldi	r25, 0x00	; 0
    5a32:	91 83       	std	Z+1, r25	; 0x01
    5a34:	80 83       	st	Z, r24
    5a36:	be 01       	movw	r22, r28
    5a38:	83 e3       	ldi	r24, 0x33	; 51
    5a3a:	99 e0       	ldi	r25, 0x09	; 9
    5a3c:	0e 94 cd 36 	call	0x6d9a	; 0x6d9a <strcat>
    5a40:	e3 e3       	ldi	r30, 0x33	; 51
    5a42:	f9 e0       	ldi	r31, 0x09	; 9
    5a44:	df 01       	movw	r26, r30
    5a46:	0d 90       	ld	r0, X+
    5a48:	00 20       	and	r0, r0
    5a4a:	e9 f7       	brne	.-6      	; 0x5a46 <_upload_message+0x4a>
    5a4c:	11 97       	sbiw	r26, 0x01	; 1
    5a4e:	8d e0       	ldi	r24, 0x0D	; 13
    5a50:	9a e0       	ldi	r25, 0x0A	; 10
    5a52:	11 96       	adiw	r26, 0x01	; 1
    5a54:	9c 93       	st	X, r25
    5a56:	8e 93       	st	-X, r24
    5a58:	12 96       	adiw	r26, 0x02	; 2
    5a5a:	1c 92       	st	X, r1
    5a5c:	01 90       	ld	r0, Z+
    5a5e:	00 20       	and	r0, r0
    5a60:	e9 f7       	brne	.-6      	; 0x5a5c <_upload_message+0x60>
    5a62:	31 97       	sbiw	r30, 0x01	; 1
    5a64:	e3 53       	subi	r30, 0x33	; 51
    5a66:	f9 40       	sbci	r31, 0x09	; 9
    5a68:	ae 2f       	mov	r26, r30
    5a6a:	83 e3       	ldi	r24, 0x33	; 51
    5a6c:	99 e0       	ldi	r25, 0x09	; 9
    5a6e:	ac 01       	movw	r20, r24
    5a70:	6a 2f       	mov	r22, r26
    5a72:	80 91 9a 09 	lds	r24, 0x099A	; 0x80099a <_rn2483_serial>
    5a76:	90 91 9b 09 	lds	r25, 0x099B	; 0x80099b <_rn2483_serial+0x1>
    5a7a:	22 da       	rcall	.-3004   	; 0x4ec0 <serial_send_bytes>
    5a7c:	81 11       	cpse	r24, r1
    5a7e:	0f c0       	rjmp	.+30     	; 0x5a9e <_upload_message+0xa2>
    5a80:	28 e2       	ldi	r18, 0x28	; 40
    5a82:	35 e0       	ldi	r19, 0x05	; 5
    5a84:	4d e2       	ldi	r20, 0x2D	; 45
    5a86:	50 e0       	ldi	r21, 0x00	; 0
    5a88:	61 e2       	ldi	r22, 0x21	; 33
    5a8a:	7a e0       	ldi	r23, 0x0A	; 10
    5a8c:	80 91 98 09 	lds	r24, 0x0998	; 0x800998 <_reply_buffer_handle>
    5a90:	90 91 99 09 	lds	r25, 0x0999	; 0x800999 <_reply_buffer_handle+0x1>
    5a94:	0e 94 09 0e 	call	0x1c12	; 0x1c12 <xStreamBufferReceive>
    5a98:	81 e2       	ldi	r24, 0x21	; 33
    5a9a:	9a e0       	ldi	r25, 0x0A	; 10
    5a9c:	02 c0       	rjmp	.+4      	; 0x5aa2 <_upload_message+0xa6>
    5a9e:	80 e0       	ldi	r24, 0x00	; 0
    5aa0:	90 e0       	ldi	r25, 0x00	; 0
    5aa2:	df 91       	pop	r29
    5aa4:	cf 91       	pop	r28
    5aa6:	1f 91       	pop	r17
    5aa8:	0f 91       	pop	r16
    5aaa:	08 95       	ret

00005aac <_reply2return_code>:
    5aac:	af 92       	push	r10
    5aae:	bf 92       	push	r11
    5ab0:	cf 92       	push	r12
    5ab2:	df 92       	push	r13
    5ab4:	ef 92       	push	r14
    5ab6:	ff 92       	push	r15
    5ab8:	0f 93       	push	r16
    5aba:	1f 93       	push	r17
    5abc:	cf 93       	push	r28
    5abe:	df 93       	push	r29
    5ac0:	6c 01       	movw	r12, r24
    5ac2:	fc 01       	movw	r30, r24
    5ac4:	01 90       	ld	r0, Z+
    5ac6:	00 20       	and	r0, r0
    5ac8:	e9 f7       	brne	.-6      	; 0x5ac4 <_reply2return_code+0x18>
    5aca:	31 97       	sbiw	r30, 0x01	; 1
    5acc:	7f 01       	movw	r14, r30
    5ace:	e8 1a       	sub	r14, r24
    5ad0:	f9 0a       	sbc	r15, r25
    5ad2:	00 ee       	ldi	r16, 0xE0	; 224
    5ad4:	17 e0       	ldi	r17, 0x07	; 7
    5ad6:	c0 e0       	ldi	r28, 0x00	; 0
    5ad8:	d0 e0       	ldi	r29, 0x00	; 0
    5ada:	f8 01       	movw	r30, r16
    5adc:	60 81       	ld	r22, Z
    5ade:	71 81       	ldd	r23, Z+1	; 0x01
    5ae0:	a7 01       	movw	r20, r14
    5ae2:	c6 01       	movw	r24, r12
    5ae4:	0e 94 df 36 	call	0x6dbe	; 0x6dbe <strncasecmp>
    5ae8:	89 2b       	or	r24, r25
    5aea:	49 f4       	brne	.+18     	; 0x5afe <_reply2return_code+0x52>
    5aec:	fe 01       	movw	r30, r28
    5aee:	ee 0f       	add	r30, r30
    5af0:	ff 1f       	adc	r31, r31
    5af2:	ec 0f       	add	r30, r28
    5af4:	fd 1f       	adc	r31, r29
    5af6:	e1 52       	subi	r30, 0x21	; 33
    5af8:	f8 4f       	sbci	r31, 0xF8	; 248
    5afa:	80 81       	ld	r24, Z
    5afc:	07 c0       	rjmp	.+14     	; 0x5b0c <_reply2return_code+0x60>
    5afe:	21 96       	adiw	r28, 0x01	; 1
    5b00:	0d 5f       	subi	r16, 0xFD	; 253
    5b02:	1f 4f       	sbci	r17, 0xFF	; 255
    5b04:	c1 31       	cpi	r28, 0x11	; 17
    5b06:	d1 05       	cpc	r29, r1
    5b08:	41 f7       	brne	.-48     	; 0x5ada <_reply2return_code+0x2e>
    5b0a:	80 e1       	ldi	r24, 0x10	; 16
    5b0c:	df 91       	pop	r29
    5b0e:	cf 91       	pop	r28
    5b10:	1f 91       	pop	r17
    5b12:	0f 91       	pop	r16
    5b14:	ff 90       	pop	r15
    5b16:	ef 90       	pop	r14
    5b18:	df 90       	pop	r13
    5b1a:	cf 90       	pop	r12
    5b1c:	bf 90       	pop	r11
    5b1e:	af 90       	pop	r10
    5b20:	08 95       	ret

00005b22 <_upload_message_rc>:
    5b22:	6c df       	rcall	.-296    	; 0x59fc <_upload_message>
    5b24:	c3 cf       	rjmp	.-122    	; 0x5aac <_reply2return_code>
    5b26:	08 95       	ret

00005b28 <lora_driver_flush_buffers>:
    5b28:	80 91 98 09 	lds	r24, 0x0998	; 0x800998 <_reply_buffer_handle>
    5b2c:	90 91 99 09 	lds	r25, 0x0999	; 0x800999 <_reply_buffer_handle+0x1>
    5b30:	0c 94 7a 0c 	jmp	0x18f4	; 0x18f4 <xStreamBufferReset>
    5b34:	08 95       	ret

00005b36 <lora_driver_create>:
    5b36:	8f 92       	push	r8
    5b38:	9f 92       	push	r9
    5b3a:	af 92       	push	r10
    5b3c:	cf 92       	push	r12
    5b3e:	ef 92       	push	r14
    5b40:	0f 93       	push	r16
    5b42:	cf 93       	push	r28
    5b44:	c8 2f       	mov	r28, r24
    5b46:	41 e0       	ldi	r20, 0x01	; 1
    5b48:	60 e0       	ldi	r22, 0x00	; 0
    5b4a:	70 e0       	ldi	r23, 0x00	; 0
    5b4c:	88 ec       	ldi	r24, 0xC8	; 200
    5b4e:	90 e0       	ldi	r25, 0x00	; 0
    5b50:	0e 94 32 0c 	call	0x1864	; 0x1864 <xStreamBufferGenericCreate>
    5b54:	90 93 99 09 	sts	0x0999, r25	; 0x800999 <_reply_buffer_handle+0x1>
    5b58:	80 93 98 09 	sts	0x0998, r24	; 0x800998 <_reply_buffer_handle>
    5b5c:	0f 2e       	mov	r0, r31
    5b5e:	f8 eb       	ldi	r31, 0xB8	; 184
    5b60:	8f 2e       	mov	r8, r31
    5b62:	fc e2       	ldi	r31, 0x2C	; 44
    5b64:	9f 2e       	mov	r9, r31
    5b66:	f0 2d       	mov	r31, r0
    5b68:	68 94       	set
    5b6a:	aa 24       	eor	r10, r10
    5b6c:	a6 f8       	bld	r10, 6
    5b6e:	68 94       	set
    5b70:	cc 24       	eor	r12, r12
    5b72:	c6 f8       	bld	r12, 6
    5b74:	e1 2c       	mov	r14, r1
    5b76:	00 e0       	ldi	r16, 0x00	; 0
    5b78:	23 e0       	ldi	r18, 0x03	; 3
    5b7a:	40 e0       	ldi	r20, 0x00	; 0
    5b7c:	51 ee       	ldi	r21, 0xE1	; 225
    5b7e:	60 e0       	ldi	r22, 0x00	; 0
    5b80:	70 e0       	ldi	r23, 0x00	; 0
    5b82:	8c 2f       	mov	r24, r28
    5b84:	d8 d8       	rcall	.-3664   	; 0x4d36 <serial_new_instance>
    5b86:	90 93 9b 09 	sts	0x099B, r25	; 0x80099b <_rn2483_serial+0x1>
    5b8a:	80 93 9a 09 	sts	0x099A, r24	; 0x80099a <_rn2483_serial>
    5b8e:	e0 91 80 0a 	lds	r30, 0x0A80	; 0x800a80 <register_access+0x8>
    5b92:	f0 91 81 0a 	lds	r31, 0x0A81	; 0x800a81 <register_access+0x9>
    5b96:	64 e0       	ldi	r22, 0x04	; 4
    5b98:	87 e0       	ldi	r24, 0x07	; 7
    5b9a:	91 e0       	ldi	r25, 0x01	; 1
    5b9c:	19 95       	eicall
    5b9e:	cf 91       	pop	r28
    5ba0:	0f 91       	pop	r16
    5ba2:	ef 90       	pop	r14
    5ba4:	cf 90       	pop	r12
    5ba6:	af 90       	pop	r10
    5ba8:	9f 90       	pop	r9
    5baa:	8f 90       	pop	r8
    5bac:	08 95       	ret

00005bae <lora_driver_reset_rn2483>:
    5bae:	88 23       	and	r24, r24
    5bb0:	49 f0       	breq	.+18     	; 0x5bc4 <lora_driver_reset_rn2483+0x16>
    5bb2:	e0 91 8a 0a 	lds	r30, 0x0A8A	; 0x800a8a <register_access+0x12>
    5bb6:	f0 91 8b 0a 	lds	r31, 0x0A8B	; 0x800a8b <register_access+0x13>
    5bba:	64 e0       	ldi	r22, 0x04	; 4
    5bbc:	88 e0       	ldi	r24, 0x08	; 8
    5bbe:	91 e0       	ldi	r25, 0x01	; 1
    5bc0:	19 95       	eicall
    5bc2:	08 95       	ret
    5bc4:	e0 91 80 0a 	lds	r30, 0x0A80	; 0x800a80 <register_access+0x8>
    5bc8:	f0 91 81 0a 	lds	r31, 0x0A81	; 0x800a81 <register_access+0x9>
    5bcc:	64 e0       	ldi	r22, 0x04	; 4
    5bce:	88 e0       	ldi	r24, 0x08	; 8
    5bd0:	91 e0       	ldi	r25, 0x01	; 1
    5bd2:	19 95       	eicall
    5bd4:	08 95       	ret

00005bd6 <lora_driver_rn2483_factory_reset>:
    5bd6:	60 e0       	ldi	r22, 0x00	; 0
    5bd8:	70 e0       	ldi	r23, 0x00	; 0
    5bda:	8b e7       	ldi	r24, 0x7B	; 123
    5bdc:	95 e0       	ldi	r25, 0x05	; 5
    5bde:	0e df       	rcall	.-484    	; 0x59fc <_upload_message>
    5be0:	e1 e2       	ldi	r30, 0x21	; 33
    5be2:	fa e0       	ldi	r31, 0x0A	; 10
    5be4:	01 90       	ld	r0, Z+
    5be6:	00 20       	and	r0, r0
    5be8:	e9 f7       	brne	.-6      	; 0x5be4 <lora_driver_rn2483_factory_reset+0xe>
    5bea:	31 97       	sbiw	r30, 0x01	; 1
    5bec:	e1 52       	subi	r30, 0x21	; 33
    5bee:	fa 40       	sbci	r31, 0x0A	; 10
    5bf0:	81 e0       	ldi	r24, 0x01	; 1
    5bf2:	75 97       	sbiw	r30, 0x15	; 21
    5bf4:	08 f0       	brcs	.+2      	; 0x5bf8 <lora_driver_rn2483_factory_reset+0x22>
    5bf6:	80 e0       	ldi	r24, 0x00	; 0
    5bf8:	08 95       	ret

00005bfa <lora_driver_get_rn2483_hweui>:
    5bfa:	cf 93       	push	r28
    5bfc:	df 93       	push	r29
    5bfe:	ec 01       	movw	r28, r24
    5c00:	60 e0       	ldi	r22, 0x00	; 0
    5c02:	70 e0       	ldi	r23, 0x00	; 0
    5c04:	8c e8       	ldi	r24, 0x8C	; 140
    5c06:	95 e0       	ldi	r25, 0x05	; 5
    5c08:	f9 de       	rcall	.-526    	; 0x59fc <_upload_message>
    5c0a:	e1 e2       	ldi	r30, 0x21	; 33
    5c0c:	fa e0       	ldi	r31, 0x0A	; 10
    5c0e:	01 90       	ld	r0, Z+
    5c10:	00 20       	and	r0, r0
    5c12:	e9 f7       	brne	.-6      	; 0x5c0e <lora_driver_get_rn2483_hweui+0x14>
    5c14:	e2 53       	subi	r30, 0x32	; 50
    5c16:	fa 40       	sbci	r31, 0x0A	; 10
    5c18:	39 f4       	brne	.+14     	; 0x5c28 <lora_driver_get_rn2483_hweui+0x2e>
    5c1a:	61 e2       	ldi	r22, 0x21	; 33
    5c1c:	7a e0       	ldi	r23, 0x0A	; 10
    5c1e:	ce 01       	movw	r24, r28
    5c20:	0e 94 d8 36 	call	0x6db0	; 0x6db0 <strcpy>
    5c24:	80 e0       	ldi	r24, 0x00	; 0
    5c26:	02 c0       	rjmp	.+4      	; 0x5c2c <lora_driver_get_rn2483_hweui+0x32>
    5c28:	18 82       	st	Y, r1
    5c2a:	81 e0       	ldi	r24, 0x01	; 1
    5c2c:	df 91       	pop	r29
    5c2e:	cf 91       	pop	r28
    5c30:	08 95       	ret

00005c32 <lora_driver_set_device_identifier>:
    5c32:	fc 01       	movw	r30, r24
    5c34:	01 90       	ld	r0, Z+
    5c36:	00 20       	and	r0, r0
    5c38:	e9 f7       	brne	.-6      	; 0x5c34 <lora_driver_set_device_identifier+0x2>
    5c3a:	9f 01       	movw	r18, r30
    5c3c:	21 51       	subi	r18, 0x11	; 17
    5c3e:	31 09       	sbc	r19, r1
    5c40:	28 17       	cp	r18, r24
    5c42:	39 07       	cpc	r19, r25
    5c44:	29 f4       	brne	.+10     	; 0x5c50 <lora_driver_set_device_identifier+0x1e>
    5c46:	bc 01       	movw	r22, r24
    5c48:	8a eb       	ldi	r24, 0xBA	; 186
    5c4a:	95 e0       	ldi	r25, 0x05	; 5
    5c4c:	6a cf       	rjmp	.-300    	; 0x5b22 <_upload_message_rc>
    5c4e:	08 95       	ret
    5c50:	89 e0       	ldi	r24, 0x09	; 9
    5c52:	08 95       	ret

00005c54 <lora_driver_set_application_identifier>:
    5c54:	fc 01       	movw	r30, r24
    5c56:	01 90       	ld	r0, Z+
    5c58:	00 20       	and	r0, r0
    5c5a:	e9 f7       	brne	.-6      	; 0x5c56 <lora_driver_set_application_identifier+0x2>
    5c5c:	9f 01       	movw	r18, r30
    5c5e:	21 51       	subi	r18, 0x11	; 17
    5c60:	31 09       	sbc	r19, r1
    5c62:	28 17       	cp	r18, r24
    5c64:	39 07       	cpc	r19, r25
    5c66:	29 f4       	brne	.+10     	; 0x5c72 <lora_driver_set_application_identifier+0x1e>
    5c68:	bc 01       	movw	r22, r24
    5c6a:	89 ec       	ldi	r24, 0xC9	; 201
    5c6c:	95 e0       	ldi	r25, 0x05	; 5
    5c6e:	59 cf       	rjmp	.-334    	; 0x5b22 <_upload_message_rc>
    5c70:	08 95       	ret
    5c72:	89 e0       	ldi	r24, 0x09	; 9
    5c74:	08 95       	ret

00005c76 <lora_driver_set_application_key>:
    5c76:	fc 01       	movw	r30, r24
    5c78:	01 90       	ld	r0, Z+
    5c7a:	00 20       	and	r0, r0
    5c7c:	e9 f7       	brne	.-6      	; 0x5c78 <lora_driver_set_application_key+0x2>
    5c7e:	9f 01       	movw	r18, r30
    5c80:	21 52       	subi	r18, 0x21	; 33
    5c82:	31 09       	sbc	r19, r1
    5c84:	28 17       	cp	r18, r24
    5c86:	39 07       	cpc	r19, r25
    5c88:	29 f4       	brne	.+10     	; 0x5c94 <lora_driver_set_application_key+0x1e>
    5c8a:	bc 01       	movw	r22, r24
    5c8c:	88 ed       	ldi	r24, 0xD8	; 216
    5c8e:	95 e0       	ldi	r25, 0x05	; 5
    5c90:	48 cf       	rjmp	.-368    	; 0x5b22 <_upload_message_rc>
    5c92:	08 95       	ret
    5c94:	89 e0       	ldi	r24, 0x09	; 9
    5c96:	08 95       	ret

00005c98 <lora_driver_save_mac>:
    5c98:	60 e0       	ldi	r22, 0x00	; 0
    5c9a:	70 e0       	ldi	r23, 0x00	; 0
    5c9c:	87 e1       	ldi	r24, 0x17	; 23
    5c9e:	96 e0       	ldi	r25, 0x06	; 6
    5ca0:	40 cf       	rjmp	.-384    	; 0x5b22 <_upload_message_rc>
    5ca2:	08 95       	ret

00005ca4 <lora_driver_join>:
    5ca4:	e8 2f       	mov	r30, r24
    5ca6:	f0 e0       	ldi	r31, 0x00	; 0
    5ca8:	ee 0f       	add	r30, r30
    5caa:	ff 1f       	adc	r31, r31
    5cac:	e5 52       	subi	r30, 0x25	; 37
    5cae:	f8 4f       	sbci	r31, 0xF8	; 248
    5cb0:	60 81       	ld	r22, Z
    5cb2:	71 81       	ldd	r23, Z+1	; 0x01
    5cb4:	80 e2       	ldi	r24, 0x20	; 32
    5cb6:	96 e0       	ldi	r25, 0x06	; 6
    5cb8:	34 df       	rcall	.-408    	; 0x5b22 <_upload_message_rc>
    5cba:	81 11       	cpse	r24, r1
    5cbc:	12 c0       	rjmp	.+36     	; 0x5ce2 <lora_driver_join+0x3e>
    5cbe:	28 e2       	ldi	r18, 0x28	; 40
    5cc0:	35 e0       	ldi	r19, 0x05	; 5
    5cc2:	4d e2       	ldi	r20, 0x2D	; 45
    5cc4:	50 e0       	ldi	r21, 0x00	; 0
    5cc6:	61 e2       	ldi	r22, 0x21	; 33
    5cc8:	7a e0       	ldi	r23, 0x0A	; 10
    5cca:	80 91 98 09 	lds	r24, 0x0998	; 0x800998 <_reply_buffer_handle>
    5cce:	90 91 99 09 	lds	r25, 0x0999	; 0x800999 <_reply_buffer_handle+0x1>
    5cd2:	0e 94 09 0e 	call	0x1c12	; 0x1c12 <xStreamBufferReceive>
    5cd6:	88 23       	and	r24, r24
    5cd8:	21 f0       	breq	.+8      	; 0x5ce2 <lora_driver_join+0x3e>
    5cda:	81 e2       	ldi	r24, 0x21	; 33
    5cdc:	9a e0       	ldi	r25, 0x0A	; 10
    5cde:	e6 ce       	rjmp	.-564    	; 0x5aac <_reply2return_code>
    5ce0:	08 95       	ret
    5ce2:	81 e2       	ldi	r24, 0x21	; 33
    5ce4:	9a e0       	ldi	r25, 0x0A	; 10
    5ce6:	e2 ce       	rjmp	.-572    	; 0x5aac <_reply2return_code>
    5ce8:	08 95       	ret

00005cea <lora_driver_sent_upload_message>:
    5cea:	cf 93       	push	r28
    5cec:	df 93       	push	r29
    5cee:	1f 92       	push	r1
    5cf0:	cd b7       	in	r28, 0x3d	; 61
    5cf2:	de b7       	in	r29, 0x3e	; 62
    5cf4:	db 01       	movw	r26, r22
    5cf6:	11 96       	adiw	r26, 0x01	; 1
    5cf8:	9c 91       	ld	r25, X
    5cfa:	11 97       	sbiw	r26, 0x01	; 1
    5cfc:	95 31       	cpi	r25, 0x15	; 21
    5cfe:	08 f0       	brcs	.+2      	; 0x5d02 <lora_driver_sent_upload_message+0x18>
    5d00:	87 c0       	rjmp	.+270    	; 0x5e10 <lora_driver_sent_upload_message+0x126>
    5d02:	99 23       	and	r25, r25
    5d04:	81 f1       	breq	.+96     	; 0x5d66 <lora_driver_sent_upload_message+0x7c>
    5d06:	60 e0       	ldi	r22, 0x00	; 0
    5d08:	70 e0       	ldi	r23, 0x00	; 0
    5d0a:	27 2f       	mov	r18, r23
    5d0c:	30 e0       	ldi	r19, 0x00	; 0
    5d0e:	46 2f       	mov	r20, r22
    5d10:	50 e0       	ldi	r21, 0x00	; 0
    5d12:	fd 01       	movw	r30, r26
    5d14:	e4 0f       	add	r30, r20
    5d16:	f5 1f       	adc	r31, r21
    5d18:	92 81       	ldd	r25, Z+2	; 0x02
    5d1a:	92 95       	swap	r25
    5d1c:	9f 70       	andi	r25, 0x0F	; 15
    5d1e:	9a 30       	cpi	r25, 0x0A	; 10
    5d20:	10 f0       	brcs	.+4      	; 0x5d26 <lora_driver_sent_upload_message+0x3c>
    5d22:	99 5c       	subi	r25, 0xC9	; 201
    5d24:	01 c0       	rjmp	.+2      	; 0x5d28 <lora_driver_sent_upload_message+0x3e>
    5d26:	90 5d       	subi	r25, 0xD0	; 208
    5d28:	f9 01       	movw	r30, r18
    5d2a:	ee 54       	subi	r30, 0x4E	; 78
    5d2c:	f6 4f       	sbci	r31, 0xF6	; 246
    5d2e:	90 83       	st	Z, r25
    5d30:	2f 5f       	subi	r18, 0xFF	; 255
    5d32:	3f 4f       	sbci	r19, 0xFF	; 255
    5d34:	fd 01       	movw	r30, r26
    5d36:	e4 0f       	add	r30, r20
    5d38:	f5 1f       	adc	r31, r21
    5d3a:	92 81       	ldd	r25, Z+2	; 0x02
    5d3c:	9f 70       	andi	r25, 0x0F	; 15
    5d3e:	49 2f       	mov	r20, r25
    5d40:	50 e0       	ldi	r21, 0x00	; 0
    5d42:	4a 30       	cpi	r20, 0x0A	; 10
    5d44:	51 05       	cpc	r21, r1
    5d46:	14 f0       	brlt	.+4      	; 0x5d4c <lora_driver_sent_upload_message+0x62>
    5d48:	99 5c       	subi	r25, 0xC9	; 201
    5d4a:	01 c0       	rjmp	.+2      	; 0x5d4e <lora_driver_sent_upload_message+0x64>
    5d4c:	90 5d       	subi	r25, 0xD0	; 208
    5d4e:	f9 01       	movw	r30, r18
    5d50:	ee 54       	subi	r30, 0x4E	; 78
    5d52:	f6 4f       	sbci	r31, 0xF6	; 246
    5d54:	90 83       	st	Z, r25
    5d56:	7e 5f       	subi	r23, 0xFE	; 254
    5d58:	6f 5f       	subi	r22, 0xFF	; 255
    5d5a:	11 96       	adiw	r26, 0x01	; 1
    5d5c:	9c 91       	ld	r25, X
    5d5e:	11 97       	sbiw	r26, 0x01	; 1
    5d60:	69 17       	cp	r22, r25
    5d62:	98 f2       	brcs	.-90     	; 0x5d0a <lora_driver_sent_upload_message+0x20>
    5d64:	01 c0       	rjmp	.+2      	; 0x5d68 <lora_driver_sent_upload_message+0x7e>
    5d66:	70 e0       	ldi	r23, 0x00	; 0
    5d68:	e7 2f       	mov	r30, r23
    5d6a:	f0 e0       	ldi	r31, 0x00	; 0
    5d6c:	ee 54       	subi	r30, 0x4E	; 78
    5d6e:	f6 4f       	sbci	r31, 0xF6	; 246
    5d70:	10 82       	st	Z, r1
    5d72:	4c 91       	ld	r20, X
    5d74:	81 11       	cpse	r24, r1
    5d76:	03 c0       	rjmp	.+6      	; 0x5d7e <lora_driver_sent_upload_message+0x94>
    5d78:	89 e2       	ldi	r24, 0x29	; 41
    5d7a:	96 e0       	ldi	r25, 0x06	; 6
    5d7c:	02 c0       	rjmp	.+4      	; 0x5d82 <lora_driver_sent_upload_message+0x98>
    5d7e:	8b e2       	ldi	r24, 0x2B	; 43
    5d80:	96 e0       	ldi	r25, 0x06	; 6
    5d82:	22 eb       	ldi	r18, 0xB2	; 178
    5d84:	39 e0       	ldi	r19, 0x09	; 9
    5d86:	3f 93       	push	r19
    5d88:	2f 93       	push	r18
    5d8a:	1f 92       	push	r1
    5d8c:	4f 93       	push	r20
    5d8e:	9f 93       	push	r25
    5d90:	8f 93       	push	r24
    5d92:	8f e2       	ldi	r24, 0x2F	; 47
    5d94:	96 e0       	ldi	r25, 0x06	; 6
    5d96:	9f 93       	push	r25
    5d98:	8f 93       	push	r24
    5d9a:	84 ef       	ldi	r24, 0xF4	; 244
    5d9c:	99 e0       	ldi	r25, 0x09	; 9
    5d9e:	9f 93       	push	r25
    5da0:	8f 93       	push	r24
    5da2:	0e 94 3a 37 	call	0x6e74	; 0x6e74 <sprintf>
    5da6:	60 e0       	ldi	r22, 0x00	; 0
    5da8:	70 e0       	ldi	r23, 0x00	; 0
    5daa:	84 ef       	ldi	r24, 0xF4	; 244
    5dac:	99 e0       	ldi	r25, 0x09	; 9
    5dae:	b9 de       	rcall	.-654    	; 0x5b22 <_upload_message_rc>
    5db0:	0f b6       	in	r0, 0x3f	; 63
    5db2:	f8 94       	cli
    5db4:	de bf       	out	0x3e, r29	; 62
    5db6:	0f be       	out	0x3f, r0	; 63
    5db8:	cd bf       	out	0x3d, r28	; 61
    5dba:	8e 30       	cpi	r24, 0x0E	; 14
    5dbc:	51 f5       	brne	.+84     	; 0x5e12 <lora_driver_sent_upload_message+0x128>
    5dbe:	87 e0       	ldi	r24, 0x07	; 7
    5dc0:	89 83       	std	Y+1, r24	; 0x01
    5dc2:	be 01       	movw	r22, r28
    5dc4:	6f 5f       	subi	r22, 0xFF	; 255
    5dc6:	7f 4f       	sbci	r23, 0xFF	; 255
    5dc8:	81 e2       	ldi	r24, 0x21	; 33
    5dca:	9a e0       	ldi	r25, 0x0A	; 10
    5dcc:	38 d1       	rcall	.+624    	; 0x603e <decode_port_no>
    5dce:	80 93 9c 09 	sts	0x099C, r24	; 0x80099c <_downlink_payload>
    5dd2:	e9 81       	ldd	r30, Y+1	; 0x01
    5dd4:	f0 e0       	ldi	r31, 0x00	; 0
    5dd6:	ef 5d       	subi	r30, 0xDF	; 223
    5dd8:	f5 4f       	sbci	r31, 0xF5	; 245
    5dda:	df 01       	movw	r26, r30
    5ddc:	0d 90       	ld	r0, X+
    5dde:	00 20       	and	r0, r0
    5de0:	e9 f7       	brne	.-6      	; 0x5ddc <lora_driver_sent_upload_message+0xf2>
    5de2:	11 97       	sbiw	r26, 0x01	; 1
    5de4:	ae 1b       	sub	r26, r30
    5de6:	bf 0b       	sbc	r27, r31
    5de8:	aa 23       	and	r26, r26
    5dea:	81 f0       	breq	.+32     	; 0x5e0c <lora_driver_sent_upload_message+0x122>
    5dec:	bb 27       	eor	r27, r27
    5dee:	11 97       	sbiw	r26, 0x01	; 1
    5df0:	cd 01       	movw	r24, r26
    5df2:	0a f4       	brpl	.+2      	; 0x5df6 <lora_driver_sent_upload_message+0x10c>
    5df4:	01 96       	adiw	r24, 0x01	; 1
    5df6:	95 95       	asr	r25
    5df8:	87 95       	ror	r24
    5dfa:	80 93 9d 09 	sts	0x099D, r24	; 0x80099d <_downlink_payload+0x1>
    5dfe:	af 01       	movw	r20, r30
    5e00:	4f 5f       	subi	r20, 0xFF	; 255
    5e02:	5f 4f       	sbci	r21, 0xFF	; 255
    5e04:	64 e1       	ldi	r22, 0x14	; 20
    5e06:	8e e9       	ldi	r24, 0x9E	; 158
    5e08:	99 e0       	ldi	r25, 0x09	; 9
    5e0a:	45 d1       	rcall	.+650    	; 0x6096 <decode_hexadecimal_string_bytes>
    5e0c:	8e e0       	ldi	r24, 0x0E	; 14
    5e0e:	01 c0       	rjmp	.+2      	; 0x5e12 <lora_driver_sent_upload_message+0x128>
    5e10:	84 e1       	ldi	r24, 0x14	; 20
    5e12:	0f 90       	pop	r0
    5e14:	df 91       	pop	r29
    5e16:	cf 91       	pop	r28
    5e18:	08 95       	ret

00005e1a <lora_driver_set_adaptive_data_rate>:
    5e1a:	81 30       	cpi	r24, 0x01	; 1
    5e1c:	19 f0       	breq	.+6      	; 0x5e24 <lora_driver_set_adaptive_data_rate+0xa>
    5e1e:	6f e3       	ldi	r22, 0x3F	; 63
    5e20:	76 e0       	ldi	r23, 0x06	; 6
    5e22:	02 c0       	rjmp	.+4      	; 0x5e28 <lora_driver_set_adaptive_data_rate+0xe>
    5e24:	6f ef       	ldi	r22, 0xFF	; 255
    5e26:	76 e0       	ldi	r23, 0x06	; 6
    5e28:	83 e4       	ldi	r24, 0x43	; 67
    5e2a:	96 e0       	ldi	r25, 0x06	; 6
    5e2c:	7a ce       	rjmp	.-780    	; 0x5b22 <_upload_message_rc>
    5e2e:	08 95       	ret

00005e30 <lora_driver_configure_to_eu868>:
    5e30:	2f 92       	push	r2
    5e32:	3f 92       	push	r3
    5e34:	4f 92       	push	r4
    5e36:	5f 92       	push	r5
    5e38:	6f 92       	push	r6
    5e3a:	7f 92       	push	r7
    5e3c:	8f 92       	push	r8
    5e3e:	9f 92       	push	r9
    5e40:	af 92       	push	r10
    5e42:	bf 92       	push	r11
    5e44:	cf 92       	push	r12
    5e46:	df 92       	push	r13
    5e48:	ef 92       	push	r14
    5e4a:	ff 92       	push	r15
    5e4c:	0f 93       	push	r16
    5e4e:	1f 93       	push	r17
    5e50:	cf 93       	push	r28
    5e52:	df 93       	push	r29
    5e54:	cd b7       	in	r28, 0x3d	; 61
    5e56:	de b7       	in	r29, 0x3e	; 62
    5e58:	a0 97       	sbiw	r28, 0x20	; 32
    5e5a:	0f b6       	in	r0, 0x3f	; 63
    5e5c:	f8 94       	cli
    5e5e:	de bf       	out	0x3e, r29	; 62
    5e60:	0f be       	out	0x3f, r0	; 63
    5e62:	cd bf       	out	0x3d, r28	; 61
    5e64:	68 e8       	ldi	r22, 0x88	; 136
    5e66:	76 e0       	ldi	r23, 0x06	; 6
    5e68:	84 e9       	ldi	r24, 0x94	; 148
    5e6a:	96 e0       	ldi	r25, 0x06	; 6
    5e6c:	c7 dd       	rcall	.-1138   	; 0x59fc <_upload_message>
    5e6e:	1e de       	rcall	.-964    	; 0x5aac <_reply2return_code>
    5e70:	81 11       	cpse	r24, r1
    5e72:	9f c0       	rjmp	.+318    	; 0x5fb2 <lora_driver_configure_to_eu868+0x182>
    5e74:	80 e2       	ldi	r24, 0x20	; 32
    5e76:	e0 ef       	ldi	r30, 0xF0	; 240
    5e78:	f4 e0       	ldi	r31, 0x04	; 4
    5e7a:	de 01       	movw	r26, r28
    5e7c:	11 96       	adiw	r26, 0x01	; 1
    5e7e:	01 90       	ld	r0, Z+
    5e80:	0d 92       	st	X+, r0
    5e82:	8a 95       	dec	r24
    5e84:	e1 f7       	brne	.-8      	; 0x5e7e <lora_driver_configure_to_eu868+0x4e>
    5e86:	9e 01       	movw	r18, r28
    5e88:	2f 5f       	subi	r18, 0xFF	; 255
    5e8a:	3f 4f       	sbci	r19, 0xFF	; 255
    5e8c:	69 01       	movw	r12, r18
    5e8e:	e1 2c       	mov	r14, r1
    5e90:	f1 2c       	mov	r15, r1
    5e92:	0f 2e       	mov	r0, r31
    5e94:	f0 ea       	ldi	r31, 0xA0	; 160
    5e96:	af 2e       	mov	r10, r31
    5e98:	f6 e0       	ldi	r31, 0x06	; 6
    5e9a:	bf 2e       	mov	r11, r31
    5e9c:	f0 2d       	mov	r31, r0
    5e9e:	04 ef       	ldi	r16, 0xF4	; 244
    5ea0:	19 e0       	ldi	r17, 0x09	; 9
    5ea2:	0f 2e       	mov	r0, r31
    5ea4:	f9 eb       	ldi	r31, 0xB9	; 185
    5ea6:	4f 2e       	mov	r4, r31
    5ea8:	f6 e0       	ldi	r31, 0x06	; 6
    5eaa:	5f 2e       	mov	r5, r31
    5eac:	f0 2d       	mov	r31, r0
    5eae:	0f 2e       	mov	r0, r31
    5eb0:	f0 ed       	ldi	r31, 0xD0	; 208
    5eb2:	8f 2e       	mov	r8, r31
    5eb4:	f6 e0       	ldi	r31, 0x06	; 6
    5eb6:	9f 2e       	mov	r9, r31
    5eb8:	f0 2d       	mov	r31, r0
    5eba:	0f 2e       	mov	r0, r31
    5ebc:	fa ee       	ldi	r31, 0xEA	; 234
    5ebe:	6f 2e       	mov	r6, r31
    5ec0:	f6 e0       	ldi	r31, 0x06	; 6
    5ec2:	7f 2e       	mov	r7, r31
    5ec4:	f0 2d       	mov	r31, r0
    5ec6:	3e 2c       	mov	r3, r14
    5ec8:	2f 2c       	mov	r2, r15
    5eca:	ff 92       	push	r15
    5ecc:	ef 92       	push	r14
    5ece:	bf 92       	push	r11
    5ed0:	af 92       	push	r10
    5ed2:	1f 93       	push	r17
    5ed4:	0f 93       	push	r16
    5ed6:	ce d7       	rcall	.+3996   	; 0x6e74 <sprintf>
    5ed8:	60 e0       	ldi	r22, 0x00	; 0
    5eda:	70 e0       	ldi	r23, 0x00	; 0
    5edc:	c8 01       	movw	r24, r16
    5ede:	8e dd       	rcall	.-1252   	; 0x59fc <_upload_message>
    5ee0:	e5 dd       	rcall	.-1078   	; 0x5aac <_reply2return_code>
    5ee2:	0f 90       	pop	r0
    5ee4:	0f 90       	pop	r0
    5ee6:	0f 90       	pop	r0
    5ee8:	0f 90       	pop	r0
    5eea:	0f 90       	pop	r0
    5eec:	0f 90       	pop	r0
    5eee:	81 11       	cpse	r24, r1
    5ef0:	60 c0       	rjmp	.+192    	; 0x5fb2 <lora_driver_configure_to_eu868+0x182>
    5ef2:	32 e0       	ldi	r19, 0x02	; 2
    5ef4:	3e 15       	cp	r19, r14
    5ef6:	e0 f4       	brcc	.+56     	; 0x5f30 <lora_driver_configure_to_eu868+0x100>
    5ef8:	f6 01       	movw	r30, r12
    5efa:	83 81       	ldd	r24, Z+3	; 0x03
    5efc:	8f 93       	push	r24
    5efe:	82 81       	ldd	r24, Z+2	; 0x02
    5f00:	8f 93       	push	r24
    5f02:	81 81       	ldd	r24, Z+1	; 0x01
    5f04:	8f 93       	push	r24
    5f06:	80 81       	ld	r24, Z
    5f08:	8f 93       	push	r24
    5f0a:	ff 92       	push	r15
    5f0c:	ef 92       	push	r14
    5f0e:	5f 92       	push	r5
    5f10:	4f 92       	push	r4
    5f12:	1f 93       	push	r17
    5f14:	0f 93       	push	r16
    5f16:	ae d7       	rcall	.+3932   	; 0x6e74 <sprintf>
    5f18:	60 e0       	ldi	r22, 0x00	; 0
    5f1a:	70 e0       	ldi	r23, 0x00	; 0
    5f1c:	c8 01       	movw	r24, r16
    5f1e:	6e dd       	rcall	.-1316   	; 0x59fc <_upload_message>
    5f20:	c5 dd       	rcall	.-1142   	; 0x5aac <_reply2return_code>
    5f22:	0f b6       	in	r0, 0x3f	; 63
    5f24:	f8 94       	cli
    5f26:	de bf       	out	0x3e, r29	; 62
    5f28:	0f be       	out	0x3f, r0	; 63
    5f2a:	cd bf       	out	0x3d, r28	; 61
    5f2c:	81 11       	cpse	r24, r1
    5f2e:	41 c0       	rjmp	.+130    	; 0x5fb2 <lora_driver_configure_to_eu868+0x182>
    5f30:	2f 92       	push	r2
    5f32:	3f 92       	push	r3
    5f34:	9f 92       	push	r9
    5f36:	8f 92       	push	r8
    5f38:	1f 93       	push	r17
    5f3a:	0f 93       	push	r16
    5f3c:	9b d7       	rcall	.+3894   	; 0x6e74 <sprintf>
    5f3e:	60 e0       	ldi	r22, 0x00	; 0
    5f40:	70 e0       	ldi	r23, 0x00	; 0
    5f42:	c8 01       	movw	r24, r16
    5f44:	5b dd       	rcall	.-1354   	; 0x59fc <_upload_message>
    5f46:	b2 dd       	rcall	.-1180   	; 0x5aac <_reply2return_code>
    5f48:	0f 90       	pop	r0
    5f4a:	0f 90       	pop	r0
    5f4c:	0f 90       	pop	r0
    5f4e:	0f 90       	pop	r0
    5f50:	0f 90       	pop	r0
    5f52:	0f 90       	pop	r0
    5f54:	81 11       	cpse	r24, r1
    5f56:	2d c0       	rjmp	.+90     	; 0x5fb2 <lora_driver_configure_to_eu868+0x182>
    5f58:	2f 92       	push	r2
    5f5a:	3f 92       	push	r3
    5f5c:	7f 92       	push	r7
    5f5e:	6f 92       	push	r6
    5f60:	1f 93       	push	r17
    5f62:	0f 93       	push	r16
    5f64:	87 d7       	rcall	.+3854   	; 0x6e74 <sprintf>
    5f66:	60 e0       	ldi	r22, 0x00	; 0
    5f68:	70 e0       	ldi	r23, 0x00	; 0
    5f6a:	c8 01       	movw	r24, r16
    5f6c:	47 dd       	rcall	.-1394   	; 0x59fc <_upload_message>
    5f6e:	9e dd       	rcall	.-1220   	; 0x5aac <_reply2return_code>
    5f70:	0f 90       	pop	r0
    5f72:	0f 90       	pop	r0
    5f74:	0f 90       	pop	r0
    5f76:	0f 90       	pop	r0
    5f78:	0f 90       	pop	r0
    5f7a:	0f 90       	pop	r0
    5f7c:	81 11       	cpse	r24, r1
    5f7e:	19 c0       	rjmp	.+50     	; 0x5fb2 <lora_driver_configure_to_eu868+0x182>
    5f80:	3f ef       	ldi	r19, 0xFF	; 255
    5f82:	e3 1a       	sub	r14, r19
    5f84:	f3 0a       	sbc	r15, r19
    5f86:	84 e0       	ldi	r24, 0x04	; 4
    5f88:	c8 0e       	add	r12, r24
    5f8a:	d1 1c       	adc	r13, r1
    5f8c:	98 e0       	ldi	r25, 0x08	; 8
    5f8e:	e9 16       	cp	r14, r25
    5f90:	f1 04       	cpc	r15, r1
    5f92:	09 f0       	breq	.+2      	; 0x5f96 <lora_driver_configure_to_eu868+0x166>
    5f94:	98 cf       	rjmp	.-208    	; 0x5ec6 <lora_driver_configure_to_eu868+0x96>
    5f96:	60 e0       	ldi	r22, 0x00	; 0
    5f98:	70 e0       	ldi	r23, 0x00	; 0
    5f9a:	82 e0       	ldi	r24, 0x02	; 2
    5f9c:	97 e0       	ldi	r25, 0x07	; 7
    5f9e:	2e dd       	rcall	.-1444   	; 0x59fc <_upload_message>
    5fa0:	85 dd       	rcall	.-1270   	; 0x5aac <_reply2return_code>
    5fa2:	81 11       	cpse	r24, r1
    5fa4:	06 c0       	rjmp	.+12     	; 0x5fb2 <lora_driver_configure_to_eu868+0x182>
    5fa6:	60 e0       	ldi	r22, 0x00	; 0
    5fa8:	70 e0       	ldi	r23, 0x00	; 0
    5faa:	83 e1       	ldi	r24, 0x13	; 19
    5fac:	97 e0       	ldi	r25, 0x07	; 7
    5fae:	26 dd       	rcall	.-1460   	; 0x59fc <_upload_message>
    5fb0:	7d dd       	rcall	.-1286   	; 0x5aac <_reply2return_code>
    5fb2:	a0 96       	adiw	r28, 0x20	; 32
    5fb4:	0f b6       	in	r0, 0x3f	; 63
    5fb6:	f8 94       	cli
    5fb8:	de bf       	out	0x3e, r29	; 62
    5fba:	0f be       	out	0x3f, r0	; 63
    5fbc:	cd bf       	out	0x3d, r28	; 61
    5fbe:	df 91       	pop	r29
    5fc0:	cf 91       	pop	r28
    5fc2:	1f 91       	pop	r17
    5fc4:	0f 91       	pop	r16
    5fc6:	ff 90       	pop	r15
    5fc8:	ef 90       	pop	r14
    5fca:	df 90       	pop	r13
    5fcc:	cf 90       	pop	r12
    5fce:	bf 90       	pop	r11
    5fd0:	af 90       	pop	r10
    5fd2:	9f 90       	pop	r9
    5fd4:	8f 90       	pop	r8
    5fd6:	7f 90       	pop	r7
    5fd8:	6f 90       	pop	r6
    5fda:	5f 90       	pop	r5
    5fdc:	4f 90       	pop	r4
    5fde:	3f 90       	pop	r3
    5fe0:	2f 90       	pop	r2
    5fe2:	08 95       	ret

00005fe4 <lora_driver_set_otaa_identity>:
    5fe4:	ef 92       	push	r14
    5fe6:	ff 92       	push	r15
    5fe8:	0f 93       	push	r16
    5fea:	1f 93       	push	r17
    5fec:	cf 93       	push	r28
    5fee:	df 93       	push	r29
    5ff0:	ec 01       	movw	r28, r24
    5ff2:	8b 01       	movw	r16, r22
    5ff4:	7a 01       	movw	r14, r20
    5ff6:	81 e0       	ldi	r24, 0x01	; 1
    5ff8:	10 df       	rcall	.-480    	; 0x5e1a <lora_driver_set_adaptive_data_rate>
    5ffa:	81 11       	cpse	r24, r1
    5ffc:	0d c0       	rjmp	.+26     	; 0x6018 <lora_driver_set_otaa_identity+0x34>
    5ffe:	ce 01       	movw	r24, r28
    6000:	29 de       	rcall	.-942    	; 0x5c54 <lora_driver_set_application_identifier>
    6002:	81 11       	cpse	r24, r1
    6004:	09 c0       	rjmp	.+18     	; 0x6018 <lora_driver_set_otaa_identity+0x34>
    6006:	c8 01       	movw	r24, r16
    6008:	36 de       	rcall	.-916    	; 0x5c76 <lora_driver_set_application_key>
    600a:	81 11       	cpse	r24, r1
    600c:	05 c0       	rjmp	.+10     	; 0x6018 <lora_driver_set_otaa_identity+0x34>
    600e:	c7 01       	movw	r24, r14
    6010:	10 de       	rcall	.-992    	; 0x5c32 <lora_driver_set_device_identifier>
    6012:	81 11       	cpse	r24, r1
    6014:	01 c0       	rjmp	.+2      	; 0x6018 <lora_driver_set_otaa_identity+0x34>
    6016:	40 de       	rcall	.-896    	; 0x5c98 <lora_driver_save_mac>
    6018:	df 91       	pop	r29
    601a:	cf 91       	pop	r28
    601c:	1f 91       	pop	r17
    601e:	0f 91       	pop	r16
    6020:	ff 90       	pop	r15
    6022:	ef 90       	pop	r14
    6024:	08 95       	ret

00006026 <lora_driver_map_return_code_to_text>:
    6026:	90 e0       	ldi	r25, 0x00	; 0
    6028:	fc 01       	movw	r30, r24
    602a:	ee 0f       	add	r30, r30
    602c:	ff 1f       	adc	r31, r31
    602e:	8e 0f       	add	r24, r30
    6030:	9f 1f       	adc	r25, r31
    6032:	fc 01       	movw	r30, r24
    6034:	e1 52       	subi	r30, 0x21	; 33
    6036:	f8 4f       	sbci	r31, 0xF8	; 248
    6038:	81 81       	ldd	r24, Z+1	; 0x01
    603a:	92 81       	ldd	r25, Z+2	; 0x02
    603c:	08 95       	ret

0000603e <decode_port_no>:
    603e:	dc 01       	movw	r26, r24
    6040:	00 97       	sbiw	r24, 0x00	; 0
    6042:	29 f1       	breq	.+74     	; 0x608e <decode_port_no+0x50>
    6044:	fb 01       	movw	r30, r22
    6046:	20 81       	ld	r18, Z
    6048:	fc 01       	movw	r30, r24
    604a:	01 90       	ld	r0, Z+
    604c:	00 20       	and	r0, r0
    604e:	e9 f7       	brne	.-6      	; 0x604a <decode_port_no+0xc>
    6050:	31 97       	sbiw	r30, 0x01	; 1
    6052:	e8 1b       	sub	r30, r24
    6054:	f9 0b       	sbc	r31, r25
    6056:	82 2f       	mov	r24, r18
    6058:	90 e0       	ldi	r25, 0x00	; 0
    605a:	e8 17       	cp	r30, r24
    605c:	f9 07       	cpc	r31, r25
    605e:	c8 f0       	brcs	.+50     	; 0x6092 <decode_port_no+0x54>
    6060:	80 e0       	ldi	r24, 0x00	; 0
    6062:	08 c0       	rjmp	.+16     	; 0x6074 <decode_port_no+0x36>
    6064:	88 0f       	add	r24, r24
    6066:	38 2f       	mov	r19, r24
    6068:	33 0f       	add	r19, r19
    606a:	33 0f       	add	r19, r19
    606c:	83 0f       	add	r24, r19
    606e:	80 53       	subi	r24, 0x30	; 48
    6070:	89 0f       	add	r24, r25
    6072:	2f 5f       	subi	r18, 0xFF	; 255
    6074:	fd 01       	movw	r30, r26
    6076:	e2 0f       	add	r30, r18
    6078:	f1 1d       	adc	r31, r1
    607a:	90 81       	ld	r25, Z
    607c:	30 ed       	ldi	r19, 0xD0	; 208
    607e:	39 0f       	add	r19, r25
    6080:	3a 30       	cpi	r19, 0x0A	; 10
    6082:	10 f4       	brcc	.+4      	; 0x6088 <decode_port_no+0x4a>
    6084:	91 11       	cpse	r25, r1
    6086:	ee cf       	rjmp	.-36     	; 0x6064 <decode_port_no+0x26>
    6088:	fb 01       	movw	r30, r22
    608a:	20 83       	st	Z, r18
    608c:	08 95       	ret
    608e:	80 e0       	ldi	r24, 0x00	; 0
    6090:	08 95       	ret
    6092:	80 e0       	ldi	r24, 0x00	; 0
    6094:	08 95       	ret

00006096 <decode_hexadecimal_string_bytes>:
    6096:	0f 93       	push	r16
    6098:	1f 93       	push	r17
    609a:	cf 93       	push	r28
    609c:	df 93       	push	r29
    609e:	dc 01       	movw	r26, r24
    60a0:	ea 01       	movw	r28, r20
    60a2:	20 97       	sbiw	r28, 0x00	; 0
    60a4:	e1 f1       	breq	.+120    	; 0x611e <decode_hexadecimal_string_bytes+0x88>
    60a6:	fa 01       	movw	r30, r20
    60a8:	01 90       	ld	r0, Z+
    60aa:	00 20       	and	r0, r0
    60ac:	e9 f7       	brne	.-6      	; 0x60a8 <decode_hexadecimal_string_bytes+0x12>
    60ae:	31 97       	sbiw	r30, 0x01	; 1
    60b0:	e4 1b       	sub	r30, r20
    60b2:	f5 0b       	sbc	r31, r21
    60b4:	32 97       	sbiw	r30, 0x02	; 2
    60b6:	10 f5       	brcc	.+68     	; 0x60fc <decode_hexadecimal_string_bytes+0x66>
    60b8:	32 c0       	rjmp	.+100    	; 0x611e <decode_hexadecimal_string_bytes+0x88>
    60ba:	8d 01       	movw	r16, r26
    60bc:	04 0f       	add	r16, r20
    60be:	15 1f       	adc	r17, r21
    60c0:	30 e0       	ldi	r19, 0x00	; 0
    60c2:	ae 01       	movw	r20, r28
    60c4:	42 0f       	add	r20, r18
    60c6:	53 1f       	adc	r21, r19
    60c8:	fa 01       	movw	r30, r20
    60ca:	90 81       	ld	r25, Z
    60cc:	91 34       	cpi	r25, 0x41	; 65
    60ce:	28 f0       	brcs	.+10     	; 0x60da <decode_hexadecimal_string_bytes+0x44>
    60d0:	97 53       	subi	r25, 0x37	; 55
    60d2:	59 2f       	mov	r21, r25
    60d4:	52 95       	swap	r21
    60d6:	50 7f       	andi	r21, 0xF0	; 240
    60d8:	03 c0       	rjmp	.+6      	; 0x60e0 <decode_hexadecimal_string_bytes+0x4a>
    60da:	59 2f       	mov	r21, r25
    60dc:	52 95       	swap	r21
    60de:	50 7f       	andi	r21, 0xF0	; 240
    60e0:	2c 0f       	add	r18, r28
    60e2:	3d 1f       	adc	r19, r29
    60e4:	f9 01       	movw	r30, r18
    60e6:	91 81       	ldd	r25, Z+1	; 0x01
    60e8:	91 34       	cpi	r25, 0x41	; 65
    60ea:	10 f0       	brcs	.+4      	; 0x60f0 <decode_hexadecimal_string_bytes+0x5a>
    60ec:	97 53       	subi	r25, 0x37	; 55
    60ee:	01 c0       	rjmp	.+2      	; 0x60f2 <decode_hexadecimal_string_bytes+0x5c>
    60f0:	90 53       	subi	r25, 0x30	; 48
    60f2:	95 0f       	add	r25, r21
    60f4:	f8 01       	movw	r30, r16
    60f6:	90 83       	st	Z, r25
    60f8:	8f 5f       	subi	r24, 0xFF	; 255
    60fa:	01 c0       	rjmp	.+2      	; 0x60fe <decode_hexadecimal_string_bytes+0x68>
    60fc:	80 e0       	ldi	r24, 0x00	; 0
    60fe:	28 2f       	mov	r18, r24
    6100:	22 0f       	add	r18, r18
    6102:	48 2f       	mov	r20, r24
    6104:	50 e0       	ldi	r21, 0x00	; 0
    6106:	fe 01       	movw	r30, r28
    6108:	01 90       	ld	r0, Z+
    610a:	00 20       	and	r0, r0
    610c:	e9 f7       	brne	.-6      	; 0x6108 <decode_hexadecimal_string_bytes+0x72>
    610e:	31 97       	sbiw	r30, 0x01	; 1
    6110:	ec 1b       	sub	r30, r28
    6112:	fd 0b       	sbc	r31, r29
    6114:	4e 17       	cp	r20, r30
    6116:	5f 07       	cpc	r21, r31
    6118:	10 f4       	brcc	.+4      	; 0x611e <decode_hexadecimal_string_bytes+0x88>
    611a:	86 13       	cpse	r24, r22
    611c:	ce cf       	rjmp	.-100    	; 0x60ba <decode_hexadecimal_string_bytes+0x24>
    611e:	df 91       	pop	r29
    6120:	cf 91       	pop	r28
    6122:	1f 91       	pop	r17
    6124:	0f 91       	pop	r16
    6126:	08 95       	ret

00006128 <reg_read_register>:
    6128:	fc 01       	movw	r30, r24
    612a:	80 81       	ld	r24, Z
    612c:	08 95       	ret

0000612e <reg_read_bit>:
    612e:	fc 01       	movw	r30, r24
    6130:	20 81       	ld	r18, Z
    6132:	81 e0       	ldi	r24, 0x01	; 1
    6134:	90 e0       	ldi	r25, 0x00	; 0
    6136:	02 c0       	rjmp	.+4      	; 0x613c <reg_read_bit+0xe>
    6138:	88 0f       	add	r24, r24
    613a:	99 1f       	adc	r25, r25
    613c:	6a 95       	dec	r22
    613e:	e2 f7       	brpl	.-8      	; 0x6138 <reg_read_bit+0xa>
    6140:	82 23       	and	r24, r18
    6142:	08 95       	ret

00006144 <reg_read_bits>:
    6144:	fc 01       	movw	r30, r24
    6146:	80 81       	ld	r24, Z
    6148:	86 23       	and	r24, r22
    614a:	08 95       	ret

0000614c <reg_set_register>:
    614c:	fc 01       	movw	r30, r24
    614e:	60 83       	st	Z, r22
    6150:	08 95       	ret

00006152 <reg_clear_register>:
    6152:	fc 01       	movw	r30, r24
    6154:	10 82       	st	Z, r1
    6156:	08 95       	ret

00006158 <reg_set_bit>:
    6158:	fc 01       	movw	r30, r24
    615a:	40 81       	ld	r20, Z
    615c:	21 e0       	ldi	r18, 0x01	; 1
    615e:	30 e0       	ldi	r19, 0x00	; 0
    6160:	02 c0       	rjmp	.+4      	; 0x6166 <reg_set_bit+0xe>
    6162:	22 0f       	add	r18, r18
    6164:	33 1f       	adc	r19, r19
    6166:	6a 95       	dec	r22
    6168:	e2 f7       	brpl	.-8      	; 0x6162 <reg_set_bit+0xa>
    616a:	24 2b       	or	r18, r20
    616c:	20 83       	st	Z, r18
    616e:	08 95       	ret

00006170 <reg_set_bits>:
    6170:	fc 01       	movw	r30, r24
    6172:	20 81       	ld	r18, Z
    6174:	62 2b       	or	r22, r18
    6176:	60 83       	st	Z, r22
    6178:	08 95       	ret

0000617a <reg_toggle_bit>:
    617a:	fc 01       	movw	r30, r24
    617c:	40 81       	ld	r20, Z
    617e:	21 e0       	ldi	r18, 0x01	; 1
    6180:	30 e0       	ldi	r19, 0x00	; 0
    6182:	02 c0       	rjmp	.+4      	; 0x6188 <reg_toggle_bit+0xe>
    6184:	22 0f       	add	r18, r18
    6186:	33 1f       	adc	r19, r19
    6188:	6a 95       	dec	r22
    618a:	e2 f7       	brpl	.-8      	; 0x6184 <reg_toggle_bit+0xa>
    618c:	24 27       	eor	r18, r20
    618e:	20 83       	st	Z, r18
    6190:	08 95       	ret

00006192 <reg_toggle_bits>:
    6192:	fc 01       	movw	r30, r24
    6194:	20 81       	ld	r18, Z
    6196:	62 27       	eor	r22, r18
    6198:	60 83       	st	Z, r22
    619a:	08 95       	ret

0000619c <reg_clear_bit>:
    619c:	fc 01       	movw	r30, r24
    619e:	90 81       	ld	r25, Z
    61a0:	21 e0       	ldi	r18, 0x01	; 1
    61a2:	30 e0       	ldi	r19, 0x00	; 0
    61a4:	02 c0       	rjmp	.+4      	; 0x61aa <reg_clear_bit+0xe>
    61a6:	22 0f       	add	r18, r18
    61a8:	33 1f       	adc	r19, r19
    61aa:	6a 95       	dec	r22
    61ac:	e2 f7       	brpl	.-8      	; 0x61a6 <reg_clear_bit+0xa>
    61ae:	20 95       	com	r18
    61b0:	29 23       	and	r18, r25
    61b2:	20 83       	st	Z, r18
    61b4:	08 95       	ret

000061b6 <reg_clear_bits>:
    61b6:	fc 01       	movw	r30, r24
    61b8:	90 81       	ld	r25, Z
    61ba:	60 95       	com	r22
    61bc:	69 23       	and	r22, r25
    61be:	60 83       	st	Z, r22
    61c0:	08 95       	ret

000061c2 <_serial_call_back>:
    61c2:	80 91 51 0a 	lds	r24, 0x0A51	; 0x800a51 <crc_sum.1941>
    61c6:	86 0f       	add	r24, r22
    61c8:	80 93 51 0a 	sts	0x0A51, r24	; 0x800a51 <crc_sum.1941>
    61cc:	90 91 54 0a 	lds	r25, 0x0A54	; 0x800a54 <_mh_state>
    61d0:	91 30       	cpi	r25, 0x01	; 1
    61d2:	79 f0       	breq	.+30     	; 0x61f2 <_serial_call_back+0x30>
    61d4:	28 f0       	brcs	.+10     	; 0x61e0 <_serial_call_back+0x1e>
    61d6:	92 30       	cpi	r25, 0x02	; 2
    61d8:	a9 f0       	breq	.+42     	; 0x6204 <_serial_call_back+0x42>
    61da:	93 30       	cpi	r25, 0x03	; 3
    61dc:	19 f1       	breq	.+70     	; 0x6224 <_serial_call_back+0x62>
    61de:	08 95       	ret
    61e0:	6f 3f       	cpi	r22, 0xFF	; 255
    61e2:	09 f0       	breq	.+2      	; 0x61e6 <_serial_call_back+0x24>
    61e4:	48 c0       	rjmp	.+144    	; 0x6276 <_serial_call_back+0xb4>
    61e6:	10 92 51 0a 	sts	0x0A51, r1	; 0x800a51 <crc_sum.1941>
    61ea:	81 e0       	ldi	r24, 0x01	; 1
    61ec:	80 93 54 0a 	sts	0x0A54, r24	; 0x800a54 <_mh_state>
    61f0:	08 95       	ret
    61f2:	66 38       	cpi	r22, 0x86	; 134
    61f4:	09 f0       	breq	.+2      	; 0x61f8 <_serial_call_back+0x36>
    61f6:	3f c0       	rjmp	.+126    	; 0x6276 <_serial_call_back+0xb4>
    61f8:	10 92 50 0a 	sts	0x0A50, r1	; 0x800a50 <inDex.1939>
    61fc:	82 e0       	ldi	r24, 0x02	; 2
    61fe:	80 93 54 0a 	sts	0x0A54, r24	; 0x800a54 <_mh_state>
    6202:	08 95       	ret
    6204:	e0 91 50 0a 	lds	r30, 0x0A50	; 0x800a50 <inDex.1939>
    6208:	81 e0       	ldi	r24, 0x01	; 1
    620a:	8e 0f       	add	r24, r30
    620c:	80 93 50 0a 	sts	0x0A50, r24	; 0x800a50 <inDex.1939>
    6210:	f0 e0       	ldi	r31, 0x00	; 0
    6212:	e2 5b       	subi	r30, 0xB2	; 178
    6214:	f5 4f       	sbci	r31, 0xF5	; 245
    6216:	60 83       	st	Z, r22
    6218:	82 30       	cpi	r24, 0x02	; 2
    621a:	69 f5       	brne	.+90     	; 0x6276 <_serial_call_back+0xb4>
    621c:	83 e0       	ldi	r24, 0x03	; 3
    621e:	80 93 54 0a 	sts	0x0A54, r24	; 0x800a54 <_mh_state>
    6222:	08 95       	ret
    6224:	90 91 50 0a 	lds	r25, 0x0A50	; 0x800a50 <inDex.1939>
    6228:	21 e0       	ldi	r18, 0x01	; 1
    622a:	29 0f       	add	r18, r25
    622c:	20 93 50 0a 	sts	0x0A50, r18	; 0x800a50 <inDex.1939>
    6230:	96 30       	cpi	r25, 0x06	; 6
    6232:	09 f5       	brne	.+66     	; 0x6276 <_serial_call_back+0xb4>
    6234:	81 11       	cpse	r24, r1
    6236:	0e c0       	rjmp	.+28     	; 0x6254 <_serial_call_back+0x92>
    6238:	ee e4       	ldi	r30, 0x4E	; 78
    623a:	fa e0       	ldi	r31, 0x0A	; 10
    623c:	80 81       	ld	r24, Z
    623e:	90 e0       	ldi	r25, 0x00	; 0
    6240:	98 2f       	mov	r25, r24
    6242:	88 27       	eor	r24, r24
    6244:	21 81       	ldd	r18, Z+1	; 0x01
    6246:	82 0f       	add	r24, r18
    6248:	91 1d       	adc	r25, r1
    624a:	90 93 56 0a 	sts	0x0A56, r25	; 0x800a56 <_ppm+0x1>
    624e:	80 93 55 0a 	sts	0x0A55, r24	; 0x800a55 <_ppm>
    6252:	04 c0       	rjmp	.+8      	; 0x625c <_serial_call_back+0x9a>
    6254:	10 92 56 0a 	sts	0x0A56, r1	; 0x800a56 <_ppm+0x1>
    6258:	10 92 55 0a 	sts	0x0A55, r1	; 0x800a55 <_ppm>
    625c:	10 92 54 0a 	sts	0x0A54, r1	; 0x800a54 <_mh_state>
    6260:	e0 91 52 0a 	lds	r30, 0x0A52	; 0x800a52 <_app_call_back>
    6264:	f0 91 53 0a 	lds	r31, 0x0A53	; 0x800a53 <_app_call_back+0x1>
    6268:	30 97       	sbiw	r30, 0x00	; 0
    626a:	29 f0       	breq	.+10     	; 0x6276 <_serial_call_back+0xb4>
    626c:	80 91 55 0a 	lds	r24, 0x0A55	; 0x800a55 <_ppm>
    6270:	90 91 56 0a 	lds	r25, 0x0A56	; 0x800a56 <_ppm+0x1>
    6274:	19 95       	eicall
    6276:	08 95       	ret

00006278 <mh_z19_create>:
    6278:	8f 92       	push	r8
    627a:	9f 92       	push	r9
    627c:	af 92       	push	r10
    627e:	cf 92       	push	r12
    6280:	ef 92       	push	r14
    6282:	0f 93       	push	r16
    6284:	cf 93       	push	r28
    6286:	df 93       	push	r29
    6288:	eb 01       	movw	r28, r22
    628a:	0f 2e       	mov	r0, r31
    628c:	f1 ee       	ldi	r31, 0xE1	; 225
    628e:	8f 2e       	mov	r8, r31
    6290:	f0 e3       	ldi	r31, 0x30	; 48
    6292:	9f 2e       	mov	r9, r31
    6294:	f0 2d       	mov	r31, r0
    6296:	68 94       	set
    6298:	aa 24       	eor	r10, r10
    629a:	a4 f8       	bld	r10, 4
    629c:	68 94       	set
    629e:	cc 24       	eor	r12, r12
    62a0:	c4 f8       	bld	r12, 4
    62a2:	e1 2c       	mov	r14, r1
    62a4:	00 e0       	ldi	r16, 0x00	; 0
    62a6:	23 e0       	ldi	r18, 0x03	; 3
    62a8:	40 e8       	ldi	r20, 0x80	; 128
    62aa:	55 e2       	ldi	r21, 0x25	; 37
    62ac:	60 e0       	ldi	r22, 0x00	; 0
    62ae:	70 e0       	ldi	r23, 0x00	; 0
    62b0:	0e 94 9b 26 	call	0x4d36	; 0x4d36 <serial_new_instance>
    62b4:	90 93 58 0a 	sts	0x0A58, r25	; 0x800a58 <_serial+0x1>
    62b8:	80 93 57 0a 	sts	0x0A57, r24	; 0x800a57 <_serial>
    62bc:	d0 93 53 0a 	sts	0x0A53, r29	; 0x800a53 <_app_call_back+0x1>
    62c0:	c0 93 52 0a 	sts	0x0A52, r28	; 0x800a52 <_app_call_back>
    62c4:	df 91       	pop	r29
    62c6:	cf 91       	pop	r28
    62c8:	0f 91       	pop	r16
    62ca:	ef 90       	pop	r14
    62cc:	cf 90       	pop	r12
    62ce:	af 90       	pop	r10
    62d0:	9f 90       	pop	r9
    62d2:	8f 90       	pop	r8
    62d4:	08 95       	ret

000062d6 <mh_z19_take_meassuring>:
    62d6:	cf 93       	push	r28
    62d8:	df 93       	push	r29
    62da:	cd b7       	in	r28, 0x3d	; 61
    62dc:	de b7       	in	r29, 0x3e	; 62
    62de:	29 97       	sbiw	r28, 0x09	; 9
    62e0:	0f b6       	in	r0, 0x3f	; 63
    62e2:	f8 94       	cli
    62e4:	de bf       	out	0x3e, r29	; 62
    62e6:	0f be       	out	0x3f, r0	; 63
    62e8:	cd bf       	out	0x3d, r28	; 61
    62ea:	89 e0       	ldi	r24, 0x09	; 9
    62ec:	e0 e1       	ldi	r30, 0x10	; 16
    62ee:	f5 e0       	ldi	r31, 0x05	; 5
    62f0:	9e 01       	movw	r18, r28
    62f2:	2f 5f       	subi	r18, 0xFF	; 255
    62f4:	3f 4f       	sbci	r19, 0xFF	; 255
    62f6:	d9 01       	movw	r26, r18
    62f8:	01 90       	ld	r0, Z+
    62fa:	0d 92       	st	X+, r0
    62fc:	8a 95       	dec	r24
    62fe:	e1 f7       	brne	.-8      	; 0x62f8 <mh_z19_take_meassuring+0x22>
    6300:	10 92 56 0a 	sts	0x0A56, r1	; 0x800a56 <_ppm+0x1>
    6304:	10 92 55 0a 	sts	0x0A55, r1	; 0x800a55 <_ppm>
    6308:	80 91 57 0a 	lds	r24, 0x0A57	; 0x800a57 <_serial>
    630c:	90 91 58 0a 	lds	r25, 0x0A58	; 0x800a58 <_serial+0x1>
    6310:	00 97       	sbiw	r24, 0x00	; 0
    6312:	39 f0       	breq	.+14     	; 0x6322 <mh_z19_take_meassuring+0x4c>
    6314:	42 2f       	mov	r20, r18
    6316:	53 2f       	mov	r21, r19
    6318:	69 e0       	ldi	r22, 0x09	; 9
    631a:	0e 94 60 27 	call	0x4ec0	; 0x4ec0 <serial_send_bytes>
    631e:	80 e0       	ldi	r24, 0x00	; 0
    6320:	01 c0       	rjmp	.+2      	; 0x6324 <mh_z19_take_meassuring+0x4e>
    6322:	82 e0       	ldi	r24, 0x02	; 2
    6324:	29 96       	adiw	r28, 0x09	; 9
    6326:	0f b6       	in	r0, 0x3f	; 63
    6328:	f8 94       	cli
    632a:	de bf       	out	0x3e, r29	; 62
    632c:	0f be       	out	0x3f, r0	; 63
    632e:	cd bf       	out	0x3d, r28	; 61
    6330:	df 91       	pop	r29
    6332:	cf 91       	pop	r28
    6334:	08 95       	ret

00006336 <_initTwiInterface>:
    6336:	80 91 67 0a 	lds	r24, 0x0A67	; 0x800a67 <_twiIsInitiated>
    633a:	81 11       	cpse	r24, r1
    633c:	0c c0       	rjmp	.+24     	; 0x6356 <_initTwiInterface+0x20>
    633e:	8c e0       	ldi	r24, 0x0C	; 12
    6340:	80 93 b8 00 	sts	0x00B8, r24	; 0x8000b8 <__TEXT_REGION_LENGTH__+0x7000b8>
    6344:	8f ef       	ldi	r24, 0xFF	; 255
    6346:	80 93 bb 00 	sts	0x00BB, r24	; 0x8000bb <__TEXT_REGION_LENGTH__+0x7000bb>
    634a:	84 e0       	ldi	r24, 0x04	; 4
    634c:	80 93 bc 00 	sts	0x00BC, r24	; 0x8000bc <__TEXT_REGION_LENGTH__+0x7000bc>
    6350:	81 e0       	ldi	r24, 0x01	; 1
    6352:	80 93 67 0a 	sts	0x0A67, r24	; 0x800a67 <_twiIsInitiated>
    6356:	08 95       	ret

00006358 <twiCreate>:
    6358:	af 92       	push	r10
    635a:	bf 92       	push	r11
    635c:	cf 92       	push	r12
    635e:	df 92       	push	r13
    6360:	ef 92       	push	r14
    6362:	ff 92       	push	r15
    6364:	0f 93       	push	r16
    6366:	1f 93       	push	r17
    6368:	cf 93       	push	r28
    636a:	df 93       	push	r29
    636c:	a8 2e       	mov	r10, r24
    636e:	b6 2e       	mov	r11, r22
    6370:	69 01       	movw	r12, r18
    6372:	7a 01       	movw	r14, r20
    6374:	84 e0       	ldi	r24, 0x04	; 4
    6376:	90 e0       	ldi	r25, 0x00	; 0
    6378:	db d3       	rcall	.+1974   	; 0x6b30 <malloc>
    637a:	ec 01       	movw	r28, r24
    637c:	89 2b       	or	r24, r25
    637e:	61 f1       	breq	.+88     	; 0x63d8 <twiCreate+0x80>
    6380:	a8 82       	st	Y, r10
    6382:	81 e0       	ldi	r24, 0x01	; 1
    6384:	b8 12       	cpse	r11, r24
    6386:	12 c0       	rjmp	.+36     	; 0x63ac <twiCreate+0x54>
    6388:	c7 01       	movw	r24, r14
    638a:	b6 01       	movw	r22, r12
    638c:	20 ea       	ldi	r18, 0xA0	; 160
    638e:	36 e8       	ldi	r19, 0x86	; 134
    6390:	41 e0       	ldi	r20, 0x01	; 1
    6392:	50 e0       	ldi	r21, 0x00	; 0
    6394:	6e d1       	rcall	.+732    	; 0x6672 <__udivmodsi4>
    6396:	da 01       	movw	r26, r20
    6398:	c9 01       	movw	r24, r18
    639a:	40 97       	sbiw	r24, 0x10	; 16
    639c:	a1 09       	sbc	r26, r1
    639e:	b1 09       	sbc	r27, r1
    63a0:	b6 95       	lsr	r27
    63a2:	a7 95       	ror	r26
    63a4:	97 95       	ror	r25
    63a6:	87 95       	ror	r24
    63a8:	89 83       	std	Y+1, r24	; 0x01
    63aa:	11 c0       	rjmp	.+34     	; 0x63ce <twiCreate+0x76>
    63ac:	c7 01       	movw	r24, r14
    63ae:	b6 01       	movw	r22, r12
    63b0:	20 e8       	ldi	r18, 0x80	; 128
    63b2:	3a e1       	ldi	r19, 0x1A	; 26
    63b4:	46 e0       	ldi	r20, 0x06	; 6
    63b6:	50 e0       	ldi	r21, 0x00	; 0
    63b8:	5c d1       	rcall	.+696    	; 0x6672 <__udivmodsi4>
    63ba:	da 01       	movw	r26, r20
    63bc:	c9 01       	movw	r24, r18
    63be:	40 97       	sbiw	r24, 0x10	; 16
    63c0:	a1 09       	sbc	r26, r1
    63c2:	b1 09       	sbc	r27, r1
    63c4:	b6 95       	lsr	r27
    63c6:	a7 95       	ror	r26
    63c8:	97 95       	ror	r25
    63ca:	87 95       	ror	r24
    63cc:	89 83       	std	Y+1, r24	; 0x01
    63ce:	1b 83       	std	Y+3, r17	; 0x03
    63d0:	0a 83       	std	Y+2, r16	; 0x02
    63d2:	8c 2f       	mov	r24, r28
    63d4:	9d 2f       	mov	r25, r29
    63d6:	02 c0       	rjmp	.+4      	; 0x63dc <twiCreate+0x84>
    63d8:	80 e0       	ldi	r24, 0x00	; 0
    63da:	90 e0       	ldi	r25, 0x00	; 0
    63dc:	df 91       	pop	r29
    63de:	cf 91       	pop	r28
    63e0:	1f 91       	pop	r17
    63e2:	0f 91       	pop	r16
    63e4:	ff 90       	pop	r15
    63e6:	ef 90       	pop	r14
    63e8:	df 90       	pop	r13
    63ea:	cf 90       	pop	r12
    63ec:	bf 90       	pop	r11
    63ee:	af 90       	pop	r10
    63f0:	08 95       	ret

000063f2 <twiIsBusy>:
    63f2:	80 91 bc 00 	lds	r24, 0x00BC	; 0x8000bc <__TEXT_REGION_LENGTH__+0x7000bc>
    63f6:	81 70       	andi	r24, 0x01	; 1
    63f8:	08 95       	ret

000063fa <twiTransmit>:
    63fa:	ff 92       	push	r15
    63fc:	0f 93       	push	r16
    63fe:	1f 93       	push	r17
    6400:	cf 93       	push	r28
    6402:	df 93       	push	r29
    6404:	00 97       	sbiw	r24, 0x00	; 0
    6406:	d1 f1       	breq	.+116    	; 0x647c <twiTransmit+0x82>
    6408:	4a 30       	cpi	r20, 0x0A	; 10
    640a:	d0 f5       	brcc	.+116    	; 0x6480 <twiTransmit+0x86>
    640c:	f4 2e       	mov	r15, r20
    640e:	8b 01       	movw	r16, r22
    6410:	ec 01       	movw	r28, r24
    6412:	ef df       	rcall	.-34     	; 0x63f2 <twiIsBusy>
    6414:	81 11       	cpse	r24, r1
    6416:	36 c0       	rjmp	.+108    	; 0x6484 <twiTransmit+0x8a>
    6418:	80 91 5a 0a 	lds	r24, 0x0A5A	; 0x800a5a <_twiCurrentHandler>
    641c:	90 91 5b 0a 	lds	r25, 0x0A5B	; 0x800a5b <_twiCurrentHandler+0x1>
    6420:	c8 17       	cp	r28, r24
    6422:	d9 07       	cpc	r29, r25
    6424:	41 f0       	breq	.+16     	; 0x6436 <twiTransmit+0x3c>
    6426:	87 df       	rcall	.-242    	; 0x6336 <_initTwiInterface>
    6428:	89 81       	ldd	r24, Y+1	; 0x01
    642a:	80 93 b8 00 	sts	0x00B8, r24	; 0x8000b8 <__TEXT_REGION_LENGTH__+0x7000b8>
    642e:	d0 93 5b 0a 	sts	0x0A5B, r29	; 0x800a5b <_twiCurrentHandler+0x1>
    6432:	c0 93 5a 0a 	sts	0x0A5A, r28	; 0x800a5a <_twiCurrentHandler>
    6436:	81 e0       	ldi	r24, 0x01	; 1
    6438:	8f 0d       	add	r24, r15
    643a:	80 93 5c 0a 	sts	0x0A5C, r24	; 0x800a5c <_twiMessageLen>
    643e:	88 81       	ld	r24, Y
    6440:	88 0f       	add	r24, r24
    6442:	80 93 5d 0a 	sts	0x0A5D, r24	; 0x800a5d <_twiMessageBuffer>
    6446:	ff 20       	and	r15, r15
    6448:	89 f0       	breq	.+34     	; 0x646c <twiTransmit+0x72>
    644a:	f8 01       	movw	r30, r16
    644c:	ae e5       	ldi	r26, 0x5E	; 94
    644e:	ba e0       	ldi	r27, 0x0A	; 10
    6450:	4f ef       	ldi	r20, 0xFF	; 255
    6452:	4f 0d       	add	r20, r15
    6454:	64 2f       	mov	r22, r20
    6456:	70 e0       	ldi	r23, 0x00	; 0
    6458:	cb 01       	movw	r24, r22
    645a:	01 96       	adiw	r24, 0x01	; 1
    645c:	b8 01       	movw	r22, r16
    645e:	68 0f       	add	r22, r24
    6460:	79 1f       	adc	r23, r25
    6462:	81 91       	ld	r24, Z+
    6464:	8d 93       	st	X+, r24
    6466:	e6 17       	cp	r30, r22
    6468:	f7 07       	cpc	r31, r23
    646a:	d9 f7       	brne	.-10     	; 0x6462 <twiTransmit+0x68>
    646c:	88 ef       	ldi	r24, 0xF8	; 248
    646e:	80 93 20 02 	sts	0x0220, r24	; 0x800220 <_twiCurrentState>
    6472:	85 ea       	ldi	r24, 0xA5	; 165
    6474:	80 93 bc 00 	sts	0x00BC, r24	; 0x8000bc <__TEXT_REGION_LENGTH__+0x7000bc>
    6478:	84 e0       	ldi	r24, 0x04	; 4
    647a:	05 c0       	rjmp	.+10     	; 0x6486 <twiTransmit+0x8c>
    647c:	86 e0       	ldi	r24, 0x06	; 6
    647e:	03 c0       	rjmp	.+6      	; 0x6486 <twiTransmit+0x8c>
    6480:	87 e0       	ldi	r24, 0x07	; 7
    6482:	01 c0       	rjmp	.+2      	; 0x6486 <twiTransmit+0x8c>
    6484:	82 e0       	ldi	r24, 0x02	; 2
    6486:	df 91       	pop	r29
    6488:	cf 91       	pop	r28
    648a:	1f 91       	pop	r17
    648c:	0f 91       	pop	r16
    648e:	ff 90       	pop	r15
    6490:	08 95       	ret

00006492 <twiReceive>:
    6492:	1f 93       	push	r17
    6494:	cf 93       	push	r28
    6496:	df 93       	push	r29
    6498:	00 97       	sbiw	r24, 0x00	; 0
    649a:	29 f1       	breq	.+74     	; 0x64e6 <twiReceive+0x54>
    649c:	6b 30       	cpi	r22, 0x0B	; 11
    649e:	28 f5       	brcc	.+74     	; 0x64ea <twiReceive+0x58>
    64a0:	16 2f       	mov	r17, r22
    64a2:	ec 01       	movw	r28, r24
    64a4:	a6 df       	rcall	.-180    	; 0x63f2 <twiIsBusy>
    64a6:	81 11       	cpse	r24, r1
    64a8:	22 c0       	rjmp	.+68     	; 0x64ee <twiReceive+0x5c>
    64aa:	80 91 5a 0a 	lds	r24, 0x0A5A	; 0x800a5a <_twiCurrentHandler>
    64ae:	90 91 5b 0a 	lds	r25, 0x0A5B	; 0x800a5b <_twiCurrentHandler+0x1>
    64b2:	c8 17       	cp	r28, r24
    64b4:	d9 07       	cpc	r29, r25
    64b6:	41 f0       	breq	.+16     	; 0x64c8 <twiReceive+0x36>
    64b8:	3e df       	rcall	.-388    	; 0x6336 <_initTwiInterface>
    64ba:	89 81       	ldd	r24, Y+1	; 0x01
    64bc:	80 93 b8 00 	sts	0x00B8, r24	; 0x8000b8 <__TEXT_REGION_LENGTH__+0x7000b8>
    64c0:	d0 93 5b 0a 	sts	0x0A5B, r29	; 0x800a5b <_twiCurrentHandler+0x1>
    64c4:	c0 93 5a 0a 	sts	0x0A5A, r28	; 0x800a5a <_twiCurrentHandler>
    64c8:	10 93 5c 0a 	sts	0x0A5C, r17	; 0x800a5c <_twiMessageLen>
    64cc:	88 81       	ld	r24, Y
    64ce:	88 0f       	add	r24, r24
    64d0:	81 60       	ori	r24, 0x01	; 1
    64d2:	80 93 5d 0a 	sts	0x0A5D, r24	; 0x800a5d <_twiMessageBuffer>
    64d6:	88 ef       	ldi	r24, 0xF8	; 248
    64d8:	80 93 20 02 	sts	0x0220, r24	; 0x800220 <_twiCurrentState>
    64dc:	85 ea       	ldi	r24, 0xA5	; 165
    64de:	80 93 bc 00 	sts	0x00BC, r24	; 0x8000bc <__TEXT_REGION_LENGTH__+0x7000bc>
    64e2:	85 e0       	ldi	r24, 0x05	; 5
    64e4:	05 c0       	rjmp	.+10     	; 0x64f0 <twiReceive+0x5e>
    64e6:	86 e0       	ldi	r24, 0x06	; 6
    64e8:	03 c0       	rjmp	.+6      	; 0x64f0 <twiReceive+0x5e>
    64ea:	87 e0       	ldi	r24, 0x07	; 7
    64ec:	01 c0       	rjmp	.+2      	; 0x64f0 <twiReceive+0x5e>
    64ee:	82 e0       	ldi	r24, 0x02	; 2
    64f0:	df 91       	pop	r29
    64f2:	cf 91       	pop	r28
    64f4:	1f 91       	pop	r17
    64f6:	08 95       	ret

000064f8 <__vector_39>:
    64f8:	1f 92       	push	r1
    64fa:	0f 92       	push	r0
    64fc:	0f b6       	in	r0, 0x3f	; 63
    64fe:	0f 92       	push	r0
    6500:	11 24       	eor	r1, r1
    6502:	0b b6       	in	r0, 0x3b	; 59
    6504:	0f 92       	push	r0
    6506:	2f 93       	push	r18
    6508:	3f 93       	push	r19
    650a:	4f 93       	push	r20
    650c:	5f 93       	push	r21
    650e:	6f 93       	push	r22
    6510:	7f 93       	push	r23
    6512:	8f 93       	push	r24
    6514:	9f 93       	push	r25
    6516:	af 93       	push	r26
    6518:	bf 93       	push	r27
    651a:	ef 93       	push	r30
    651c:	ff 93       	push	r31
    651e:	e0 91 b9 00 	lds	r30, 0x00B9	; 0x8000b9 <__TEXT_REGION_LENGTH__+0x7000b9>
    6522:	8e 2f       	mov	r24, r30
    6524:	90 e0       	ldi	r25, 0x00	; 0
    6526:	fc 01       	movw	r30, r24
    6528:	38 97       	sbiw	r30, 0x08	; 8
    652a:	e1 35       	cpi	r30, 0x51	; 81
    652c:	f1 05       	cpc	r31, r1
    652e:	08 f0       	brcs	.+2      	; 0x6532 <__vector_39+0x3a>
    6530:	75 c0       	rjmp	.+234    	; 0x661c <__vector_39+0x124>
    6532:	88 27       	eor	r24, r24
    6534:	e4 58       	subi	r30, 0x84	; 132
    6536:	ff 4f       	sbci	r31, 0xFF	; 255
    6538:	8f 4f       	sbci	r24, 0xFF	; 255
    653a:	bd c0       	rjmp	.+378    	; 0x66b6 <__tablejump2__>
    653c:	10 92 59 0a 	sts	0x0A59, r1	; 0x800a59 <_index.1885>
    6540:	e0 91 59 0a 	lds	r30, 0x0A59	; 0x800a59 <_index.1885>
    6544:	80 91 5c 0a 	lds	r24, 0x0A5C	; 0x800a5c <_twiMessageLen>
    6548:	e8 17       	cp	r30, r24
    654a:	70 f4       	brcc	.+28     	; 0x6568 <__vector_39+0x70>
    654c:	81 e0       	ldi	r24, 0x01	; 1
    654e:	8e 0f       	add	r24, r30
    6550:	80 93 59 0a 	sts	0x0A59, r24	; 0x800a59 <_index.1885>
    6554:	f0 e0       	ldi	r31, 0x00	; 0
    6556:	e3 5a       	subi	r30, 0xA3	; 163
    6558:	f5 4f       	sbci	r31, 0xF5	; 245
    655a:	80 81       	ld	r24, Z
    655c:	80 93 bb 00 	sts	0x00BB, r24	; 0x8000bb <__TEXT_REGION_LENGTH__+0x7000bb>
    6560:	85 e8       	ldi	r24, 0x85	; 133
    6562:	80 93 bc 00 	sts	0x00BC, r24	; 0x8000bc <__TEXT_REGION_LENGTH__+0x7000bc>
    6566:	72 c0       	rjmp	.+228    	; 0x664c <__vector_39+0x154>
    6568:	84 e9       	ldi	r24, 0x94	; 148
    656a:	80 93 bc 00 	sts	0x00BC, r24	; 0x8000bc <__TEXT_REGION_LENGTH__+0x7000bc>
    656e:	80 91 5a 0a 	lds	r24, 0x0A5A	; 0x800a5a <_twiCurrentHandler>
    6572:	90 91 5b 0a 	lds	r25, 0x0A5B	; 0x800a5b <_twiCurrentHandler+0x1>
    6576:	dc 01       	movw	r26, r24
    6578:	12 96       	adiw	r26, 0x02	; 2
    657a:	ed 91       	ld	r30, X+
    657c:	fc 91       	ld	r31, X
    657e:	13 97       	sbiw	r26, 0x03	; 3
    6580:	30 97       	sbiw	r30, 0x00	; 0
    6582:	09 f4       	brne	.+2      	; 0x6586 <__vector_39+0x8e>
    6584:	63 c0       	rjmp	.+198    	; 0x664c <__vector_39+0x154>
    6586:	20 e0       	ldi	r18, 0x00	; 0
    6588:	40 e0       	ldi	r20, 0x00	; 0
    658a:	50 e0       	ldi	r21, 0x00	; 0
    658c:	64 e0       	ldi	r22, 0x04	; 4
    658e:	19 95       	eicall
    6590:	5d c0       	rjmp	.+186    	; 0x664c <__vector_39+0x154>
    6592:	e0 91 59 0a 	lds	r30, 0x0A59	; 0x800a59 <_index.1885>
    6596:	81 e0       	ldi	r24, 0x01	; 1
    6598:	8e 0f       	add	r24, r30
    659a:	80 93 59 0a 	sts	0x0A59, r24	; 0x800a59 <_index.1885>
    659e:	80 91 bb 00 	lds	r24, 0x00BB	; 0x8000bb <__TEXT_REGION_LENGTH__+0x7000bb>
    65a2:	f0 e0       	ldi	r31, 0x00	; 0
    65a4:	e3 5a       	subi	r30, 0xA3	; 163
    65a6:	f5 4f       	sbci	r31, 0xF5	; 245
    65a8:	80 83       	st	Z, r24
    65aa:	80 91 b9 00 	lds	r24, 0x00B9	; 0x8000b9 <__TEXT_REGION_LENGTH__+0x7000b9>
    65ae:	80 34       	cpi	r24, 0x40	; 64
    65b0:	11 f4       	brne	.+4      	; 0x65b6 <__vector_39+0xbe>
    65b2:	10 92 59 0a 	sts	0x0A59, r1	; 0x800a59 <_index.1885>
    65b6:	20 91 59 0a 	lds	r18, 0x0A59	; 0x800a59 <_index.1885>
    65ba:	30 e0       	ldi	r19, 0x00	; 0
    65bc:	80 91 5c 0a 	lds	r24, 0x0A5C	; 0x800a5c <_twiMessageLen>
    65c0:	90 e0       	ldi	r25, 0x00	; 0
    65c2:	01 97       	sbiw	r24, 0x01	; 1
    65c4:	28 17       	cp	r18, r24
    65c6:	39 07       	cpc	r19, r25
    65c8:	24 f4       	brge	.+8      	; 0x65d2 <__vector_39+0xda>
    65ca:	85 ec       	ldi	r24, 0xC5	; 197
    65cc:	80 93 bc 00 	sts	0x00BC, r24	; 0x8000bc <__TEXT_REGION_LENGTH__+0x7000bc>
    65d0:	3d c0       	rjmp	.+122    	; 0x664c <__vector_39+0x154>
    65d2:	85 e8       	ldi	r24, 0x85	; 133
    65d4:	80 93 bc 00 	sts	0x00BC, r24	; 0x8000bc <__TEXT_REGION_LENGTH__+0x7000bc>
    65d8:	39 c0       	rjmp	.+114    	; 0x664c <__vector_39+0x154>
    65da:	80 91 bb 00 	lds	r24, 0x00BB	; 0x8000bb <__TEXT_REGION_LENGTH__+0x7000bb>
    65de:	e0 91 59 0a 	lds	r30, 0x0A59	; 0x800a59 <_index.1885>
    65e2:	f0 e0       	ldi	r31, 0x00	; 0
    65e4:	e3 5a       	subi	r30, 0xA3	; 163
    65e6:	f5 4f       	sbci	r31, 0xF5	; 245
    65e8:	80 83       	st	Z, r24
    65ea:	84 e9       	ldi	r24, 0x94	; 148
    65ec:	80 93 bc 00 	sts	0x00BC, r24	; 0x8000bc <__TEXT_REGION_LENGTH__+0x7000bc>
    65f0:	80 91 5a 0a 	lds	r24, 0x0A5A	; 0x800a5a <_twiCurrentHandler>
    65f4:	90 91 5b 0a 	lds	r25, 0x0A5B	; 0x800a5b <_twiCurrentHandler+0x1>
    65f8:	dc 01       	movw	r26, r24
    65fa:	12 96       	adiw	r26, 0x02	; 2
    65fc:	ed 91       	ld	r30, X+
    65fe:	fc 91       	ld	r31, X
    6600:	13 97       	sbiw	r26, 0x03	; 3
    6602:	30 97       	sbiw	r30, 0x00	; 0
    6604:	19 f1       	breq	.+70     	; 0x664c <__vector_39+0x154>
    6606:	20 91 5c 0a 	lds	r18, 0x0A5C	; 0x800a5c <_twiMessageLen>
    660a:	4d e5       	ldi	r20, 0x5D	; 93
    660c:	5a e0       	ldi	r21, 0x0A	; 10
    660e:	65 e0       	ldi	r22, 0x05	; 5
    6610:	19 95       	eicall
    6612:	1c c0       	rjmp	.+56     	; 0x664c <__vector_39+0x154>
    6614:	85 ea       	ldi	r24, 0xA5	; 165
    6616:	80 93 bc 00 	sts	0x00BC, r24	; 0x8000bc <__TEXT_REGION_LENGTH__+0x7000bc>
    661a:	18 c0       	rjmp	.+48     	; 0x664c <__vector_39+0x154>
    661c:	80 91 b9 00 	lds	r24, 0x00B9	; 0x8000b9 <__TEXT_REGION_LENGTH__+0x7000b9>
    6620:	80 93 20 02 	sts	0x0220, r24	; 0x800220 <_twiCurrentState>
    6624:	84 e0       	ldi	r24, 0x04	; 4
    6626:	80 93 bc 00 	sts	0x00BC, r24	; 0x8000bc <__TEXT_REGION_LENGTH__+0x7000bc>
    662a:	80 91 5a 0a 	lds	r24, 0x0A5A	; 0x800a5a <_twiCurrentHandler>
    662e:	90 91 5b 0a 	lds	r25, 0x0A5B	; 0x800a5b <_twiCurrentHandler+0x1>
    6632:	dc 01       	movw	r26, r24
    6634:	12 96       	adiw	r26, 0x02	; 2
    6636:	ed 91       	ld	r30, X+
    6638:	fc 91       	ld	r31, X
    663a:	13 97       	sbiw	r26, 0x03	; 3
    663c:	30 97       	sbiw	r30, 0x00	; 0
    663e:	31 f0       	breq	.+12     	; 0x664c <__vector_39+0x154>
    6640:	20 e0       	ldi	r18, 0x00	; 0
    6642:	40 e0       	ldi	r20, 0x00	; 0
    6644:	50 e0       	ldi	r21, 0x00	; 0
    6646:	60 91 20 02 	lds	r22, 0x0220	; 0x800220 <_twiCurrentState>
    664a:	19 95       	eicall
    664c:	ff 91       	pop	r31
    664e:	ef 91       	pop	r30
    6650:	bf 91       	pop	r27
    6652:	af 91       	pop	r26
    6654:	9f 91       	pop	r25
    6656:	8f 91       	pop	r24
    6658:	7f 91       	pop	r23
    665a:	6f 91       	pop	r22
    665c:	5f 91       	pop	r21
    665e:	4f 91       	pop	r20
    6660:	3f 91       	pop	r19
    6662:	2f 91       	pop	r18
    6664:	0f 90       	pop	r0
    6666:	0b be       	out	0x3b, r0	; 59
    6668:	0f 90       	pop	r0
    666a:	0f be       	out	0x3f, r0	; 63
    666c:	0f 90       	pop	r0
    666e:	1f 90       	pop	r1
    6670:	18 95       	reti

00006672 <__udivmodsi4>:
    6672:	a1 e2       	ldi	r26, 0x21	; 33
    6674:	1a 2e       	mov	r1, r26
    6676:	aa 1b       	sub	r26, r26
    6678:	bb 1b       	sub	r27, r27
    667a:	fd 01       	movw	r30, r26
    667c:	0d c0       	rjmp	.+26     	; 0x6698 <__udivmodsi4_ep>

0000667e <__udivmodsi4_loop>:
    667e:	aa 1f       	adc	r26, r26
    6680:	bb 1f       	adc	r27, r27
    6682:	ee 1f       	adc	r30, r30
    6684:	ff 1f       	adc	r31, r31
    6686:	a2 17       	cp	r26, r18
    6688:	b3 07       	cpc	r27, r19
    668a:	e4 07       	cpc	r30, r20
    668c:	f5 07       	cpc	r31, r21
    668e:	20 f0       	brcs	.+8      	; 0x6698 <__udivmodsi4_ep>
    6690:	a2 1b       	sub	r26, r18
    6692:	b3 0b       	sbc	r27, r19
    6694:	e4 0b       	sbc	r30, r20
    6696:	f5 0b       	sbc	r31, r21

00006698 <__udivmodsi4_ep>:
    6698:	66 1f       	adc	r22, r22
    669a:	77 1f       	adc	r23, r23
    669c:	88 1f       	adc	r24, r24
    669e:	99 1f       	adc	r25, r25
    66a0:	1a 94       	dec	r1
    66a2:	69 f7       	brne	.-38     	; 0x667e <__udivmodsi4_loop>
    66a4:	60 95       	com	r22
    66a6:	70 95       	com	r23
    66a8:	80 95       	com	r24
    66aa:	90 95       	com	r25
    66ac:	9b 01       	movw	r18, r22
    66ae:	ac 01       	movw	r20, r24
    66b0:	bd 01       	movw	r22, r26
    66b2:	cf 01       	movw	r24, r30
    66b4:	08 95       	ret

000066b6 <__tablejump2__>:
    66b6:	ee 0f       	add	r30, r30
    66b8:	ff 1f       	adc	r31, r31
    66ba:	88 1f       	adc	r24, r24
    66bc:	8b bf       	out	0x3b, r24	; 59
    66be:	07 90       	elpm	r0, Z+
    66c0:	f6 91       	elpm	r31, Z
    66c2:	e0 2d       	mov	r30, r0
    66c4:	19 94       	eijmp

000066c6 <__subsf3>:
    66c6:	50 58       	subi	r21, 0x80	; 128

000066c8 <__addsf3>:
    66c8:	bb 27       	eor	r27, r27
    66ca:	aa 27       	eor	r26, r26
    66cc:	0e d0       	rcall	.+28     	; 0x66ea <__addsf3x>
    66ce:	75 c1       	rjmp	.+746    	; 0x69ba <__fp_round>
    66d0:	66 d1       	rcall	.+716    	; 0x699e <__fp_pscA>
    66d2:	30 f0       	brcs	.+12     	; 0x66e0 <__addsf3+0x18>
    66d4:	6b d1       	rcall	.+726    	; 0x69ac <__fp_pscB>
    66d6:	20 f0       	brcs	.+8      	; 0x66e0 <__addsf3+0x18>
    66d8:	31 f4       	brne	.+12     	; 0x66e6 <__addsf3+0x1e>
    66da:	9f 3f       	cpi	r25, 0xFF	; 255
    66dc:	11 f4       	brne	.+4      	; 0x66e2 <__addsf3+0x1a>
    66de:	1e f4       	brtc	.+6      	; 0x66e6 <__addsf3+0x1e>
    66e0:	5b c1       	rjmp	.+694    	; 0x6998 <__fp_nan>
    66e2:	0e f4       	brtc	.+2      	; 0x66e6 <__addsf3+0x1e>
    66e4:	e0 95       	com	r30
    66e6:	e7 fb       	bst	r30, 7
    66e8:	51 c1       	rjmp	.+674    	; 0x698c <__fp_inf>

000066ea <__addsf3x>:
    66ea:	e9 2f       	mov	r30, r25
    66ec:	77 d1       	rcall	.+750    	; 0x69dc <__fp_split3>
    66ee:	80 f3       	brcs	.-32     	; 0x66d0 <__addsf3+0x8>
    66f0:	ba 17       	cp	r27, r26
    66f2:	62 07       	cpc	r22, r18
    66f4:	73 07       	cpc	r23, r19
    66f6:	84 07       	cpc	r24, r20
    66f8:	95 07       	cpc	r25, r21
    66fa:	18 f0       	brcs	.+6      	; 0x6702 <__addsf3x+0x18>
    66fc:	71 f4       	brne	.+28     	; 0x671a <__addsf3x+0x30>
    66fe:	9e f5       	brtc	.+102    	; 0x6766 <__addsf3x+0x7c>
    6700:	8f c1       	rjmp	.+798    	; 0x6a20 <__fp_zero>
    6702:	0e f4       	brtc	.+2      	; 0x6706 <__addsf3x+0x1c>
    6704:	e0 95       	com	r30
    6706:	0b 2e       	mov	r0, r27
    6708:	ba 2f       	mov	r27, r26
    670a:	a0 2d       	mov	r26, r0
    670c:	0b 01       	movw	r0, r22
    670e:	b9 01       	movw	r22, r18
    6710:	90 01       	movw	r18, r0
    6712:	0c 01       	movw	r0, r24
    6714:	ca 01       	movw	r24, r20
    6716:	a0 01       	movw	r20, r0
    6718:	11 24       	eor	r1, r1
    671a:	ff 27       	eor	r31, r31
    671c:	59 1b       	sub	r21, r25
    671e:	99 f0       	breq	.+38     	; 0x6746 <__addsf3x+0x5c>
    6720:	59 3f       	cpi	r21, 0xF9	; 249
    6722:	50 f4       	brcc	.+20     	; 0x6738 <__addsf3x+0x4e>
    6724:	50 3e       	cpi	r21, 0xE0	; 224
    6726:	68 f1       	brcs	.+90     	; 0x6782 <__addsf3x+0x98>
    6728:	1a 16       	cp	r1, r26
    672a:	f0 40       	sbci	r31, 0x00	; 0
    672c:	a2 2f       	mov	r26, r18
    672e:	23 2f       	mov	r18, r19
    6730:	34 2f       	mov	r19, r20
    6732:	44 27       	eor	r20, r20
    6734:	58 5f       	subi	r21, 0xF8	; 248
    6736:	f3 cf       	rjmp	.-26     	; 0x671e <__addsf3x+0x34>
    6738:	46 95       	lsr	r20
    673a:	37 95       	ror	r19
    673c:	27 95       	ror	r18
    673e:	a7 95       	ror	r26
    6740:	f0 40       	sbci	r31, 0x00	; 0
    6742:	53 95       	inc	r21
    6744:	c9 f7       	brne	.-14     	; 0x6738 <__addsf3x+0x4e>
    6746:	7e f4       	brtc	.+30     	; 0x6766 <__addsf3x+0x7c>
    6748:	1f 16       	cp	r1, r31
    674a:	ba 0b       	sbc	r27, r26
    674c:	62 0b       	sbc	r22, r18
    674e:	73 0b       	sbc	r23, r19
    6750:	84 0b       	sbc	r24, r20
    6752:	ba f0       	brmi	.+46     	; 0x6782 <__addsf3x+0x98>
    6754:	91 50       	subi	r25, 0x01	; 1
    6756:	a1 f0       	breq	.+40     	; 0x6780 <__addsf3x+0x96>
    6758:	ff 0f       	add	r31, r31
    675a:	bb 1f       	adc	r27, r27
    675c:	66 1f       	adc	r22, r22
    675e:	77 1f       	adc	r23, r23
    6760:	88 1f       	adc	r24, r24
    6762:	c2 f7       	brpl	.-16     	; 0x6754 <__addsf3x+0x6a>
    6764:	0e c0       	rjmp	.+28     	; 0x6782 <__addsf3x+0x98>
    6766:	ba 0f       	add	r27, r26
    6768:	62 1f       	adc	r22, r18
    676a:	73 1f       	adc	r23, r19
    676c:	84 1f       	adc	r24, r20
    676e:	48 f4       	brcc	.+18     	; 0x6782 <__addsf3x+0x98>
    6770:	87 95       	ror	r24
    6772:	77 95       	ror	r23
    6774:	67 95       	ror	r22
    6776:	b7 95       	ror	r27
    6778:	f7 95       	ror	r31
    677a:	9e 3f       	cpi	r25, 0xFE	; 254
    677c:	08 f0       	brcs	.+2      	; 0x6780 <__addsf3x+0x96>
    677e:	b3 cf       	rjmp	.-154    	; 0x66e6 <__addsf3+0x1e>
    6780:	93 95       	inc	r25
    6782:	88 0f       	add	r24, r24
    6784:	08 f0       	brcs	.+2      	; 0x6788 <__addsf3x+0x9e>
    6786:	99 27       	eor	r25, r25
    6788:	ee 0f       	add	r30, r30
    678a:	97 95       	ror	r25
    678c:	87 95       	ror	r24
    678e:	08 95       	ret

00006790 <__cmpsf2>:
    6790:	d9 d0       	rcall	.+434    	; 0x6944 <__fp_cmp>
    6792:	08 f4       	brcc	.+2      	; 0x6796 <__cmpsf2+0x6>
    6794:	81 e0       	ldi	r24, 0x01	; 1
    6796:	08 95       	ret

00006798 <__divsf3>:
    6798:	0c d0       	rcall	.+24     	; 0x67b2 <__divsf3x>
    679a:	0f c1       	rjmp	.+542    	; 0x69ba <__fp_round>
    679c:	07 d1       	rcall	.+526    	; 0x69ac <__fp_pscB>
    679e:	40 f0       	brcs	.+16     	; 0x67b0 <__divsf3+0x18>
    67a0:	fe d0       	rcall	.+508    	; 0x699e <__fp_pscA>
    67a2:	30 f0       	brcs	.+12     	; 0x67b0 <__divsf3+0x18>
    67a4:	21 f4       	brne	.+8      	; 0x67ae <__divsf3+0x16>
    67a6:	5f 3f       	cpi	r21, 0xFF	; 255
    67a8:	19 f0       	breq	.+6      	; 0x67b0 <__divsf3+0x18>
    67aa:	f0 c0       	rjmp	.+480    	; 0x698c <__fp_inf>
    67ac:	51 11       	cpse	r21, r1
    67ae:	39 c1       	rjmp	.+626    	; 0x6a22 <__fp_szero>
    67b0:	f3 c0       	rjmp	.+486    	; 0x6998 <__fp_nan>

000067b2 <__divsf3x>:
    67b2:	14 d1       	rcall	.+552    	; 0x69dc <__fp_split3>
    67b4:	98 f3       	brcs	.-26     	; 0x679c <__divsf3+0x4>

000067b6 <__divsf3_pse>:
    67b6:	99 23       	and	r25, r25
    67b8:	c9 f3       	breq	.-14     	; 0x67ac <__divsf3+0x14>
    67ba:	55 23       	and	r21, r21
    67bc:	b1 f3       	breq	.-20     	; 0x67aa <__divsf3+0x12>
    67be:	95 1b       	sub	r25, r21
    67c0:	55 0b       	sbc	r21, r21
    67c2:	bb 27       	eor	r27, r27
    67c4:	aa 27       	eor	r26, r26
    67c6:	62 17       	cp	r22, r18
    67c8:	73 07       	cpc	r23, r19
    67ca:	84 07       	cpc	r24, r20
    67cc:	38 f0       	brcs	.+14     	; 0x67dc <__divsf3_pse+0x26>
    67ce:	9f 5f       	subi	r25, 0xFF	; 255
    67d0:	5f 4f       	sbci	r21, 0xFF	; 255
    67d2:	22 0f       	add	r18, r18
    67d4:	33 1f       	adc	r19, r19
    67d6:	44 1f       	adc	r20, r20
    67d8:	aa 1f       	adc	r26, r26
    67da:	a9 f3       	breq	.-22     	; 0x67c6 <__divsf3_pse+0x10>
    67dc:	33 d0       	rcall	.+102    	; 0x6844 <__divsf3_pse+0x8e>
    67de:	0e 2e       	mov	r0, r30
    67e0:	3a f0       	brmi	.+14     	; 0x67f0 <__divsf3_pse+0x3a>
    67e2:	e0 e8       	ldi	r30, 0x80	; 128
    67e4:	30 d0       	rcall	.+96     	; 0x6846 <__divsf3_pse+0x90>
    67e6:	91 50       	subi	r25, 0x01	; 1
    67e8:	50 40       	sbci	r21, 0x00	; 0
    67ea:	e6 95       	lsr	r30
    67ec:	00 1c       	adc	r0, r0
    67ee:	ca f7       	brpl	.-14     	; 0x67e2 <__divsf3_pse+0x2c>
    67f0:	29 d0       	rcall	.+82     	; 0x6844 <__divsf3_pse+0x8e>
    67f2:	fe 2f       	mov	r31, r30
    67f4:	27 d0       	rcall	.+78     	; 0x6844 <__divsf3_pse+0x8e>
    67f6:	66 0f       	add	r22, r22
    67f8:	77 1f       	adc	r23, r23
    67fa:	88 1f       	adc	r24, r24
    67fc:	bb 1f       	adc	r27, r27
    67fe:	26 17       	cp	r18, r22
    6800:	37 07       	cpc	r19, r23
    6802:	48 07       	cpc	r20, r24
    6804:	ab 07       	cpc	r26, r27
    6806:	b0 e8       	ldi	r27, 0x80	; 128
    6808:	09 f0       	breq	.+2      	; 0x680c <__divsf3_pse+0x56>
    680a:	bb 0b       	sbc	r27, r27
    680c:	80 2d       	mov	r24, r0
    680e:	bf 01       	movw	r22, r30
    6810:	ff 27       	eor	r31, r31
    6812:	93 58       	subi	r25, 0x83	; 131
    6814:	5f 4f       	sbci	r21, 0xFF	; 255
    6816:	2a f0       	brmi	.+10     	; 0x6822 <__divsf3_pse+0x6c>
    6818:	9e 3f       	cpi	r25, 0xFE	; 254
    681a:	51 05       	cpc	r21, r1
    681c:	68 f0       	brcs	.+26     	; 0x6838 <__divsf3_pse+0x82>
    681e:	b6 c0       	rjmp	.+364    	; 0x698c <__fp_inf>
    6820:	00 c1       	rjmp	.+512    	; 0x6a22 <__fp_szero>
    6822:	5f 3f       	cpi	r21, 0xFF	; 255
    6824:	ec f3       	brlt	.-6      	; 0x6820 <__divsf3_pse+0x6a>
    6826:	98 3e       	cpi	r25, 0xE8	; 232
    6828:	dc f3       	brlt	.-10     	; 0x6820 <__divsf3_pse+0x6a>
    682a:	86 95       	lsr	r24
    682c:	77 95       	ror	r23
    682e:	67 95       	ror	r22
    6830:	b7 95       	ror	r27
    6832:	f7 95       	ror	r31
    6834:	9f 5f       	subi	r25, 0xFF	; 255
    6836:	c9 f7       	brne	.-14     	; 0x682a <__divsf3_pse+0x74>
    6838:	88 0f       	add	r24, r24
    683a:	91 1d       	adc	r25, r1
    683c:	96 95       	lsr	r25
    683e:	87 95       	ror	r24
    6840:	97 f9       	bld	r25, 7
    6842:	08 95       	ret
    6844:	e1 e0       	ldi	r30, 0x01	; 1
    6846:	66 0f       	add	r22, r22
    6848:	77 1f       	adc	r23, r23
    684a:	88 1f       	adc	r24, r24
    684c:	bb 1f       	adc	r27, r27
    684e:	62 17       	cp	r22, r18
    6850:	73 07       	cpc	r23, r19
    6852:	84 07       	cpc	r24, r20
    6854:	ba 07       	cpc	r27, r26
    6856:	20 f0       	brcs	.+8      	; 0x6860 <__divsf3_pse+0xaa>
    6858:	62 1b       	sub	r22, r18
    685a:	73 0b       	sbc	r23, r19
    685c:	84 0b       	sbc	r24, r20
    685e:	ba 0b       	sbc	r27, r26
    6860:	ee 1f       	adc	r30, r30
    6862:	88 f7       	brcc	.-30     	; 0x6846 <__divsf3_pse+0x90>
    6864:	e0 95       	com	r30
    6866:	08 95       	ret

00006868 <__fixsfsi>:
    6868:	04 d0       	rcall	.+8      	; 0x6872 <__fixunssfsi>
    686a:	68 94       	set
    686c:	b1 11       	cpse	r27, r1
    686e:	d9 c0       	rjmp	.+434    	; 0x6a22 <__fp_szero>
    6870:	08 95       	ret

00006872 <__fixunssfsi>:
    6872:	bc d0       	rcall	.+376    	; 0x69ec <__fp_splitA>
    6874:	88 f0       	brcs	.+34     	; 0x6898 <__fixunssfsi+0x26>
    6876:	9f 57       	subi	r25, 0x7F	; 127
    6878:	90 f0       	brcs	.+36     	; 0x689e <__fixunssfsi+0x2c>
    687a:	b9 2f       	mov	r27, r25
    687c:	99 27       	eor	r25, r25
    687e:	b7 51       	subi	r27, 0x17	; 23
    6880:	a0 f0       	brcs	.+40     	; 0x68aa <__fixunssfsi+0x38>
    6882:	d1 f0       	breq	.+52     	; 0x68b8 <__fixunssfsi+0x46>
    6884:	66 0f       	add	r22, r22
    6886:	77 1f       	adc	r23, r23
    6888:	88 1f       	adc	r24, r24
    688a:	99 1f       	adc	r25, r25
    688c:	1a f0       	brmi	.+6      	; 0x6894 <__fixunssfsi+0x22>
    688e:	ba 95       	dec	r27
    6890:	c9 f7       	brne	.-14     	; 0x6884 <__fixunssfsi+0x12>
    6892:	12 c0       	rjmp	.+36     	; 0x68b8 <__fixunssfsi+0x46>
    6894:	b1 30       	cpi	r27, 0x01	; 1
    6896:	81 f0       	breq	.+32     	; 0x68b8 <__fixunssfsi+0x46>
    6898:	c3 d0       	rcall	.+390    	; 0x6a20 <__fp_zero>
    689a:	b1 e0       	ldi	r27, 0x01	; 1
    689c:	08 95       	ret
    689e:	c0 c0       	rjmp	.+384    	; 0x6a20 <__fp_zero>
    68a0:	67 2f       	mov	r22, r23
    68a2:	78 2f       	mov	r23, r24
    68a4:	88 27       	eor	r24, r24
    68a6:	b8 5f       	subi	r27, 0xF8	; 248
    68a8:	39 f0       	breq	.+14     	; 0x68b8 <__fixunssfsi+0x46>
    68aa:	b9 3f       	cpi	r27, 0xF9	; 249
    68ac:	cc f3       	brlt	.-14     	; 0x68a0 <__fixunssfsi+0x2e>
    68ae:	86 95       	lsr	r24
    68b0:	77 95       	ror	r23
    68b2:	67 95       	ror	r22
    68b4:	b3 95       	inc	r27
    68b6:	d9 f7       	brne	.-10     	; 0x68ae <__fixunssfsi+0x3c>
    68b8:	3e f4       	brtc	.+14     	; 0x68c8 <__fixunssfsi+0x56>
    68ba:	90 95       	com	r25
    68bc:	80 95       	com	r24
    68be:	70 95       	com	r23
    68c0:	61 95       	neg	r22
    68c2:	7f 4f       	sbci	r23, 0xFF	; 255
    68c4:	8f 4f       	sbci	r24, 0xFF	; 255
    68c6:	9f 4f       	sbci	r25, 0xFF	; 255
    68c8:	08 95       	ret

000068ca <__floatunsisf>:
    68ca:	e8 94       	clt
    68cc:	09 c0       	rjmp	.+18     	; 0x68e0 <__floatsisf+0x12>

000068ce <__floatsisf>:
    68ce:	97 fb       	bst	r25, 7
    68d0:	3e f4       	brtc	.+14     	; 0x68e0 <__floatsisf+0x12>
    68d2:	90 95       	com	r25
    68d4:	80 95       	com	r24
    68d6:	70 95       	com	r23
    68d8:	61 95       	neg	r22
    68da:	7f 4f       	sbci	r23, 0xFF	; 255
    68dc:	8f 4f       	sbci	r24, 0xFF	; 255
    68de:	9f 4f       	sbci	r25, 0xFF	; 255
    68e0:	99 23       	and	r25, r25
    68e2:	a9 f0       	breq	.+42     	; 0x690e <__floatsisf+0x40>
    68e4:	f9 2f       	mov	r31, r25
    68e6:	96 e9       	ldi	r25, 0x96	; 150
    68e8:	bb 27       	eor	r27, r27
    68ea:	93 95       	inc	r25
    68ec:	f6 95       	lsr	r31
    68ee:	87 95       	ror	r24
    68f0:	77 95       	ror	r23
    68f2:	67 95       	ror	r22
    68f4:	b7 95       	ror	r27
    68f6:	f1 11       	cpse	r31, r1
    68f8:	f8 cf       	rjmp	.-16     	; 0x68ea <__floatsisf+0x1c>
    68fa:	fa f4       	brpl	.+62     	; 0x693a <__floatsisf+0x6c>
    68fc:	bb 0f       	add	r27, r27
    68fe:	11 f4       	brne	.+4      	; 0x6904 <__floatsisf+0x36>
    6900:	60 ff       	sbrs	r22, 0
    6902:	1b c0       	rjmp	.+54     	; 0x693a <__floatsisf+0x6c>
    6904:	6f 5f       	subi	r22, 0xFF	; 255
    6906:	7f 4f       	sbci	r23, 0xFF	; 255
    6908:	8f 4f       	sbci	r24, 0xFF	; 255
    690a:	9f 4f       	sbci	r25, 0xFF	; 255
    690c:	16 c0       	rjmp	.+44     	; 0x693a <__floatsisf+0x6c>
    690e:	88 23       	and	r24, r24
    6910:	11 f0       	breq	.+4      	; 0x6916 <__floatsisf+0x48>
    6912:	96 e9       	ldi	r25, 0x96	; 150
    6914:	11 c0       	rjmp	.+34     	; 0x6938 <__floatsisf+0x6a>
    6916:	77 23       	and	r23, r23
    6918:	21 f0       	breq	.+8      	; 0x6922 <__floatsisf+0x54>
    691a:	9e e8       	ldi	r25, 0x8E	; 142
    691c:	87 2f       	mov	r24, r23
    691e:	76 2f       	mov	r23, r22
    6920:	05 c0       	rjmp	.+10     	; 0x692c <__floatsisf+0x5e>
    6922:	66 23       	and	r22, r22
    6924:	71 f0       	breq	.+28     	; 0x6942 <__floatsisf+0x74>
    6926:	96 e8       	ldi	r25, 0x86	; 134
    6928:	86 2f       	mov	r24, r22
    692a:	70 e0       	ldi	r23, 0x00	; 0
    692c:	60 e0       	ldi	r22, 0x00	; 0
    692e:	2a f0       	brmi	.+10     	; 0x693a <__floatsisf+0x6c>
    6930:	9a 95       	dec	r25
    6932:	66 0f       	add	r22, r22
    6934:	77 1f       	adc	r23, r23
    6936:	88 1f       	adc	r24, r24
    6938:	da f7       	brpl	.-10     	; 0x6930 <__floatsisf+0x62>
    693a:	88 0f       	add	r24, r24
    693c:	96 95       	lsr	r25
    693e:	87 95       	ror	r24
    6940:	97 f9       	bld	r25, 7
    6942:	08 95       	ret

00006944 <__fp_cmp>:
    6944:	99 0f       	add	r25, r25
    6946:	00 08       	sbc	r0, r0
    6948:	55 0f       	add	r21, r21
    694a:	aa 0b       	sbc	r26, r26
    694c:	e0 e8       	ldi	r30, 0x80	; 128
    694e:	fe ef       	ldi	r31, 0xFE	; 254
    6950:	16 16       	cp	r1, r22
    6952:	17 06       	cpc	r1, r23
    6954:	e8 07       	cpc	r30, r24
    6956:	f9 07       	cpc	r31, r25
    6958:	c0 f0       	brcs	.+48     	; 0x698a <__fp_cmp+0x46>
    695a:	12 16       	cp	r1, r18
    695c:	13 06       	cpc	r1, r19
    695e:	e4 07       	cpc	r30, r20
    6960:	f5 07       	cpc	r31, r21
    6962:	98 f0       	brcs	.+38     	; 0x698a <__fp_cmp+0x46>
    6964:	62 1b       	sub	r22, r18
    6966:	73 0b       	sbc	r23, r19
    6968:	84 0b       	sbc	r24, r20
    696a:	95 0b       	sbc	r25, r21
    696c:	39 f4       	brne	.+14     	; 0x697c <__fp_cmp+0x38>
    696e:	0a 26       	eor	r0, r26
    6970:	61 f0       	breq	.+24     	; 0x698a <__fp_cmp+0x46>
    6972:	23 2b       	or	r18, r19
    6974:	24 2b       	or	r18, r20
    6976:	25 2b       	or	r18, r21
    6978:	21 f4       	brne	.+8      	; 0x6982 <__fp_cmp+0x3e>
    697a:	08 95       	ret
    697c:	0a 26       	eor	r0, r26
    697e:	09 f4       	brne	.+2      	; 0x6982 <__fp_cmp+0x3e>
    6980:	a1 40       	sbci	r26, 0x01	; 1
    6982:	a6 95       	lsr	r26
    6984:	8f ef       	ldi	r24, 0xFF	; 255
    6986:	81 1d       	adc	r24, r1
    6988:	81 1d       	adc	r24, r1
    698a:	08 95       	ret

0000698c <__fp_inf>:
    698c:	97 f9       	bld	r25, 7
    698e:	9f 67       	ori	r25, 0x7F	; 127
    6990:	80 e8       	ldi	r24, 0x80	; 128
    6992:	70 e0       	ldi	r23, 0x00	; 0
    6994:	60 e0       	ldi	r22, 0x00	; 0
    6996:	08 95       	ret

00006998 <__fp_nan>:
    6998:	9f ef       	ldi	r25, 0xFF	; 255
    699a:	80 ec       	ldi	r24, 0xC0	; 192
    699c:	08 95       	ret

0000699e <__fp_pscA>:
    699e:	00 24       	eor	r0, r0
    69a0:	0a 94       	dec	r0
    69a2:	16 16       	cp	r1, r22
    69a4:	17 06       	cpc	r1, r23
    69a6:	18 06       	cpc	r1, r24
    69a8:	09 06       	cpc	r0, r25
    69aa:	08 95       	ret

000069ac <__fp_pscB>:
    69ac:	00 24       	eor	r0, r0
    69ae:	0a 94       	dec	r0
    69b0:	12 16       	cp	r1, r18
    69b2:	13 06       	cpc	r1, r19
    69b4:	14 06       	cpc	r1, r20
    69b6:	05 06       	cpc	r0, r21
    69b8:	08 95       	ret

000069ba <__fp_round>:
    69ba:	09 2e       	mov	r0, r25
    69bc:	03 94       	inc	r0
    69be:	00 0c       	add	r0, r0
    69c0:	11 f4       	brne	.+4      	; 0x69c6 <__fp_round+0xc>
    69c2:	88 23       	and	r24, r24
    69c4:	52 f0       	brmi	.+20     	; 0x69da <__fp_round+0x20>
    69c6:	bb 0f       	add	r27, r27
    69c8:	40 f4       	brcc	.+16     	; 0x69da <__fp_round+0x20>
    69ca:	bf 2b       	or	r27, r31
    69cc:	11 f4       	brne	.+4      	; 0x69d2 <__fp_round+0x18>
    69ce:	60 ff       	sbrs	r22, 0
    69d0:	04 c0       	rjmp	.+8      	; 0x69da <__fp_round+0x20>
    69d2:	6f 5f       	subi	r22, 0xFF	; 255
    69d4:	7f 4f       	sbci	r23, 0xFF	; 255
    69d6:	8f 4f       	sbci	r24, 0xFF	; 255
    69d8:	9f 4f       	sbci	r25, 0xFF	; 255
    69da:	08 95       	ret

000069dc <__fp_split3>:
    69dc:	57 fd       	sbrc	r21, 7
    69de:	90 58       	subi	r25, 0x80	; 128
    69e0:	44 0f       	add	r20, r20
    69e2:	55 1f       	adc	r21, r21
    69e4:	59 f0       	breq	.+22     	; 0x69fc <__fp_splitA+0x10>
    69e6:	5f 3f       	cpi	r21, 0xFF	; 255
    69e8:	71 f0       	breq	.+28     	; 0x6a06 <__fp_splitA+0x1a>
    69ea:	47 95       	ror	r20

000069ec <__fp_splitA>:
    69ec:	88 0f       	add	r24, r24
    69ee:	97 fb       	bst	r25, 7
    69f0:	99 1f       	adc	r25, r25
    69f2:	61 f0       	breq	.+24     	; 0x6a0c <__fp_splitA+0x20>
    69f4:	9f 3f       	cpi	r25, 0xFF	; 255
    69f6:	79 f0       	breq	.+30     	; 0x6a16 <__fp_splitA+0x2a>
    69f8:	87 95       	ror	r24
    69fa:	08 95       	ret
    69fc:	12 16       	cp	r1, r18
    69fe:	13 06       	cpc	r1, r19
    6a00:	14 06       	cpc	r1, r20
    6a02:	55 1f       	adc	r21, r21
    6a04:	f2 cf       	rjmp	.-28     	; 0x69ea <__fp_split3+0xe>
    6a06:	46 95       	lsr	r20
    6a08:	f1 df       	rcall	.-30     	; 0x69ec <__fp_splitA>
    6a0a:	08 c0       	rjmp	.+16     	; 0x6a1c <__fp_splitA+0x30>
    6a0c:	16 16       	cp	r1, r22
    6a0e:	17 06       	cpc	r1, r23
    6a10:	18 06       	cpc	r1, r24
    6a12:	99 1f       	adc	r25, r25
    6a14:	f1 cf       	rjmp	.-30     	; 0x69f8 <__fp_splitA+0xc>
    6a16:	86 95       	lsr	r24
    6a18:	71 05       	cpc	r23, r1
    6a1a:	61 05       	cpc	r22, r1
    6a1c:	08 94       	sec
    6a1e:	08 95       	ret

00006a20 <__fp_zero>:
    6a20:	e8 94       	clt

00006a22 <__fp_szero>:
    6a22:	bb 27       	eor	r27, r27
    6a24:	66 27       	eor	r22, r22
    6a26:	77 27       	eor	r23, r23
    6a28:	cb 01       	movw	r24, r22
    6a2a:	97 f9       	bld	r25, 7
    6a2c:	08 95       	ret

00006a2e <__gesf2>:
    6a2e:	8a df       	rcall	.-236    	; 0x6944 <__fp_cmp>
    6a30:	08 f4       	brcc	.+2      	; 0x6a34 <__gesf2+0x6>
    6a32:	8f ef       	ldi	r24, 0xFF	; 255
    6a34:	08 95       	ret

00006a36 <__mulsf3>:
    6a36:	0b d0       	rcall	.+22     	; 0x6a4e <__mulsf3x>
    6a38:	c0 cf       	rjmp	.-128    	; 0x69ba <__fp_round>
    6a3a:	b1 df       	rcall	.-158    	; 0x699e <__fp_pscA>
    6a3c:	28 f0       	brcs	.+10     	; 0x6a48 <__mulsf3+0x12>
    6a3e:	b6 df       	rcall	.-148    	; 0x69ac <__fp_pscB>
    6a40:	18 f0       	brcs	.+6      	; 0x6a48 <__mulsf3+0x12>
    6a42:	95 23       	and	r25, r21
    6a44:	09 f0       	breq	.+2      	; 0x6a48 <__mulsf3+0x12>
    6a46:	a2 cf       	rjmp	.-188    	; 0x698c <__fp_inf>
    6a48:	a7 cf       	rjmp	.-178    	; 0x6998 <__fp_nan>
    6a4a:	11 24       	eor	r1, r1
    6a4c:	ea cf       	rjmp	.-44     	; 0x6a22 <__fp_szero>

00006a4e <__mulsf3x>:
    6a4e:	c6 df       	rcall	.-116    	; 0x69dc <__fp_split3>
    6a50:	a0 f3       	brcs	.-24     	; 0x6a3a <__mulsf3+0x4>

00006a52 <__mulsf3_pse>:
    6a52:	95 9f       	mul	r25, r21
    6a54:	d1 f3       	breq	.-12     	; 0x6a4a <__mulsf3+0x14>
    6a56:	95 0f       	add	r25, r21
    6a58:	50 e0       	ldi	r21, 0x00	; 0
    6a5a:	55 1f       	adc	r21, r21
    6a5c:	62 9f       	mul	r22, r18
    6a5e:	f0 01       	movw	r30, r0
    6a60:	72 9f       	mul	r23, r18
    6a62:	bb 27       	eor	r27, r27
    6a64:	f0 0d       	add	r31, r0
    6a66:	b1 1d       	adc	r27, r1
    6a68:	63 9f       	mul	r22, r19
    6a6a:	aa 27       	eor	r26, r26
    6a6c:	f0 0d       	add	r31, r0
    6a6e:	b1 1d       	adc	r27, r1
    6a70:	aa 1f       	adc	r26, r26
    6a72:	64 9f       	mul	r22, r20
    6a74:	66 27       	eor	r22, r22
    6a76:	b0 0d       	add	r27, r0
    6a78:	a1 1d       	adc	r26, r1
    6a7a:	66 1f       	adc	r22, r22
    6a7c:	82 9f       	mul	r24, r18
    6a7e:	22 27       	eor	r18, r18
    6a80:	b0 0d       	add	r27, r0
    6a82:	a1 1d       	adc	r26, r1
    6a84:	62 1f       	adc	r22, r18
    6a86:	73 9f       	mul	r23, r19
    6a88:	b0 0d       	add	r27, r0
    6a8a:	a1 1d       	adc	r26, r1
    6a8c:	62 1f       	adc	r22, r18
    6a8e:	83 9f       	mul	r24, r19
    6a90:	a0 0d       	add	r26, r0
    6a92:	61 1d       	adc	r22, r1
    6a94:	22 1f       	adc	r18, r18
    6a96:	74 9f       	mul	r23, r20
    6a98:	33 27       	eor	r19, r19
    6a9a:	a0 0d       	add	r26, r0
    6a9c:	61 1d       	adc	r22, r1
    6a9e:	23 1f       	adc	r18, r19
    6aa0:	84 9f       	mul	r24, r20
    6aa2:	60 0d       	add	r22, r0
    6aa4:	21 1d       	adc	r18, r1
    6aa6:	82 2f       	mov	r24, r18
    6aa8:	76 2f       	mov	r23, r22
    6aaa:	6a 2f       	mov	r22, r26
    6aac:	11 24       	eor	r1, r1
    6aae:	9f 57       	subi	r25, 0x7F	; 127
    6ab0:	50 40       	sbci	r21, 0x00	; 0
    6ab2:	8a f0       	brmi	.+34     	; 0x6ad6 <__mulsf3_pse+0x84>
    6ab4:	e1 f0       	breq	.+56     	; 0x6aee <__mulsf3_pse+0x9c>
    6ab6:	88 23       	and	r24, r24
    6ab8:	4a f0       	brmi	.+18     	; 0x6acc <__mulsf3_pse+0x7a>
    6aba:	ee 0f       	add	r30, r30
    6abc:	ff 1f       	adc	r31, r31
    6abe:	bb 1f       	adc	r27, r27
    6ac0:	66 1f       	adc	r22, r22
    6ac2:	77 1f       	adc	r23, r23
    6ac4:	88 1f       	adc	r24, r24
    6ac6:	91 50       	subi	r25, 0x01	; 1
    6ac8:	50 40       	sbci	r21, 0x00	; 0
    6aca:	a9 f7       	brne	.-22     	; 0x6ab6 <__mulsf3_pse+0x64>
    6acc:	9e 3f       	cpi	r25, 0xFE	; 254
    6ace:	51 05       	cpc	r21, r1
    6ad0:	70 f0       	brcs	.+28     	; 0x6aee <__mulsf3_pse+0x9c>
    6ad2:	5c cf       	rjmp	.-328    	; 0x698c <__fp_inf>
    6ad4:	a6 cf       	rjmp	.-180    	; 0x6a22 <__fp_szero>
    6ad6:	5f 3f       	cpi	r21, 0xFF	; 255
    6ad8:	ec f3       	brlt	.-6      	; 0x6ad4 <__mulsf3_pse+0x82>
    6ada:	98 3e       	cpi	r25, 0xE8	; 232
    6adc:	dc f3       	brlt	.-10     	; 0x6ad4 <__mulsf3_pse+0x82>
    6ade:	86 95       	lsr	r24
    6ae0:	77 95       	ror	r23
    6ae2:	67 95       	ror	r22
    6ae4:	b7 95       	ror	r27
    6ae6:	f7 95       	ror	r31
    6ae8:	e7 95       	ror	r30
    6aea:	9f 5f       	subi	r25, 0xFF	; 255
    6aec:	c1 f7       	brne	.-16     	; 0x6ade <__mulsf3_pse+0x8c>
    6aee:	fe 2b       	or	r31, r30
    6af0:	88 0f       	add	r24, r24
    6af2:	91 1d       	adc	r25, r1
    6af4:	96 95       	lsr	r25
    6af6:	87 95       	ror	r24
    6af8:	97 f9       	bld	r25, 7
    6afa:	08 95       	ret

00006afc <calloc>:
    6afc:	0f 93       	push	r16
    6afe:	1f 93       	push	r17
    6b00:	cf 93       	push	r28
    6b02:	df 93       	push	r29
    6b04:	86 9f       	mul	r24, r22
    6b06:	80 01       	movw	r16, r0
    6b08:	87 9f       	mul	r24, r23
    6b0a:	10 0d       	add	r17, r0
    6b0c:	96 9f       	mul	r25, r22
    6b0e:	10 0d       	add	r17, r0
    6b10:	11 24       	eor	r1, r1
    6b12:	c8 01       	movw	r24, r16
    6b14:	0d d0       	rcall	.+26     	; 0x6b30 <malloc>
    6b16:	ec 01       	movw	r28, r24
    6b18:	00 97       	sbiw	r24, 0x00	; 0
    6b1a:	21 f0       	breq	.+8      	; 0x6b24 <calloc+0x28>
    6b1c:	a8 01       	movw	r20, r16
    6b1e:	60 e0       	ldi	r22, 0x00	; 0
    6b20:	70 e0       	ldi	r23, 0x00	; 0
    6b22:	34 d1       	rcall	.+616    	; 0x6d8c <memset>
    6b24:	ce 01       	movw	r24, r28
    6b26:	df 91       	pop	r29
    6b28:	cf 91       	pop	r28
    6b2a:	1f 91       	pop	r17
    6b2c:	0f 91       	pop	r16
    6b2e:	08 95       	ret

00006b30 <malloc>:
    6b30:	0f 93       	push	r16
    6b32:	1f 93       	push	r17
    6b34:	cf 93       	push	r28
    6b36:	df 93       	push	r29
    6b38:	82 30       	cpi	r24, 0x02	; 2
    6b3a:	91 05       	cpc	r25, r1
    6b3c:	10 f4       	brcc	.+4      	; 0x6b42 <malloc+0x12>
    6b3e:	82 e0       	ldi	r24, 0x02	; 2
    6b40:	90 e0       	ldi	r25, 0x00	; 0
    6b42:	e0 91 90 0a 	lds	r30, 0x0A90	; 0x800a90 <__flp>
    6b46:	f0 91 91 0a 	lds	r31, 0x0A91	; 0x800a91 <__flp+0x1>
    6b4a:	20 e0       	ldi	r18, 0x00	; 0
    6b4c:	30 e0       	ldi	r19, 0x00	; 0
    6b4e:	a0 e0       	ldi	r26, 0x00	; 0
    6b50:	b0 e0       	ldi	r27, 0x00	; 0
    6b52:	30 97       	sbiw	r30, 0x00	; 0
    6b54:	19 f1       	breq	.+70     	; 0x6b9c <malloc+0x6c>
    6b56:	40 81       	ld	r20, Z
    6b58:	51 81       	ldd	r21, Z+1	; 0x01
    6b5a:	02 81       	ldd	r16, Z+2	; 0x02
    6b5c:	13 81       	ldd	r17, Z+3	; 0x03
    6b5e:	48 17       	cp	r20, r24
    6b60:	59 07       	cpc	r21, r25
    6b62:	c8 f0       	brcs	.+50     	; 0x6b96 <malloc+0x66>
    6b64:	84 17       	cp	r24, r20
    6b66:	95 07       	cpc	r25, r21
    6b68:	69 f4       	brne	.+26     	; 0x6b84 <malloc+0x54>
    6b6a:	10 97       	sbiw	r26, 0x00	; 0
    6b6c:	31 f0       	breq	.+12     	; 0x6b7a <malloc+0x4a>
    6b6e:	12 96       	adiw	r26, 0x02	; 2
    6b70:	0c 93       	st	X, r16
    6b72:	12 97       	sbiw	r26, 0x02	; 2
    6b74:	13 96       	adiw	r26, 0x03	; 3
    6b76:	1c 93       	st	X, r17
    6b78:	27 c0       	rjmp	.+78     	; 0x6bc8 <malloc+0x98>
    6b7a:	00 93 90 0a 	sts	0x0A90, r16	; 0x800a90 <__flp>
    6b7e:	10 93 91 0a 	sts	0x0A91, r17	; 0x800a91 <__flp+0x1>
    6b82:	22 c0       	rjmp	.+68     	; 0x6bc8 <malloc+0x98>
    6b84:	21 15       	cp	r18, r1
    6b86:	31 05       	cpc	r19, r1
    6b88:	19 f0       	breq	.+6      	; 0x6b90 <malloc+0x60>
    6b8a:	42 17       	cp	r20, r18
    6b8c:	53 07       	cpc	r21, r19
    6b8e:	18 f4       	brcc	.+6      	; 0x6b96 <malloc+0x66>
    6b90:	9a 01       	movw	r18, r20
    6b92:	bd 01       	movw	r22, r26
    6b94:	ef 01       	movw	r28, r30
    6b96:	df 01       	movw	r26, r30
    6b98:	f8 01       	movw	r30, r16
    6b9a:	db cf       	rjmp	.-74     	; 0x6b52 <malloc+0x22>
    6b9c:	21 15       	cp	r18, r1
    6b9e:	31 05       	cpc	r19, r1
    6ba0:	f9 f0       	breq	.+62     	; 0x6be0 <malloc+0xb0>
    6ba2:	28 1b       	sub	r18, r24
    6ba4:	39 0b       	sbc	r19, r25
    6ba6:	24 30       	cpi	r18, 0x04	; 4
    6ba8:	31 05       	cpc	r19, r1
    6baa:	80 f4       	brcc	.+32     	; 0x6bcc <malloc+0x9c>
    6bac:	8a 81       	ldd	r24, Y+2	; 0x02
    6bae:	9b 81       	ldd	r25, Y+3	; 0x03
    6bb0:	61 15       	cp	r22, r1
    6bb2:	71 05       	cpc	r23, r1
    6bb4:	21 f0       	breq	.+8      	; 0x6bbe <malloc+0x8e>
    6bb6:	fb 01       	movw	r30, r22
    6bb8:	93 83       	std	Z+3, r25	; 0x03
    6bba:	82 83       	std	Z+2, r24	; 0x02
    6bbc:	04 c0       	rjmp	.+8      	; 0x6bc6 <malloc+0x96>
    6bbe:	90 93 91 0a 	sts	0x0A91, r25	; 0x800a91 <__flp+0x1>
    6bc2:	80 93 90 0a 	sts	0x0A90, r24	; 0x800a90 <__flp>
    6bc6:	fe 01       	movw	r30, r28
    6bc8:	32 96       	adiw	r30, 0x02	; 2
    6bca:	44 c0       	rjmp	.+136    	; 0x6c54 <malloc+0x124>
    6bcc:	fe 01       	movw	r30, r28
    6bce:	e2 0f       	add	r30, r18
    6bd0:	f3 1f       	adc	r31, r19
    6bd2:	81 93       	st	Z+, r24
    6bd4:	91 93       	st	Z+, r25
    6bd6:	22 50       	subi	r18, 0x02	; 2
    6bd8:	31 09       	sbc	r19, r1
    6bda:	39 83       	std	Y+1, r19	; 0x01
    6bdc:	28 83       	st	Y, r18
    6bde:	3a c0       	rjmp	.+116    	; 0x6c54 <malloc+0x124>
    6be0:	20 91 8e 0a 	lds	r18, 0x0A8E	; 0x800a8e <__brkval>
    6be4:	30 91 8f 0a 	lds	r19, 0x0A8F	; 0x800a8f <__brkval+0x1>
    6be8:	23 2b       	or	r18, r19
    6bea:	41 f4       	brne	.+16     	; 0x6bfc <malloc+0xcc>
    6bec:	20 91 02 02 	lds	r18, 0x0202	; 0x800202 <__malloc_heap_start>
    6bf0:	30 91 03 02 	lds	r19, 0x0203	; 0x800203 <__malloc_heap_start+0x1>
    6bf4:	30 93 8f 0a 	sts	0x0A8F, r19	; 0x800a8f <__brkval+0x1>
    6bf8:	20 93 8e 0a 	sts	0x0A8E, r18	; 0x800a8e <__brkval>
    6bfc:	20 91 00 02 	lds	r18, 0x0200	; 0x800200 <__data_start>
    6c00:	30 91 01 02 	lds	r19, 0x0201	; 0x800201 <__data_start+0x1>
    6c04:	21 15       	cp	r18, r1
    6c06:	31 05       	cpc	r19, r1
    6c08:	41 f4       	brne	.+16     	; 0x6c1a <malloc+0xea>
    6c0a:	2d b7       	in	r18, 0x3d	; 61
    6c0c:	3e b7       	in	r19, 0x3e	; 62
    6c0e:	40 91 04 02 	lds	r20, 0x0204	; 0x800204 <__malloc_margin>
    6c12:	50 91 05 02 	lds	r21, 0x0205	; 0x800205 <__malloc_margin+0x1>
    6c16:	24 1b       	sub	r18, r20
    6c18:	35 0b       	sbc	r19, r21
    6c1a:	e0 91 8e 0a 	lds	r30, 0x0A8E	; 0x800a8e <__brkval>
    6c1e:	f0 91 8f 0a 	lds	r31, 0x0A8F	; 0x800a8f <__brkval+0x1>
    6c22:	e2 17       	cp	r30, r18
    6c24:	f3 07       	cpc	r31, r19
    6c26:	a0 f4       	brcc	.+40     	; 0x6c50 <malloc+0x120>
    6c28:	2e 1b       	sub	r18, r30
    6c2a:	3f 0b       	sbc	r19, r31
    6c2c:	28 17       	cp	r18, r24
    6c2e:	39 07       	cpc	r19, r25
    6c30:	78 f0       	brcs	.+30     	; 0x6c50 <malloc+0x120>
    6c32:	ac 01       	movw	r20, r24
    6c34:	4e 5f       	subi	r20, 0xFE	; 254
    6c36:	5f 4f       	sbci	r21, 0xFF	; 255
    6c38:	24 17       	cp	r18, r20
    6c3a:	35 07       	cpc	r19, r21
    6c3c:	48 f0       	brcs	.+18     	; 0x6c50 <malloc+0x120>
    6c3e:	4e 0f       	add	r20, r30
    6c40:	5f 1f       	adc	r21, r31
    6c42:	50 93 8f 0a 	sts	0x0A8F, r21	; 0x800a8f <__brkval+0x1>
    6c46:	40 93 8e 0a 	sts	0x0A8E, r20	; 0x800a8e <__brkval>
    6c4a:	81 93       	st	Z+, r24
    6c4c:	91 93       	st	Z+, r25
    6c4e:	02 c0       	rjmp	.+4      	; 0x6c54 <malloc+0x124>
    6c50:	e0 e0       	ldi	r30, 0x00	; 0
    6c52:	f0 e0       	ldi	r31, 0x00	; 0
    6c54:	cf 01       	movw	r24, r30
    6c56:	df 91       	pop	r29
    6c58:	cf 91       	pop	r28
    6c5a:	1f 91       	pop	r17
    6c5c:	0f 91       	pop	r16
    6c5e:	08 95       	ret

00006c60 <free>:
    6c60:	cf 93       	push	r28
    6c62:	df 93       	push	r29
    6c64:	00 97       	sbiw	r24, 0x00	; 0
    6c66:	09 f4       	brne	.+2      	; 0x6c6a <free+0xa>
    6c68:	81 c0       	rjmp	.+258    	; 0x6d6c <free+0x10c>
    6c6a:	fc 01       	movw	r30, r24
    6c6c:	32 97       	sbiw	r30, 0x02	; 2
    6c6e:	13 82       	std	Z+3, r1	; 0x03
    6c70:	12 82       	std	Z+2, r1	; 0x02
    6c72:	a0 91 90 0a 	lds	r26, 0x0A90	; 0x800a90 <__flp>
    6c76:	b0 91 91 0a 	lds	r27, 0x0A91	; 0x800a91 <__flp+0x1>
    6c7a:	10 97       	sbiw	r26, 0x00	; 0
    6c7c:	81 f4       	brne	.+32     	; 0x6c9e <free+0x3e>
    6c7e:	20 81       	ld	r18, Z
    6c80:	31 81       	ldd	r19, Z+1	; 0x01
    6c82:	82 0f       	add	r24, r18
    6c84:	93 1f       	adc	r25, r19
    6c86:	20 91 8e 0a 	lds	r18, 0x0A8E	; 0x800a8e <__brkval>
    6c8a:	30 91 8f 0a 	lds	r19, 0x0A8F	; 0x800a8f <__brkval+0x1>
    6c8e:	28 17       	cp	r18, r24
    6c90:	39 07       	cpc	r19, r25
    6c92:	51 f5       	brne	.+84     	; 0x6ce8 <free+0x88>
    6c94:	f0 93 8f 0a 	sts	0x0A8F, r31	; 0x800a8f <__brkval+0x1>
    6c98:	e0 93 8e 0a 	sts	0x0A8E, r30	; 0x800a8e <__brkval>
    6c9c:	67 c0       	rjmp	.+206    	; 0x6d6c <free+0x10c>
    6c9e:	ed 01       	movw	r28, r26
    6ca0:	20 e0       	ldi	r18, 0x00	; 0
    6ca2:	30 e0       	ldi	r19, 0x00	; 0
    6ca4:	ce 17       	cp	r28, r30
    6ca6:	df 07       	cpc	r29, r31
    6ca8:	40 f4       	brcc	.+16     	; 0x6cba <free+0x5a>
    6caa:	4a 81       	ldd	r20, Y+2	; 0x02
    6cac:	5b 81       	ldd	r21, Y+3	; 0x03
    6cae:	9e 01       	movw	r18, r28
    6cb0:	41 15       	cp	r20, r1
    6cb2:	51 05       	cpc	r21, r1
    6cb4:	f1 f0       	breq	.+60     	; 0x6cf2 <free+0x92>
    6cb6:	ea 01       	movw	r28, r20
    6cb8:	f5 cf       	rjmp	.-22     	; 0x6ca4 <free+0x44>
    6cba:	d3 83       	std	Z+3, r29	; 0x03
    6cbc:	c2 83       	std	Z+2, r28	; 0x02
    6cbe:	40 81       	ld	r20, Z
    6cc0:	51 81       	ldd	r21, Z+1	; 0x01
    6cc2:	84 0f       	add	r24, r20
    6cc4:	95 1f       	adc	r25, r21
    6cc6:	c8 17       	cp	r28, r24
    6cc8:	d9 07       	cpc	r29, r25
    6cca:	59 f4       	brne	.+22     	; 0x6ce2 <free+0x82>
    6ccc:	88 81       	ld	r24, Y
    6cce:	99 81       	ldd	r25, Y+1	; 0x01
    6cd0:	84 0f       	add	r24, r20
    6cd2:	95 1f       	adc	r25, r21
    6cd4:	02 96       	adiw	r24, 0x02	; 2
    6cd6:	91 83       	std	Z+1, r25	; 0x01
    6cd8:	80 83       	st	Z, r24
    6cda:	8a 81       	ldd	r24, Y+2	; 0x02
    6cdc:	9b 81       	ldd	r25, Y+3	; 0x03
    6cde:	93 83       	std	Z+3, r25	; 0x03
    6ce0:	82 83       	std	Z+2, r24	; 0x02
    6ce2:	21 15       	cp	r18, r1
    6ce4:	31 05       	cpc	r19, r1
    6ce6:	29 f4       	brne	.+10     	; 0x6cf2 <free+0x92>
    6ce8:	f0 93 91 0a 	sts	0x0A91, r31	; 0x800a91 <__flp+0x1>
    6cec:	e0 93 90 0a 	sts	0x0A90, r30	; 0x800a90 <__flp>
    6cf0:	3d c0       	rjmp	.+122    	; 0x6d6c <free+0x10c>
    6cf2:	e9 01       	movw	r28, r18
    6cf4:	fb 83       	std	Y+3, r31	; 0x03
    6cf6:	ea 83       	std	Y+2, r30	; 0x02
    6cf8:	49 91       	ld	r20, Y+
    6cfa:	59 91       	ld	r21, Y+
    6cfc:	c4 0f       	add	r28, r20
    6cfe:	d5 1f       	adc	r29, r21
    6d00:	ec 17       	cp	r30, r28
    6d02:	fd 07       	cpc	r31, r29
    6d04:	61 f4       	brne	.+24     	; 0x6d1e <free+0xbe>
    6d06:	80 81       	ld	r24, Z
    6d08:	91 81       	ldd	r25, Z+1	; 0x01
    6d0a:	84 0f       	add	r24, r20
    6d0c:	95 1f       	adc	r25, r21
    6d0e:	02 96       	adiw	r24, 0x02	; 2
    6d10:	e9 01       	movw	r28, r18
    6d12:	99 83       	std	Y+1, r25	; 0x01
    6d14:	88 83       	st	Y, r24
    6d16:	82 81       	ldd	r24, Z+2	; 0x02
    6d18:	93 81       	ldd	r25, Z+3	; 0x03
    6d1a:	9b 83       	std	Y+3, r25	; 0x03
    6d1c:	8a 83       	std	Y+2, r24	; 0x02
    6d1e:	e0 e0       	ldi	r30, 0x00	; 0
    6d20:	f0 e0       	ldi	r31, 0x00	; 0
    6d22:	12 96       	adiw	r26, 0x02	; 2
    6d24:	8d 91       	ld	r24, X+
    6d26:	9c 91       	ld	r25, X
    6d28:	13 97       	sbiw	r26, 0x03	; 3
    6d2a:	00 97       	sbiw	r24, 0x00	; 0
    6d2c:	19 f0       	breq	.+6      	; 0x6d34 <free+0xd4>
    6d2e:	fd 01       	movw	r30, r26
    6d30:	dc 01       	movw	r26, r24
    6d32:	f7 cf       	rjmp	.-18     	; 0x6d22 <free+0xc2>
    6d34:	8d 91       	ld	r24, X+
    6d36:	9c 91       	ld	r25, X
    6d38:	11 97       	sbiw	r26, 0x01	; 1
    6d3a:	9d 01       	movw	r18, r26
    6d3c:	2e 5f       	subi	r18, 0xFE	; 254
    6d3e:	3f 4f       	sbci	r19, 0xFF	; 255
    6d40:	82 0f       	add	r24, r18
    6d42:	93 1f       	adc	r25, r19
    6d44:	20 91 8e 0a 	lds	r18, 0x0A8E	; 0x800a8e <__brkval>
    6d48:	30 91 8f 0a 	lds	r19, 0x0A8F	; 0x800a8f <__brkval+0x1>
    6d4c:	28 17       	cp	r18, r24
    6d4e:	39 07       	cpc	r19, r25
    6d50:	69 f4       	brne	.+26     	; 0x6d6c <free+0x10c>
    6d52:	30 97       	sbiw	r30, 0x00	; 0
    6d54:	29 f4       	brne	.+10     	; 0x6d60 <free+0x100>
    6d56:	10 92 91 0a 	sts	0x0A91, r1	; 0x800a91 <__flp+0x1>
    6d5a:	10 92 90 0a 	sts	0x0A90, r1	; 0x800a90 <__flp>
    6d5e:	02 c0       	rjmp	.+4      	; 0x6d64 <free+0x104>
    6d60:	13 82       	std	Z+3, r1	; 0x03
    6d62:	12 82       	std	Z+2, r1	; 0x02
    6d64:	b0 93 8f 0a 	sts	0x0A8F, r27	; 0x800a8f <__brkval+0x1>
    6d68:	a0 93 8e 0a 	sts	0x0A8E, r26	; 0x800a8e <__brkval>
    6d6c:	df 91       	pop	r29
    6d6e:	cf 91       	pop	r28
    6d70:	08 95       	ret

00006d72 <abort>:
    6d72:	81 e0       	ldi	r24, 0x01	; 1
    6d74:	90 e0       	ldi	r25, 0x00	; 0
    6d76:	f8 94       	cli
    6d78:	58 c3       	rjmp	.+1712   	; 0x742a <_exit>

00006d7a <memcpy>:
    6d7a:	fb 01       	movw	r30, r22
    6d7c:	dc 01       	movw	r26, r24
    6d7e:	02 c0       	rjmp	.+4      	; 0x6d84 <memcpy+0xa>
    6d80:	01 90       	ld	r0, Z+
    6d82:	0d 92       	st	X+, r0
    6d84:	41 50       	subi	r20, 0x01	; 1
    6d86:	50 40       	sbci	r21, 0x00	; 0
    6d88:	d8 f7       	brcc	.-10     	; 0x6d80 <memcpy+0x6>
    6d8a:	08 95       	ret

00006d8c <memset>:
    6d8c:	dc 01       	movw	r26, r24
    6d8e:	01 c0       	rjmp	.+2      	; 0x6d92 <memset+0x6>
    6d90:	6d 93       	st	X+, r22
    6d92:	41 50       	subi	r20, 0x01	; 1
    6d94:	50 40       	sbci	r21, 0x00	; 0
    6d96:	e0 f7       	brcc	.-8      	; 0x6d90 <memset+0x4>
    6d98:	08 95       	ret

00006d9a <strcat>:
    6d9a:	fb 01       	movw	r30, r22
    6d9c:	dc 01       	movw	r26, r24
    6d9e:	0d 90       	ld	r0, X+
    6da0:	00 20       	and	r0, r0
    6da2:	e9 f7       	brne	.-6      	; 0x6d9e <strcat+0x4>
    6da4:	11 97       	sbiw	r26, 0x01	; 1
    6da6:	01 90       	ld	r0, Z+
    6da8:	0d 92       	st	X+, r0
    6daa:	00 20       	and	r0, r0
    6dac:	e1 f7       	brne	.-8      	; 0x6da6 <strcat+0xc>
    6dae:	08 95       	ret

00006db0 <strcpy>:
    6db0:	fb 01       	movw	r30, r22
    6db2:	dc 01       	movw	r26, r24
    6db4:	01 90       	ld	r0, Z+
    6db6:	0d 92       	st	X+, r0
    6db8:	00 20       	and	r0, r0
    6dba:	e1 f7       	brne	.-8      	; 0x6db4 <strcpy+0x4>
    6dbc:	08 95       	ret

00006dbe <strncasecmp>:
    6dbe:	fb 01       	movw	r30, r22
    6dc0:	dc 01       	movw	r26, r24
    6dc2:	41 50       	subi	r20, 0x01	; 1
    6dc4:	50 40       	sbci	r21, 0x00	; 0
    6dc6:	88 f0       	brcs	.+34     	; 0x6dea <strncasecmp+0x2c>
    6dc8:	8d 91       	ld	r24, X+
    6dca:	81 34       	cpi	r24, 0x41	; 65
    6dcc:	1c f0       	brlt	.+6      	; 0x6dd4 <strncasecmp+0x16>
    6dce:	8b 35       	cpi	r24, 0x5B	; 91
    6dd0:	0c f4       	brge	.+2      	; 0x6dd4 <strncasecmp+0x16>
    6dd2:	80 5e       	subi	r24, 0xE0	; 224
    6dd4:	61 91       	ld	r22, Z+
    6dd6:	61 34       	cpi	r22, 0x41	; 65
    6dd8:	1c f0       	brlt	.+6      	; 0x6de0 <strncasecmp+0x22>
    6dda:	6b 35       	cpi	r22, 0x5B	; 91
    6ddc:	0c f4       	brge	.+2      	; 0x6de0 <strncasecmp+0x22>
    6dde:	60 5e       	subi	r22, 0xE0	; 224
    6de0:	86 1b       	sub	r24, r22
    6de2:	61 11       	cpse	r22, r1
    6de4:	71 f3       	breq	.-36     	; 0x6dc2 <strncasecmp+0x4>
    6de6:	99 0b       	sbc	r25, r25
    6de8:	08 95       	ret
    6dea:	88 1b       	sub	r24, r24
    6dec:	fc cf       	rjmp	.-8      	; 0x6de6 <strncasecmp+0x28>

00006dee <printf>:
    6dee:	cf 93       	push	r28
    6df0:	df 93       	push	r29
    6df2:	cd b7       	in	r28, 0x3d	; 61
    6df4:	de b7       	in	r29, 0x3e	; 62
    6df6:	ae 01       	movw	r20, r28
    6df8:	4a 5f       	subi	r20, 0xFA	; 250
    6dfa:	5f 4f       	sbci	r21, 0xFF	; 255
    6dfc:	fa 01       	movw	r30, r20
    6dfe:	61 91       	ld	r22, Z+
    6e00:	71 91       	ld	r23, Z+
    6e02:	af 01       	movw	r20, r30
    6e04:	80 91 94 0a 	lds	r24, 0x0A94	; 0x800a94 <__iob+0x2>
    6e08:	90 91 95 0a 	lds	r25, 0x0A95	; 0x800a95 <__iob+0x3>
    6e0c:	61 d0       	rcall	.+194    	; 0x6ed0 <vfprintf>
    6e0e:	df 91       	pop	r29
    6e10:	cf 91       	pop	r28
    6e12:	08 95       	ret

00006e14 <puts>:
    6e14:	0f 93       	push	r16
    6e16:	1f 93       	push	r17
    6e18:	cf 93       	push	r28
    6e1a:	df 93       	push	r29
    6e1c:	e0 91 94 0a 	lds	r30, 0x0A94	; 0x800a94 <__iob+0x2>
    6e20:	f0 91 95 0a 	lds	r31, 0x0A95	; 0x800a95 <__iob+0x3>
    6e24:	23 81       	ldd	r18, Z+3	; 0x03
    6e26:	21 ff       	sbrs	r18, 1
    6e28:	1b c0       	rjmp	.+54     	; 0x6e60 <puts+0x4c>
    6e2a:	8c 01       	movw	r16, r24
    6e2c:	d0 e0       	ldi	r29, 0x00	; 0
    6e2e:	c0 e0       	ldi	r28, 0x00	; 0
    6e30:	f8 01       	movw	r30, r16
    6e32:	81 91       	ld	r24, Z+
    6e34:	8f 01       	movw	r16, r30
    6e36:	60 91 94 0a 	lds	r22, 0x0A94	; 0x800a94 <__iob+0x2>
    6e3a:	70 91 95 0a 	lds	r23, 0x0A95	; 0x800a95 <__iob+0x3>
    6e3e:	db 01       	movw	r26, r22
    6e40:	18 96       	adiw	r26, 0x08	; 8
    6e42:	ed 91       	ld	r30, X+
    6e44:	fc 91       	ld	r31, X
    6e46:	19 97       	sbiw	r26, 0x09	; 9
    6e48:	88 23       	and	r24, r24
    6e4a:	31 f0       	breq	.+12     	; 0x6e58 <puts+0x44>
    6e4c:	19 95       	eicall
    6e4e:	89 2b       	or	r24, r25
    6e50:	79 f3       	breq	.-34     	; 0x6e30 <puts+0x1c>
    6e52:	df ef       	ldi	r29, 0xFF	; 255
    6e54:	cf ef       	ldi	r28, 0xFF	; 255
    6e56:	ec cf       	rjmp	.-40     	; 0x6e30 <puts+0x1c>
    6e58:	8a e0       	ldi	r24, 0x0A	; 10
    6e5a:	19 95       	eicall
    6e5c:	89 2b       	or	r24, r25
    6e5e:	19 f0       	breq	.+6      	; 0x6e66 <puts+0x52>
    6e60:	8f ef       	ldi	r24, 0xFF	; 255
    6e62:	9f ef       	ldi	r25, 0xFF	; 255
    6e64:	02 c0       	rjmp	.+4      	; 0x6e6a <puts+0x56>
    6e66:	8d 2f       	mov	r24, r29
    6e68:	9c 2f       	mov	r25, r28
    6e6a:	df 91       	pop	r29
    6e6c:	cf 91       	pop	r28
    6e6e:	1f 91       	pop	r17
    6e70:	0f 91       	pop	r16
    6e72:	08 95       	ret

00006e74 <sprintf>:
    6e74:	0f 93       	push	r16
    6e76:	1f 93       	push	r17
    6e78:	cf 93       	push	r28
    6e7a:	df 93       	push	r29
    6e7c:	cd b7       	in	r28, 0x3d	; 61
    6e7e:	de b7       	in	r29, 0x3e	; 62
    6e80:	2e 97       	sbiw	r28, 0x0e	; 14
    6e82:	0f b6       	in	r0, 0x3f	; 63
    6e84:	f8 94       	cli
    6e86:	de bf       	out	0x3e, r29	; 62
    6e88:	0f be       	out	0x3f, r0	; 63
    6e8a:	cd bf       	out	0x3d, r28	; 61
    6e8c:	0e 89       	ldd	r16, Y+22	; 0x16
    6e8e:	1f 89       	ldd	r17, Y+23	; 0x17
    6e90:	86 e0       	ldi	r24, 0x06	; 6
    6e92:	8c 83       	std	Y+4, r24	; 0x04
    6e94:	1a 83       	std	Y+2, r17	; 0x02
    6e96:	09 83       	std	Y+1, r16	; 0x01
    6e98:	8f ef       	ldi	r24, 0xFF	; 255
    6e9a:	9f e7       	ldi	r25, 0x7F	; 127
    6e9c:	9e 83       	std	Y+6, r25	; 0x06
    6e9e:	8d 83       	std	Y+5, r24	; 0x05
    6ea0:	ae 01       	movw	r20, r28
    6ea2:	46 5e       	subi	r20, 0xE6	; 230
    6ea4:	5f 4f       	sbci	r21, 0xFF	; 255
    6ea6:	68 8d       	ldd	r22, Y+24	; 0x18
    6ea8:	79 8d       	ldd	r23, Y+25	; 0x19
    6eaa:	ce 01       	movw	r24, r28
    6eac:	01 96       	adiw	r24, 0x01	; 1
    6eae:	10 d0       	rcall	.+32     	; 0x6ed0 <vfprintf>
    6eb0:	ef 81       	ldd	r30, Y+7	; 0x07
    6eb2:	f8 85       	ldd	r31, Y+8	; 0x08
    6eb4:	e0 0f       	add	r30, r16
    6eb6:	f1 1f       	adc	r31, r17
    6eb8:	10 82       	st	Z, r1
    6eba:	2e 96       	adiw	r28, 0x0e	; 14
    6ebc:	0f b6       	in	r0, 0x3f	; 63
    6ebe:	f8 94       	cli
    6ec0:	de bf       	out	0x3e, r29	; 62
    6ec2:	0f be       	out	0x3f, r0	; 63
    6ec4:	cd bf       	out	0x3d, r28	; 61
    6ec6:	df 91       	pop	r29
    6ec8:	cf 91       	pop	r28
    6eca:	1f 91       	pop	r17
    6ecc:	0f 91       	pop	r16
    6ece:	08 95       	ret

00006ed0 <vfprintf>:
    6ed0:	2f 92       	push	r2
    6ed2:	3f 92       	push	r3
    6ed4:	4f 92       	push	r4
    6ed6:	5f 92       	push	r5
    6ed8:	6f 92       	push	r6
    6eda:	7f 92       	push	r7
    6edc:	8f 92       	push	r8
    6ede:	9f 92       	push	r9
    6ee0:	af 92       	push	r10
    6ee2:	bf 92       	push	r11
    6ee4:	cf 92       	push	r12
    6ee6:	df 92       	push	r13
    6ee8:	ef 92       	push	r14
    6eea:	ff 92       	push	r15
    6eec:	0f 93       	push	r16
    6eee:	1f 93       	push	r17
    6ef0:	cf 93       	push	r28
    6ef2:	df 93       	push	r29
    6ef4:	cd b7       	in	r28, 0x3d	; 61
    6ef6:	de b7       	in	r29, 0x3e	; 62
    6ef8:	2b 97       	sbiw	r28, 0x0b	; 11
    6efa:	0f b6       	in	r0, 0x3f	; 63
    6efc:	f8 94       	cli
    6efe:	de bf       	out	0x3e, r29	; 62
    6f00:	0f be       	out	0x3f, r0	; 63
    6f02:	cd bf       	out	0x3d, r28	; 61
    6f04:	6c 01       	movw	r12, r24
    6f06:	7b 01       	movw	r14, r22
    6f08:	8a 01       	movw	r16, r20
    6f0a:	fc 01       	movw	r30, r24
    6f0c:	17 82       	std	Z+7, r1	; 0x07
    6f0e:	16 82       	std	Z+6, r1	; 0x06
    6f10:	83 81       	ldd	r24, Z+3	; 0x03
    6f12:	81 ff       	sbrs	r24, 1
    6f14:	bf c1       	rjmp	.+894    	; 0x7294 <vfprintf+0x3c4>
    6f16:	ce 01       	movw	r24, r28
    6f18:	01 96       	adiw	r24, 0x01	; 1
    6f1a:	3c 01       	movw	r6, r24
    6f1c:	f6 01       	movw	r30, r12
    6f1e:	93 81       	ldd	r25, Z+3	; 0x03
    6f20:	f7 01       	movw	r30, r14
    6f22:	93 fd       	sbrc	r25, 3
    6f24:	85 91       	lpm	r24, Z+
    6f26:	93 ff       	sbrs	r25, 3
    6f28:	81 91       	ld	r24, Z+
    6f2a:	7f 01       	movw	r14, r30
    6f2c:	88 23       	and	r24, r24
    6f2e:	09 f4       	brne	.+2      	; 0x6f32 <vfprintf+0x62>
    6f30:	ad c1       	rjmp	.+858    	; 0x728c <vfprintf+0x3bc>
    6f32:	85 32       	cpi	r24, 0x25	; 37
    6f34:	39 f4       	brne	.+14     	; 0x6f44 <vfprintf+0x74>
    6f36:	93 fd       	sbrc	r25, 3
    6f38:	85 91       	lpm	r24, Z+
    6f3a:	93 ff       	sbrs	r25, 3
    6f3c:	81 91       	ld	r24, Z+
    6f3e:	7f 01       	movw	r14, r30
    6f40:	85 32       	cpi	r24, 0x25	; 37
    6f42:	21 f4       	brne	.+8      	; 0x6f4c <vfprintf+0x7c>
    6f44:	b6 01       	movw	r22, r12
    6f46:	90 e0       	ldi	r25, 0x00	; 0
    6f48:	d6 d1       	rcall	.+940    	; 0x72f6 <fputc>
    6f4a:	e8 cf       	rjmp	.-48     	; 0x6f1c <vfprintf+0x4c>
    6f4c:	91 2c       	mov	r9, r1
    6f4e:	21 2c       	mov	r2, r1
    6f50:	31 2c       	mov	r3, r1
    6f52:	ff e1       	ldi	r31, 0x1F	; 31
    6f54:	f3 15       	cp	r31, r3
    6f56:	d8 f0       	brcs	.+54     	; 0x6f8e <vfprintf+0xbe>
    6f58:	8b 32       	cpi	r24, 0x2B	; 43
    6f5a:	79 f0       	breq	.+30     	; 0x6f7a <vfprintf+0xaa>
    6f5c:	38 f4       	brcc	.+14     	; 0x6f6c <vfprintf+0x9c>
    6f5e:	80 32       	cpi	r24, 0x20	; 32
    6f60:	79 f0       	breq	.+30     	; 0x6f80 <vfprintf+0xb0>
    6f62:	83 32       	cpi	r24, 0x23	; 35
    6f64:	a1 f4       	brne	.+40     	; 0x6f8e <vfprintf+0xbe>
    6f66:	23 2d       	mov	r18, r3
    6f68:	20 61       	ori	r18, 0x10	; 16
    6f6a:	1d c0       	rjmp	.+58     	; 0x6fa6 <vfprintf+0xd6>
    6f6c:	8d 32       	cpi	r24, 0x2D	; 45
    6f6e:	61 f0       	breq	.+24     	; 0x6f88 <vfprintf+0xb8>
    6f70:	80 33       	cpi	r24, 0x30	; 48
    6f72:	69 f4       	brne	.+26     	; 0x6f8e <vfprintf+0xbe>
    6f74:	23 2d       	mov	r18, r3
    6f76:	21 60       	ori	r18, 0x01	; 1
    6f78:	16 c0       	rjmp	.+44     	; 0x6fa6 <vfprintf+0xd6>
    6f7a:	83 2d       	mov	r24, r3
    6f7c:	82 60       	ori	r24, 0x02	; 2
    6f7e:	38 2e       	mov	r3, r24
    6f80:	e3 2d       	mov	r30, r3
    6f82:	e4 60       	ori	r30, 0x04	; 4
    6f84:	3e 2e       	mov	r3, r30
    6f86:	2a c0       	rjmp	.+84     	; 0x6fdc <vfprintf+0x10c>
    6f88:	f3 2d       	mov	r31, r3
    6f8a:	f8 60       	ori	r31, 0x08	; 8
    6f8c:	1d c0       	rjmp	.+58     	; 0x6fc8 <vfprintf+0xf8>
    6f8e:	37 fc       	sbrc	r3, 7
    6f90:	2d c0       	rjmp	.+90     	; 0x6fec <vfprintf+0x11c>
    6f92:	20 ed       	ldi	r18, 0xD0	; 208
    6f94:	28 0f       	add	r18, r24
    6f96:	2a 30       	cpi	r18, 0x0A	; 10
    6f98:	40 f0       	brcs	.+16     	; 0x6faa <vfprintf+0xda>
    6f9a:	8e 32       	cpi	r24, 0x2E	; 46
    6f9c:	b9 f4       	brne	.+46     	; 0x6fcc <vfprintf+0xfc>
    6f9e:	36 fc       	sbrc	r3, 6
    6fa0:	75 c1       	rjmp	.+746    	; 0x728c <vfprintf+0x3bc>
    6fa2:	23 2d       	mov	r18, r3
    6fa4:	20 64       	ori	r18, 0x40	; 64
    6fa6:	32 2e       	mov	r3, r18
    6fa8:	19 c0       	rjmp	.+50     	; 0x6fdc <vfprintf+0x10c>
    6faa:	36 fe       	sbrs	r3, 6
    6fac:	06 c0       	rjmp	.+12     	; 0x6fba <vfprintf+0xea>
    6fae:	8a e0       	ldi	r24, 0x0A	; 10
    6fb0:	98 9e       	mul	r9, r24
    6fb2:	20 0d       	add	r18, r0
    6fb4:	11 24       	eor	r1, r1
    6fb6:	92 2e       	mov	r9, r18
    6fb8:	11 c0       	rjmp	.+34     	; 0x6fdc <vfprintf+0x10c>
    6fba:	ea e0       	ldi	r30, 0x0A	; 10
    6fbc:	2e 9e       	mul	r2, r30
    6fbe:	20 0d       	add	r18, r0
    6fc0:	11 24       	eor	r1, r1
    6fc2:	22 2e       	mov	r2, r18
    6fc4:	f3 2d       	mov	r31, r3
    6fc6:	f0 62       	ori	r31, 0x20	; 32
    6fc8:	3f 2e       	mov	r3, r31
    6fca:	08 c0       	rjmp	.+16     	; 0x6fdc <vfprintf+0x10c>
    6fcc:	8c 36       	cpi	r24, 0x6C	; 108
    6fce:	21 f4       	brne	.+8      	; 0x6fd8 <vfprintf+0x108>
    6fd0:	83 2d       	mov	r24, r3
    6fd2:	80 68       	ori	r24, 0x80	; 128
    6fd4:	38 2e       	mov	r3, r24
    6fd6:	02 c0       	rjmp	.+4      	; 0x6fdc <vfprintf+0x10c>
    6fd8:	88 36       	cpi	r24, 0x68	; 104
    6fda:	41 f4       	brne	.+16     	; 0x6fec <vfprintf+0x11c>
    6fdc:	f7 01       	movw	r30, r14
    6fde:	93 fd       	sbrc	r25, 3
    6fe0:	85 91       	lpm	r24, Z+
    6fe2:	93 ff       	sbrs	r25, 3
    6fe4:	81 91       	ld	r24, Z+
    6fe6:	7f 01       	movw	r14, r30
    6fe8:	81 11       	cpse	r24, r1
    6fea:	b3 cf       	rjmp	.-154    	; 0x6f52 <vfprintf+0x82>
    6fec:	98 2f       	mov	r25, r24
    6fee:	9f 7d       	andi	r25, 0xDF	; 223
    6ff0:	95 54       	subi	r25, 0x45	; 69
    6ff2:	93 30       	cpi	r25, 0x03	; 3
    6ff4:	28 f4       	brcc	.+10     	; 0x7000 <vfprintf+0x130>
    6ff6:	0c 5f       	subi	r16, 0xFC	; 252
    6ff8:	1f 4f       	sbci	r17, 0xFF	; 255
    6ffa:	9f e3       	ldi	r25, 0x3F	; 63
    6ffc:	99 83       	std	Y+1, r25	; 0x01
    6ffe:	0d c0       	rjmp	.+26     	; 0x701a <vfprintf+0x14a>
    7000:	83 36       	cpi	r24, 0x63	; 99
    7002:	31 f0       	breq	.+12     	; 0x7010 <vfprintf+0x140>
    7004:	83 37       	cpi	r24, 0x73	; 115
    7006:	71 f0       	breq	.+28     	; 0x7024 <vfprintf+0x154>
    7008:	83 35       	cpi	r24, 0x53	; 83
    700a:	09 f0       	breq	.+2      	; 0x700e <vfprintf+0x13e>
    700c:	55 c0       	rjmp	.+170    	; 0x70b8 <vfprintf+0x1e8>
    700e:	20 c0       	rjmp	.+64     	; 0x7050 <vfprintf+0x180>
    7010:	f8 01       	movw	r30, r16
    7012:	80 81       	ld	r24, Z
    7014:	89 83       	std	Y+1, r24	; 0x01
    7016:	0e 5f       	subi	r16, 0xFE	; 254
    7018:	1f 4f       	sbci	r17, 0xFF	; 255
    701a:	88 24       	eor	r8, r8
    701c:	83 94       	inc	r8
    701e:	91 2c       	mov	r9, r1
    7020:	53 01       	movw	r10, r6
    7022:	12 c0       	rjmp	.+36     	; 0x7048 <vfprintf+0x178>
    7024:	28 01       	movw	r4, r16
    7026:	f2 e0       	ldi	r31, 0x02	; 2
    7028:	4f 0e       	add	r4, r31
    702a:	51 1c       	adc	r5, r1
    702c:	f8 01       	movw	r30, r16
    702e:	a0 80       	ld	r10, Z
    7030:	b1 80       	ldd	r11, Z+1	; 0x01
    7032:	36 fe       	sbrs	r3, 6
    7034:	03 c0       	rjmp	.+6      	; 0x703c <vfprintf+0x16c>
    7036:	69 2d       	mov	r22, r9
    7038:	70 e0       	ldi	r23, 0x00	; 0
    703a:	02 c0       	rjmp	.+4      	; 0x7040 <vfprintf+0x170>
    703c:	6f ef       	ldi	r22, 0xFF	; 255
    703e:	7f ef       	ldi	r23, 0xFF	; 255
    7040:	c5 01       	movw	r24, r10
    7042:	4e d1       	rcall	.+668    	; 0x72e0 <strnlen>
    7044:	4c 01       	movw	r8, r24
    7046:	82 01       	movw	r16, r4
    7048:	f3 2d       	mov	r31, r3
    704a:	ff 77       	andi	r31, 0x7F	; 127
    704c:	3f 2e       	mov	r3, r31
    704e:	15 c0       	rjmp	.+42     	; 0x707a <vfprintf+0x1aa>
    7050:	28 01       	movw	r4, r16
    7052:	22 e0       	ldi	r18, 0x02	; 2
    7054:	42 0e       	add	r4, r18
    7056:	51 1c       	adc	r5, r1
    7058:	f8 01       	movw	r30, r16
    705a:	a0 80       	ld	r10, Z
    705c:	b1 80       	ldd	r11, Z+1	; 0x01
    705e:	36 fe       	sbrs	r3, 6
    7060:	03 c0       	rjmp	.+6      	; 0x7068 <vfprintf+0x198>
    7062:	69 2d       	mov	r22, r9
    7064:	70 e0       	ldi	r23, 0x00	; 0
    7066:	02 c0       	rjmp	.+4      	; 0x706c <vfprintf+0x19c>
    7068:	6f ef       	ldi	r22, 0xFF	; 255
    706a:	7f ef       	ldi	r23, 0xFF	; 255
    706c:	c5 01       	movw	r24, r10
    706e:	2d d1       	rcall	.+602    	; 0x72ca <strnlen_P>
    7070:	4c 01       	movw	r8, r24
    7072:	f3 2d       	mov	r31, r3
    7074:	f0 68       	ori	r31, 0x80	; 128
    7076:	3f 2e       	mov	r3, r31
    7078:	82 01       	movw	r16, r4
    707a:	33 fc       	sbrc	r3, 3
    707c:	19 c0       	rjmp	.+50     	; 0x70b0 <vfprintf+0x1e0>
    707e:	82 2d       	mov	r24, r2
    7080:	90 e0       	ldi	r25, 0x00	; 0
    7082:	88 16       	cp	r8, r24
    7084:	99 06       	cpc	r9, r25
    7086:	a0 f4       	brcc	.+40     	; 0x70b0 <vfprintf+0x1e0>
    7088:	b6 01       	movw	r22, r12
    708a:	80 e2       	ldi	r24, 0x20	; 32
    708c:	90 e0       	ldi	r25, 0x00	; 0
    708e:	33 d1       	rcall	.+614    	; 0x72f6 <fputc>
    7090:	2a 94       	dec	r2
    7092:	f5 cf       	rjmp	.-22     	; 0x707e <vfprintf+0x1ae>
    7094:	f5 01       	movw	r30, r10
    7096:	37 fc       	sbrc	r3, 7
    7098:	85 91       	lpm	r24, Z+
    709a:	37 fe       	sbrs	r3, 7
    709c:	81 91       	ld	r24, Z+
    709e:	5f 01       	movw	r10, r30
    70a0:	b6 01       	movw	r22, r12
    70a2:	90 e0       	ldi	r25, 0x00	; 0
    70a4:	28 d1       	rcall	.+592    	; 0x72f6 <fputc>
    70a6:	21 10       	cpse	r2, r1
    70a8:	2a 94       	dec	r2
    70aa:	21 e0       	ldi	r18, 0x01	; 1
    70ac:	82 1a       	sub	r8, r18
    70ae:	91 08       	sbc	r9, r1
    70b0:	81 14       	cp	r8, r1
    70b2:	91 04       	cpc	r9, r1
    70b4:	79 f7       	brne	.-34     	; 0x7094 <vfprintf+0x1c4>
    70b6:	e1 c0       	rjmp	.+450    	; 0x727a <vfprintf+0x3aa>
    70b8:	84 36       	cpi	r24, 0x64	; 100
    70ba:	11 f0       	breq	.+4      	; 0x70c0 <vfprintf+0x1f0>
    70bc:	89 36       	cpi	r24, 0x69	; 105
    70be:	39 f5       	brne	.+78     	; 0x710e <vfprintf+0x23e>
    70c0:	f8 01       	movw	r30, r16
    70c2:	37 fe       	sbrs	r3, 7
    70c4:	07 c0       	rjmp	.+14     	; 0x70d4 <vfprintf+0x204>
    70c6:	60 81       	ld	r22, Z
    70c8:	71 81       	ldd	r23, Z+1	; 0x01
    70ca:	82 81       	ldd	r24, Z+2	; 0x02
    70cc:	93 81       	ldd	r25, Z+3	; 0x03
    70ce:	0c 5f       	subi	r16, 0xFC	; 252
    70d0:	1f 4f       	sbci	r17, 0xFF	; 255
    70d2:	08 c0       	rjmp	.+16     	; 0x70e4 <vfprintf+0x214>
    70d4:	60 81       	ld	r22, Z
    70d6:	71 81       	ldd	r23, Z+1	; 0x01
    70d8:	07 2e       	mov	r0, r23
    70da:	00 0c       	add	r0, r0
    70dc:	88 0b       	sbc	r24, r24
    70de:	99 0b       	sbc	r25, r25
    70e0:	0e 5f       	subi	r16, 0xFE	; 254
    70e2:	1f 4f       	sbci	r17, 0xFF	; 255
    70e4:	f3 2d       	mov	r31, r3
    70e6:	ff 76       	andi	r31, 0x6F	; 111
    70e8:	3f 2e       	mov	r3, r31
    70ea:	97 ff       	sbrs	r25, 7
    70ec:	09 c0       	rjmp	.+18     	; 0x7100 <vfprintf+0x230>
    70ee:	90 95       	com	r25
    70f0:	80 95       	com	r24
    70f2:	70 95       	com	r23
    70f4:	61 95       	neg	r22
    70f6:	7f 4f       	sbci	r23, 0xFF	; 255
    70f8:	8f 4f       	sbci	r24, 0xFF	; 255
    70fa:	9f 4f       	sbci	r25, 0xFF	; 255
    70fc:	f0 68       	ori	r31, 0x80	; 128
    70fe:	3f 2e       	mov	r3, r31
    7100:	2a e0       	ldi	r18, 0x0A	; 10
    7102:	30 e0       	ldi	r19, 0x00	; 0
    7104:	a3 01       	movw	r20, r6
    7106:	33 d1       	rcall	.+614    	; 0x736e <__ultoa_invert>
    7108:	88 2e       	mov	r8, r24
    710a:	86 18       	sub	r8, r6
    710c:	44 c0       	rjmp	.+136    	; 0x7196 <vfprintf+0x2c6>
    710e:	85 37       	cpi	r24, 0x75	; 117
    7110:	31 f4       	brne	.+12     	; 0x711e <vfprintf+0x24e>
    7112:	23 2d       	mov	r18, r3
    7114:	2f 7e       	andi	r18, 0xEF	; 239
    7116:	b2 2e       	mov	r11, r18
    7118:	2a e0       	ldi	r18, 0x0A	; 10
    711a:	30 e0       	ldi	r19, 0x00	; 0
    711c:	25 c0       	rjmp	.+74     	; 0x7168 <vfprintf+0x298>
    711e:	93 2d       	mov	r25, r3
    7120:	99 7f       	andi	r25, 0xF9	; 249
    7122:	b9 2e       	mov	r11, r25
    7124:	8f 36       	cpi	r24, 0x6F	; 111
    7126:	c1 f0       	breq	.+48     	; 0x7158 <vfprintf+0x288>
    7128:	18 f4       	brcc	.+6      	; 0x7130 <vfprintf+0x260>
    712a:	88 35       	cpi	r24, 0x58	; 88
    712c:	79 f0       	breq	.+30     	; 0x714c <vfprintf+0x27c>
    712e:	ae c0       	rjmp	.+348    	; 0x728c <vfprintf+0x3bc>
    7130:	80 37       	cpi	r24, 0x70	; 112
    7132:	19 f0       	breq	.+6      	; 0x713a <vfprintf+0x26a>
    7134:	88 37       	cpi	r24, 0x78	; 120
    7136:	21 f0       	breq	.+8      	; 0x7140 <vfprintf+0x270>
    7138:	a9 c0       	rjmp	.+338    	; 0x728c <vfprintf+0x3bc>
    713a:	e9 2f       	mov	r30, r25
    713c:	e0 61       	ori	r30, 0x10	; 16
    713e:	be 2e       	mov	r11, r30
    7140:	b4 fe       	sbrs	r11, 4
    7142:	0d c0       	rjmp	.+26     	; 0x715e <vfprintf+0x28e>
    7144:	fb 2d       	mov	r31, r11
    7146:	f4 60       	ori	r31, 0x04	; 4
    7148:	bf 2e       	mov	r11, r31
    714a:	09 c0       	rjmp	.+18     	; 0x715e <vfprintf+0x28e>
    714c:	34 fe       	sbrs	r3, 4
    714e:	0a c0       	rjmp	.+20     	; 0x7164 <vfprintf+0x294>
    7150:	29 2f       	mov	r18, r25
    7152:	26 60       	ori	r18, 0x06	; 6
    7154:	b2 2e       	mov	r11, r18
    7156:	06 c0       	rjmp	.+12     	; 0x7164 <vfprintf+0x294>
    7158:	28 e0       	ldi	r18, 0x08	; 8
    715a:	30 e0       	ldi	r19, 0x00	; 0
    715c:	05 c0       	rjmp	.+10     	; 0x7168 <vfprintf+0x298>
    715e:	20 e1       	ldi	r18, 0x10	; 16
    7160:	30 e0       	ldi	r19, 0x00	; 0
    7162:	02 c0       	rjmp	.+4      	; 0x7168 <vfprintf+0x298>
    7164:	20 e1       	ldi	r18, 0x10	; 16
    7166:	32 e0       	ldi	r19, 0x02	; 2
    7168:	f8 01       	movw	r30, r16
    716a:	b7 fe       	sbrs	r11, 7
    716c:	07 c0       	rjmp	.+14     	; 0x717c <vfprintf+0x2ac>
    716e:	60 81       	ld	r22, Z
    7170:	71 81       	ldd	r23, Z+1	; 0x01
    7172:	82 81       	ldd	r24, Z+2	; 0x02
    7174:	93 81       	ldd	r25, Z+3	; 0x03
    7176:	0c 5f       	subi	r16, 0xFC	; 252
    7178:	1f 4f       	sbci	r17, 0xFF	; 255
    717a:	06 c0       	rjmp	.+12     	; 0x7188 <vfprintf+0x2b8>
    717c:	60 81       	ld	r22, Z
    717e:	71 81       	ldd	r23, Z+1	; 0x01
    7180:	80 e0       	ldi	r24, 0x00	; 0
    7182:	90 e0       	ldi	r25, 0x00	; 0
    7184:	0e 5f       	subi	r16, 0xFE	; 254
    7186:	1f 4f       	sbci	r17, 0xFF	; 255
    7188:	a3 01       	movw	r20, r6
    718a:	f1 d0       	rcall	.+482    	; 0x736e <__ultoa_invert>
    718c:	88 2e       	mov	r8, r24
    718e:	86 18       	sub	r8, r6
    7190:	fb 2d       	mov	r31, r11
    7192:	ff 77       	andi	r31, 0x7F	; 127
    7194:	3f 2e       	mov	r3, r31
    7196:	36 fe       	sbrs	r3, 6
    7198:	0d c0       	rjmp	.+26     	; 0x71b4 <vfprintf+0x2e4>
    719a:	23 2d       	mov	r18, r3
    719c:	2e 7f       	andi	r18, 0xFE	; 254
    719e:	a2 2e       	mov	r10, r18
    71a0:	89 14       	cp	r8, r9
    71a2:	58 f4       	brcc	.+22     	; 0x71ba <vfprintf+0x2ea>
    71a4:	34 fe       	sbrs	r3, 4
    71a6:	0b c0       	rjmp	.+22     	; 0x71be <vfprintf+0x2ee>
    71a8:	32 fc       	sbrc	r3, 2
    71aa:	09 c0       	rjmp	.+18     	; 0x71be <vfprintf+0x2ee>
    71ac:	83 2d       	mov	r24, r3
    71ae:	8e 7e       	andi	r24, 0xEE	; 238
    71b0:	a8 2e       	mov	r10, r24
    71b2:	05 c0       	rjmp	.+10     	; 0x71be <vfprintf+0x2ee>
    71b4:	b8 2c       	mov	r11, r8
    71b6:	a3 2c       	mov	r10, r3
    71b8:	03 c0       	rjmp	.+6      	; 0x71c0 <vfprintf+0x2f0>
    71ba:	b8 2c       	mov	r11, r8
    71bc:	01 c0       	rjmp	.+2      	; 0x71c0 <vfprintf+0x2f0>
    71be:	b9 2c       	mov	r11, r9
    71c0:	a4 fe       	sbrs	r10, 4
    71c2:	0f c0       	rjmp	.+30     	; 0x71e2 <vfprintf+0x312>
    71c4:	fe 01       	movw	r30, r28
    71c6:	e8 0d       	add	r30, r8
    71c8:	f1 1d       	adc	r31, r1
    71ca:	80 81       	ld	r24, Z
    71cc:	80 33       	cpi	r24, 0x30	; 48
    71ce:	21 f4       	brne	.+8      	; 0x71d8 <vfprintf+0x308>
    71d0:	9a 2d       	mov	r25, r10
    71d2:	99 7e       	andi	r25, 0xE9	; 233
    71d4:	a9 2e       	mov	r10, r25
    71d6:	09 c0       	rjmp	.+18     	; 0x71ea <vfprintf+0x31a>
    71d8:	a2 fe       	sbrs	r10, 2
    71da:	06 c0       	rjmp	.+12     	; 0x71e8 <vfprintf+0x318>
    71dc:	b3 94       	inc	r11
    71de:	b3 94       	inc	r11
    71e0:	04 c0       	rjmp	.+8      	; 0x71ea <vfprintf+0x31a>
    71e2:	8a 2d       	mov	r24, r10
    71e4:	86 78       	andi	r24, 0x86	; 134
    71e6:	09 f0       	breq	.+2      	; 0x71ea <vfprintf+0x31a>
    71e8:	b3 94       	inc	r11
    71ea:	a3 fc       	sbrc	r10, 3
    71ec:	10 c0       	rjmp	.+32     	; 0x720e <vfprintf+0x33e>
    71ee:	a0 fe       	sbrs	r10, 0
    71f0:	06 c0       	rjmp	.+12     	; 0x71fe <vfprintf+0x32e>
    71f2:	b2 14       	cp	r11, r2
    71f4:	80 f4       	brcc	.+32     	; 0x7216 <vfprintf+0x346>
    71f6:	28 0c       	add	r2, r8
    71f8:	92 2c       	mov	r9, r2
    71fa:	9b 18       	sub	r9, r11
    71fc:	0d c0       	rjmp	.+26     	; 0x7218 <vfprintf+0x348>
    71fe:	b2 14       	cp	r11, r2
    7200:	58 f4       	brcc	.+22     	; 0x7218 <vfprintf+0x348>
    7202:	b6 01       	movw	r22, r12
    7204:	80 e2       	ldi	r24, 0x20	; 32
    7206:	90 e0       	ldi	r25, 0x00	; 0
    7208:	76 d0       	rcall	.+236    	; 0x72f6 <fputc>
    720a:	b3 94       	inc	r11
    720c:	f8 cf       	rjmp	.-16     	; 0x71fe <vfprintf+0x32e>
    720e:	b2 14       	cp	r11, r2
    7210:	18 f4       	brcc	.+6      	; 0x7218 <vfprintf+0x348>
    7212:	2b 18       	sub	r2, r11
    7214:	02 c0       	rjmp	.+4      	; 0x721a <vfprintf+0x34a>
    7216:	98 2c       	mov	r9, r8
    7218:	21 2c       	mov	r2, r1
    721a:	a4 fe       	sbrs	r10, 4
    721c:	0f c0       	rjmp	.+30     	; 0x723c <vfprintf+0x36c>
    721e:	b6 01       	movw	r22, r12
    7220:	80 e3       	ldi	r24, 0x30	; 48
    7222:	90 e0       	ldi	r25, 0x00	; 0
    7224:	68 d0       	rcall	.+208    	; 0x72f6 <fputc>
    7226:	a2 fe       	sbrs	r10, 2
    7228:	16 c0       	rjmp	.+44     	; 0x7256 <vfprintf+0x386>
    722a:	a1 fc       	sbrc	r10, 1
    722c:	03 c0       	rjmp	.+6      	; 0x7234 <vfprintf+0x364>
    722e:	88 e7       	ldi	r24, 0x78	; 120
    7230:	90 e0       	ldi	r25, 0x00	; 0
    7232:	02 c0       	rjmp	.+4      	; 0x7238 <vfprintf+0x368>
    7234:	88 e5       	ldi	r24, 0x58	; 88
    7236:	90 e0       	ldi	r25, 0x00	; 0
    7238:	b6 01       	movw	r22, r12
    723a:	0c c0       	rjmp	.+24     	; 0x7254 <vfprintf+0x384>
    723c:	8a 2d       	mov	r24, r10
    723e:	86 78       	andi	r24, 0x86	; 134
    7240:	51 f0       	breq	.+20     	; 0x7256 <vfprintf+0x386>
    7242:	a1 fe       	sbrs	r10, 1
    7244:	02 c0       	rjmp	.+4      	; 0x724a <vfprintf+0x37a>
    7246:	8b e2       	ldi	r24, 0x2B	; 43
    7248:	01 c0       	rjmp	.+2      	; 0x724c <vfprintf+0x37c>
    724a:	80 e2       	ldi	r24, 0x20	; 32
    724c:	a7 fc       	sbrc	r10, 7
    724e:	8d e2       	ldi	r24, 0x2D	; 45
    7250:	b6 01       	movw	r22, r12
    7252:	90 e0       	ldi	r25, 0x00	; 0
    7254:	50 d0       	rcall	.+160    	; 0x72f6 <fputc>
    7256:	89 14       	cp	r8, r9
    7258:	30 f4       	brcc	.+12     	; 0x7266 <vfprintf+0x396>
    725a:	b6 01       	movw	r22, r12
    725c:	80 e3       	ldi	r24, 0x30	; 48
    725e:	90 e0       	ldi	r25, 0x00	; 0
    7260:	4a d0       	rcall	.+148    	; 0x72f6 <fputc>
    7262:	9a 94       	dec	r9
    7264:	f8 cf       	rjmp	.-16     	; 0x7256 <vfprintf+0x386>
    7266:	8a 94       	dec	r8
    7268:	f3 01       	movw	r30, r6
    726a:	e8 0d       	add	r30, r8
    726c:	f1 1d       	adc	r31, r1
    726e:	80 81       	ld	r24, Z
    7270:	b6 01       	movw	r22, r12
    7272:	90 e0       	ldi	r25, 0x00	; 0
    7274:	40 d0       	rcall	.+128    	; 0x72f6 <fputc>
    7276:	81 10       	cpse	r8, r1
    7278:	f6 cf       	rjmp	.-20     	; 0x7266 <vfprintf+0x396>
    727a:	22 20       	and	r2, r2
    727c:	09 f4       	brne	.+2      	; 0x7280 <vfprintf+0x3b0>
    727e:	4e ce       	rjmp	.-868    	; 0x6f1c <vfprintf+0x4c>
    7280:	b6 01       	movw	r22, r12
    7282:	80 e2       	ldi	r24, 0x20	; 32
    7284:	90 e0       	ldi	r25, 0x00	; 0
    7286:	37 d0       	rcall	.+110    	; 0x72f6 <fputc>
    7288:	2a 94       	dec	r2
    728a:	f7 cf       	rjmp	.-18     	; 0x727a <vfprintf+0x3aa>
    728c:	f6 01       	movw	r30, r12
    728e:	86 81       	ldd	r24, Z+6	; 0x06
    7290:	97 81       	ldd	r25, Z+7	; 0x07
    7292:	02 c0       	rjmp	.+4      	; 0x7298 <vfprintf+0x3c8>
    7294:	8f ef       	ldi	r24, 0xFF	; 255
    7296:	9f ef       	ldi	r25, 0xFF	; 255
    7298:	2b 96       	adiw	r28, 0x0b	; 11
    729a:	0f b6       	in	r0, 0x3f	; 63
    729c:	f8 94       	cli
    729e:	de bf       	out	0x3e, r29	; 62
    72a0:	0f be       	out	0x3f, r0	; 63
    72a2:	cd bf       	out	0x3d, r28	; 61
    72a4:	df 91       	pop	r29
    72a6:	cf 91       	pop	r28
    72a8:	1f 91       	pop	r17
    72aa:	0f 91       	pop	r16
    72ac:	ff 90       	pop	r15
    72ae:	ef 90       	pop	r14
    72b0:	df 90       	pop	r13
    72b2:	cf 90       	pop	r12
    72b4:	bf 90       	pop	r11
    72b6:	af 90       	pop	r10
    72b8:	9f 90       	pop	r9
    72ba:	8f 90       	pop	r8
    72bc:	7f 90       	pop	r7
    72be:	6f 90       	pop	r6
    72c0:	5f 90       	pop	r5
    72c2:	4f 90       	pop	r4
    72c4:	3f 90       	pop	r3
    72c6:	2f 90       	pop	r2
    72c8:	08 95       	ret

000072ca <strnlen_P>:
    72ca:	fc 01       	movw	r30, r24
    72cc:	05 90       	lpm	r0, Z+
    72ce:	61 50       	subi	r22, 0x01	; 1
    72d0:	70 40       	sbci	r23, 0x00	; 0
    72d2:	01 10       	cpse	r0, r1
    72d4:	d8 f7       	brcc	.-10     	; 0x72cc <strnlen_P+0x2>
    72d6:	80 95       	com	r24
    72d8:	90 95       	com	r25
    72da:	8e 0f       	add	r24, r30
    72dc:	9f 1f       	adc	r25, r31
    72de:	08 95       	ret

000072e0 <strnlen>:
    72e0:	fc 01       	movw	r30, r24
    72e2:	61 50       	subi	r22, 0x01	; 1
    72e4:	70 40       	sbci	r23, 0x00	; 0
    72e6:	01 90       	ld	r0, Z+
    72e8:	01 10       	cpse	r0, r1
    72ea:	d8 f7       	brcc	.-10     	; 0x72e2 <strnlen+0x2>
    72ec:	80 95       	com	r24
    72ee:	90 95       	com	r25
    72f0:	8e 0f       	add	r24, r30
    72f2:	9f 1f       	adc	r25, r31
    72f4:	08 95       	ret

000072f6 <fputc>:
    72f6:	0f 93       	push	r16
    72f8:	1f 93       	push	r17
    72fa:	cf 93       	push	r28
    72fc:	df 93       	push	r29
    72fe:	fb 01       	movw	r30, r22
    7300:	23 81       	ldd	r18, Z+3	; 0x03
    7302:	21 fd       	sbrc	r18, 1
    7304:	03 c0       	rjmp	.+6      	; 0x730c <fputc+0x16>
    7306:	8f ef       	ldi	r24, 0xFF	; 255
    7308:	9f ef       	ldi	r25, 0xFF	; 255
    730a:	2c c0       	rjmp	.+88     	; 0x7364 <fputc+0x6e>
    730c:	22 ff       	sbrs	r18, 2
    730e:	16 c0       	rjmp	.+44     	; 0x733c <fputc+0x46>
    7310:	46 81       	ldd	r20, Z+6	; 0x06
    7312:	57 81       	ldd	r21, Z+7	; 0x07
    7314:	24 81       	ldd	r18, Z+4	; 0x04
    7316:	35 81       	ldd	r19, Z+5	; 0x05
    7318:	42 17       	cp	r20, r18
    731a:	53 07       	cpc	r21, r19
    731c:	44 f4       	brge	.+16     	; 0x732e <fputc+0x38>
    731e:	a0 81       	ld	r26, Z
    7320:	b1 81       	ldd	r27, Z+1	; 0x01
    7322:	9d 01       	movw	r18, r26
    7324:	2f 5f       	subi	r18, 0xFF	; 255
    7326:	3f 4f       	sbci	r19, 0xFF	; 255
    7328:	31 83       	std	Z+1, r19	; 0x01
    732a:	20 83       	st	Z, r18
    732c:	8c 93       	st	X, r24
    732e:	26 81       	ldd	r18, Z+6	; 0x06
    7330:	37 81       	ldd	r19, Z+7	; 0x07
    7332:	2f 5f       	subi	r18, 0xFF	; 255
    7334:	3f 4f       	sbci	r19, 0xFF	; 255
    7336:	37 83       	std	Z+7, r19	; 0x07
    7338:	26 83       	std	Z+6, r18	; 0x06
    733a:	14 c0       	rjmp	.+40     	; 0x7364 <fputc+0x6e>
    733c:	8b 01       	movw	r16, r22
    733e:	ec 01       	movw	r28, r24
    7340:	fb 01       	movw	r30, r22
    7342:	00 84       	ldd	r0, Z+8	; 0x08
    7344:	f1 85       	ldd	r31, Z+9	; 0x09
    7346:	e0 2d       	mov	r30, r0
    7348:	19 95       	eicall
    734a:	89 2b       	or	r24, r25
    734c:	e1 f6       	brne	.-72     	; 0x7306 <fputc+0x10>
    734e:	d8 01       	movw	r26, r16
    7350:	16 96       	adiw	r26, 0x06	; 6
    7352:	8d 91       	ld	r24, X+
    7354:	9c 91       	ld	r25, X
    7356:	17 97       	sbiw	r26, 0x07	; 7
    7358:	01 96       	adiw	r24, 0x01	; 1
    735a:	17 96       	adiw	r26, 0x07	; 7
    735c:	9c 93       	st	X, r25
    735e:	8e 93       	st	-X, r24
    7360:	16 97       	sbiw	r26, 0x06	; 6
    7362:	ce 01       	movw	r24, r28
    7364:	df 91       	pop	r29
    7366:	cf 91       	pop	r28
    7368:	1f 91       	pop	r17
    736a:	0f 91       	pop	r16
    736c:	08 95       	ret

0000736e <__ultoa_invert>:
    736e:	fa 01       	movw	r30, r20
    7370:	aa 27       	eor	r26, r26
    7372:	28 30       	cpi	r18, 0x08	; 8
    7374:	51 f1       	breq	.+84     	; 0x73ca <__ultoa_invert+0x5c>
    7376:	20 31       	cpi	r18, 0x10	; 16
    7378:	81 f1       	breq	.+96     	; 0x73da <__ultoa_invert+0x6c>
    737a:	e8 94       	clt
    737c:	6f 93       	push	r22
    737e:	6e 7f       	andi	r22, 0xFE	; 254
    7380:	6e 5f       	subi	r22, 0xFE	; 254
    7382:	7f 4f       	sbci	r23, 0xFF	; 255
    7384:	8f 4f       	sbci	r24, 0xFF	; 255
    7386:	9f 4f       	sbci	r25, 0xFF	; 255
    7388:	af 4f       	sbci	r26, 0xFF	; 255
    738a:	b1 e0       	ldi	r27, 0x01	; 1
    738c:	3e d0       	rcall	.+124    	; 0x740a <__ultoa_invert+0x9c>
    738e:	b4 e0       	ldi	r27, 0x04	; 4
    7390:	3c d0       	rcall	.+120    	; 0x740a <__ultoa_invert+0x9c>
    7392:	67 0f       	add	r22, r23
    7394:	78 1f       	adc	r23, r24
    7396:	89 1f       	adc	r24, r25
    7398:	9a 1f       	adc	r25, r26
    739a:	a1 1d       	adc	r26, r1
    739c:	68 0f       	add	r22, r24
    739e:	79 1f       	adc	r23, r25
    73a0:	8a 1f       	adc	r24, r26
    73a2:	91 1d       	adc	r25, r1
    73a4:	a1 1d       	adc	r26, r1
    73a6:	6a 0f       	add	r22, r26
    73a8:	71 1d       	adc	r23, r1
    73aa:	81 1d       	adc	r24, r1
    73ac:	91 1d       	adc	r25, r1
    73ae:	a1 1d       	adc	r26, r1
    73b0:	20 d0       	rcall	.+64     	; 0x73f2 <__ultoa_invert+0x84>
    73b2:	09 f4       	brne	.+2      	; 0x73b6 <__ultoa_invert+0x48>
    73b4:	68 94       	set
    73b6:	3f 91       	pop	r19
    73b8:	2a e0       	ldi	r18, 0x0A	; 10
    73ba:	26 9f       	mul	r18, r22
    73bc:	11 24       	eor	r1, r1
    73be:	30 19       	sub	r19, r0
    73c0:	30 5d       	subi	r19, 0xD0	; 208
    73c2:	31 93       	st	Z+, r19
    73c4:	de f6       	brtc	.-74     	; 0x737c <__ultoa_invert+0xe>
    73c6:	cf 01       	movw	r24, r30
    73c8:	08 95       	ret
    73ca:	46 2f       	mov	r20, r22
    73cc:	47 70       	andi	r20, 0x07	; 7
    73ce:	40 5d       	subi	r20, 0xD0	; 208
    73d0:	41 93       	st	Z+, r20
    73d2:	b3 e0       	ldi	r27, 0x03	; 3
    73d4:	0f d0       	rcall	.+30     	; 0x73f4 <__ultoa_invert+0x86>
    73d6:	c9 f7       	brne	.-14     	; 0x73ca <__ultoa_invert+0x5c>
    73d8:	f6 cf       	rjmp	.-20     	; 0x73c6 <__ultoa_invert+0x58>
    73da:	46 2f       	mov	r20, r22
    73dc:	4f 70       	andi	r20, 0x0F	; 15
    73de:	40 5d       	subi	r20, 0xD0	; 208
    73e0:	4a 33       	cpi	r20, 0x3A	; 58
    73e2:	18 f0       	brcs	.+6      	; 0x73ea <__ultoa_invert+0x7c>
    73e4:	49 5d       	subi	r20, 0xD9	; 217
    73e6:	31 fd       	sbrc	r19, 1
    73e8:	40 52       	subi	r20, 0x20	; 32
    73ea:	41 93       	st	Z+, r20
    73ec:	02 d0       	rcall	.+4      	; 0x73f2 <__ultoa_invert+0x84>
    73ee:	a9 f7       	brne	.-22     	; 0x73da <__ultoa_invert+0x6c>
    73f0:	ea cf       	rjmp	.-44     	; 0x73c6 <__ultoa_invert+0x58>
    73f2:	b4 e0       	ldi	r27, 0x04	; 4
    73f4:	a6 95       	lsr	r26
    73f6:	97 95       	ror	r25
    73f8:	87 95       	ror	r24
    73fa:	77 95       	ror	r23
    73fc:	67 95       	ror	r22
    73fe:	ba 95       	dec	r27
    7400:	c9 f7       	brne	.-14     	; 0x73f4 <__ultoa_invert+0x86>
    7402:	00 97       	sbiw	r24, 0x00	; 0
    7404:	61 05       	cpc	r22, r1
    7406:	71 05       	cpc	r23, r1
    7408:	08 95       	ret
    740a:	9b 01       	movw	r18, r22
    740c:	ac 01       	movw	r20, r24
    740e:	0a 2e       	mov	r0, r26
    7410:	06 94       	lsr	r0
    7412:	57 95       	ror	r21
    7414:	47 95       	ror	r20
    7416:	37 95       	ror	r19
    7418:	27 95       	ror	r18
    741a:	ba 95       	dec	r27
    741c:	c9 f7       	brne	.-14     	; 0x7410 <__ultoa_invert+0xa2>
    741e:	62 0f       	add	r22, r18
    7420:	73 1f       	adc	r23, r19
    7422:	84 1f       	adc	r24, r20
    7424:	95 1f       	adc	r25, r21
    7426:	a0 1d       	adc	r26, r0
    7428:	08 95       	ret

0000742a <_exit>:
    742a:	f8 94       	cli

0000742c <__stop_program>:
    742c:	ff cf       	rjmp	.-2      	; 0x742c <__stop_program>
